msvcp_win.dll ??0?$basic_ios@DU?$char_traits@D@std@@@std@@IEAA@XZ
msvcp_win.dll ?gbump@?$basic_streambuf@DU?$char_traits@D@std@@@std@@IEAAXH@Z
msvcp_win.dll ?pbump@?$basic_streambuf@DU?$char_traits@D@std@@@std@@IEAAXH@Z
msvcp_win.dll ??0?$basic_iostream@DU?$char_traits@D@std@@@std@@QEAA@PEAV?$basic_streambuf@DU?$char_traits@D@std@@@1@@Z
msvcp_win.dll ??0?$basic_ios@GU?$char_traits@G@std@@@std@@IEAA@XZ
msvcp_win.dll ?gbump@?$basic_streambuf@GU?$char_traits@G@std@@@std@@IEAAXH@Z
msvcp_win.dll ?pbump@?$basic_streambuf@GU?$char_traits@G@std@@@std@@IEAAXH@Z
msvcp_win.dll ?_Osfx@?$basic_ostream@GU?$char_traits@G@std@@@std@@QEAAXXZ
msvcp_win.dll ?flush@?$basic_ostream@GU?$char_traits@G@std@@@std@@QEAAAEAV12@XZ
msvcp_win.dll ??0?$basic_iostream@GU?$char_traits@G@std@@@std@@QEAA@PEAV?$basic_streambuf@GU?$char_traits@G@std@@@1@@Z
msvcp_win.dll ??1?$basic_ios@DU?$char_traits@D@std@@@std@@UEAA@XZ
msvcp_win.dll ??1?$basic_streambuf@DU?$char_traits@D@std@@@std@@UEAA@XZ
msvcp_win.dll ?_Lock@?$basic_streambuf@DU?$char_traits@D@std@@@std@@UEAAXXZ
msvcp_win.dll ?_Unlock@?$basic_streambuf@DU?$char_traits@D@std@@@std@@UEAAXXZ
msvcp_win.dll ?showmanyc@?$basic_streambuf@DU?$char_traits@D@std@@@std@@MEAA_JXZ
msvcp_win.dll ?uflow@?$basic_streambuf@DU?$char_traits@D@std@@@std@@MEAAHXZ
msvcp_win.dll ?xsgetn@?$basic_streambuf@DU?$char_traits@D@std@@@std@@MEAA_JPEAD_J@Z
msvcp_win.dll ?xsputn@?$basic_streambuf@DU?$char_traits@D@std@@@std@@MEAA_JPEBD_J@Z
msvcp_win.dll ?setbuf@?$basic_streambuf@DU?$char_traits@D@std@@@std@@MEAAPEAV12@PEAD_J@Z
msvcp_win.dll ?sync@?$basic_streambuf@DU?$char_traits@D@std@@@std@@MEAAHXZ
msvcp_win.dll ?imbue@?$basic_streambuf@DU?$char_traits@D@std@@@std@@MEAAXAEBVlocale@2@@Z
msvcp_win.dll ??6?$basic_ostream@DU?$char_traits@D@std@@@std@@QEAAAEAV01@P6AAEAVios_base@1@AEAV21@@Z@Z
msvcp_win.dll ??6?$basic_ostream@DU?$char_traits@D@std@@@std@@QEAAAEAV01@J@Z
msvcp_win.dll ??1?$basic_iostream@DU?$char_traits@D@std@@@std@@UEAA@XZ
msvcp_win.dll ??1?$basic_ios@GU?$char_traits@G@std@@@std@@UEAA@XZ
msvcp_win.dll ?setstate@?$basic_ios@GU?$char_traits@G@std@@@std@@QEAAXH_N@Z
msvcp_win.dll ??1?$basic_streambuf@GU?$char_traits@G@std@@@std@@UEAA@XZ
msvcp_win.dll ?sputc@?$basic_streambuf@GU?$char_traits@G@std@@@std@@QEAAGG@Z
msvcp_win.dll ?_Lock@?$basic_streambuf@GU?$char_traits@G@std@@@std@@UEAAXXZ
msvcp_win.dll ?_Unlock@?$basic_streambuf@GU?$char_traits@G@std@@@std@@UEAAXXZ
msvcp_win.dll ?showmanyc@?$basic_streambuf@GU?$char_traits@G@std@@@std@@MEAA_JXZ
msvcp_win.dll ?uflow@?$basic_streambuf@GU?$char_traits@G@std@@@std@@MEAAGXZ
msvcp_win.dll ?xsgetn@?$basic_streambuf@GU?$char_traits@G@std@@@std@@MEAA_JPEAG_J@Z
msvcp_win.dll ?xsputn@?$basic_streambuf@GU?$char_traits@G@std@@@std@@MEAA_JPEBG_J@Z
msvcp_win.dll ?setbuf@?$basic_streambuf@GU?$char_traits@G@std@@@std@@MEAAPEAV12@PEAG_J@Z
msvcp_win.dll ?setstate@?$basic_ios@DU?$char_traits@D@std@@@std@@QEAAXH_N@Z
msvcp_win.dll ?imbue@?$basic_streambuf@GU?$char_traits@G@std@@@std@@MEAAXAEBVlocale@2@@Z
msvcp_win.dll ??1?$basic_iostream@GU?$char_traits@G@std@@@std@@UEAA@XZ
msvcp_win.dll ??0?$basic_ostream@DU?$char_traits@D@std@@@std@@QEAA@PEAV?$basic_streambuf@DU?$char_traits@D@std@@@1@_N@Z
msvcp_win.dll ??1?$basic_ostream@DU?$char_traits@D@std@@@std@@UEAA@XZ
msvcp_win.dll ??6?$basic_ostream@DU?$char_traits@D@std@@@std@@QEAAAEAV01@K@Z
msvcp_win.dll ??1?$basic_istream@GU?$char_traits@G@std@@@std@@UEAA@XZ
msvcp_win.dll ??0?$basic_istream@GU?$char_traits@G@std@@@std@@QEAA@PEAV?$basic_streambuf@GU?$char_traits@G@std@@@1@_N@Z
msvcp_win.dll ??5?$basic_istream@GU?$char_traits@G@std@@@std@@QEAAAEAV01@AEAM@Z
msvcp_win.dll ?clear@?$basic_ios@GU?$char_traits@G@std@@@std@@QEAAXH_N@Z
msvcp_win.dll ??1?$basic_ostream@GU?$char_traits@G@std@@@std@@UEAA@XZ
msvcp_win.dll ?getloc@ios_base@std@@QEBA?AVlocale@2@XZ
msvcp_win.dll ??1_Lockit@std@@QEAA@XZ
msvcp_win.dll ??0_Lockit@std@@QEAA@H@Z
msvcp_win.dll ?_Getgloballocale@locale@std@@CAPEAV_Locimp@12@XZ
msvcp_win.dll ??Bid@locale@std@@QEAA_KXZ
msvcp_win.dll ?_Getcat@?$ctype@G@std@@SA_KPEAPEBVfacet@locale@2@PEBV42@@Z
msvcp_win.dll ?id@?$ctype@G@std@@2V0locale@2@A
msvcp_win.dll ?widen@?$ctype@G@std@@QEBAGD@Z
msvcp_win.dll ??0?$basic_ostream@GU?$char_traits@G@std@@@std@@QEAA@PEAV?$basic_streambuf@GU?$char_traits@G@std@@@1@_N@Z
msvcp_win.dll ??6?$basic_ostream@GU?$char_traits@G@std@@@std@@QEAAAEAV01@H@Z
msvcp_win.dll ?sbumpc@?$basic_streambuf@GU?$char_traits@G@std@@@std@@QEAAGXZ
msvcp_win.dll ?sgetc@?$basic_streambuf@GU?$char_traits@G@std@@@std@@QEAAGXZ
msvcp_win.dll ?snextc@?$basic_streambuf@GU?$char_traits@G@std@@@std@@QEAAGXZ
msvcp_win.dll ?_Ipfx@?$basic_istream@GU?$char_traits@G@std@@@std@@QEAA_N_N@Z
msvcp_win.dll ??5?$basic_istream@GU?$char_traits@G@std@@@std@@QEAAAEAV01@AEAN@Z
msvcp_win.dll ??6?$basic_ostream@GU?$char_traits@G@std@@@std@@QEAAAEAV01@I@Z
msvcp_win.dll ??6?$basic_ostream@GU?$char_traits@G@std@@@std@@QEAAAEAV01@N@Z
msvcp_win.dll ??5?$basic_istream@GU?$char_traits@G@std@@@std@@QEAAAEAV01@AEAI@Z
msvcp_win.dll ?_Xinvalid_argument@std@@YAXPEBD@Z
msvcp_win.dll ?in@?$codecvt@GDU_Mbstatet@@@std@@QEBAHAEAU_Mbstatet@@PEBD1AEAPEBDPEAG3AEAPEAG@Z
msvcp_win.dll ?_Decref@facet@locale@std@@UEAAPEAV_Facet_base@3@XZ
msvcp_win.dll ?_Init@locale@std@@CAPEAV_Locimp@12@_N@Z
msvcp_win.dll ??1?$codecvt@GDU_Mbstatet@@@std@@MEAA@XZ
msvcp_win.dll ?_Incref@facet@locale@std@@UEAAXXZ
msvcp_win.dll ??0?$codecvt@GDU_Mbstatet@@@std@@QEAA@_K@Z
msvcp_win.dll ?_New_Locimp@_Locimp@locale@std@@CAPEAV123@AEBV123@@Z
msvcp_win.dll ?_Addfac@_Locimp@locale@std@@AEAAXPEAVfacet@23@_K@Z
msvcp_win.dll ?id@?$codecvt@GDU_Mbstatet@@@std@@2V0locale@2@A
msvcp_win.dll ??4?$_Yarn@D@std@@QEAAAEAV01@PEBD@Z
msvcp_win.dll ?sgetc@?$basic_streambuf@DU?$char_traits@D@std@@@std@@QEAAHXZ
msvcp_win.dll ?sbumpc@?$basic_streambuf@DU?$char_traits@D@std@@@std@@QEAAHXZ
msvcp_win.dll ?_Ipfx@?$basic_istream@DU?$char_traits@D@std@@@std@@QEAA_N_N@Z
msvcp_win.dll ?snextc@?$basic_streambuf@DU?$char_traits@D@std@@@std@@QEAAHXZ
msvcp_win.dll ??5?$basic_istream@GU?$char_traits@G@std@@@std@@QEAAAEAV01@AEA_K@Z
msvcp_win.dll ??1?$basic_istream@DU?$char_traits@D@std@@@std@@UEAA@XZ
msvcp_win.dll ?widen@?$basic_ios@DU?$char_traits@D@std@@@std@@QEBADD@Z
msvcp_win.dll ??0?$basic_istream@DU?$char_traits@D@std@@@std@@QEAA@PEAV?$basic_streambuf@DU?$char_traits@D@std@@@1@_N@Z
msvcp_win.dll ??5?$basic_istream@GU?$char_traits@G@std@@@std@@QEAAAEAV01@AEAH@Z
msvcp_win.dll ??6?$basic_ostream@GU?$char_traits@G@std@@@std@@QEAAAEAV01@PEBX@Z
msvcp_win.dll ??0?$basic_streambuf@GU?$char_traits@G@std@@@std@@IEAA@XZ
msvcp_win.dll ?flush@?$basic_ostream@DU?$char_traits@D@std@@@std@@QEAAAEAV12@XZ
msvcp_win.dll ?_Osfx@?$basic_ostream@DU?$char_traits@D@std@@@std@@QEAAXXZ
msvcp_win.dll ??0?$basic_streambuf@DU?$char_traits@D@std@@@std@@IEAA@XZ
msvcp_win.dll ??6?$basic_ostream@DU?$char_traits@D@std@@@std@@QEAAAEAV01@PEBX@Z
msvcp_win.dll ?_Xruntime_error@std@@YAXPEBD@Z
msvcp_win.dll ?_Makeloc@_Locimp@locale@std@@CAPEAV123@AEBV_Locinfo@3@HPEAV123@PEBV23@@Z
msvcp_win.dll ?_New_Locimp@_Locimp@locale@std@@CAPEAV123@_N@Z
msvcp_win.dll ?toupper@?$ctype@G@std@@QEBAGG@Z
msvcp_win.dll ??1_Locinfo@std@@QEAA@XZ
msvcp_win.dll ??0_Locinfo@std@@QEAA@HPEBD@Z
msvcp_win.dll ?sputc@?$basic_streambuf@DU?$char_traits@D@std@@@std@@QEAAHD@Z
msvcp_win.dll ?sputn@?$basic_streambuf@GU?$char_traits@G@std@@@std@@QEAA_JPEBG_J@Z
msvcp_win.dll ?sputn@?$basic_streambuf@DU?$char_traits@D@std@@@std@@QEAA_JPEBD_J@Z
msvcp_win.dll ?_BADOFF@std@@3_JB
msvcp_win.dll ?uncaught_exception@std@@YA_NXZ
msvcp_win.dll ?sync@?$basic_streambuf@GU?$char_traits@G@std@@@std@@MEAAHXZ
msvcp_win.dll ?_Xbad_function_call@std@@YAXXZ
msvcp_win.dll ?_Syserror_map@std@@YAPEBDH@Z
msvcp_win.dll ?_Xlength_error@std@@YAXPEBD@Z
msvcp_win.dll ?_Winerror_map@std@@YAHH@Z
msvcp_win.dll ?_Xout_of_range@std@@YAXPEBD@Z
msvcp_win.dll ?_Winerror_message@std@@YAKKPEADK@Z
msvcp_win.dll ?_Xbad_alloc@std@@YAXXZ
api-ms-win-crt-string-l1-1-0.dll strncmp
api-ms-win-crt-string-l1-1-0.dll wcspbrk
api-ms-win-crt-string-l1-1-0.dll wcsnlen
api-ms-win-crt-runtime-l1-1-0.dll _initterm_e
api-ms-win-crt-runtime-l1-1-0.dll _initterm
api-ms-win-crt-private-l1-1-0.dll _o__free_locale
api-ms-win-crt-private-l1-1-0.dll _o__initialize_narrow_environment
api-ms-win-crt-private-l1-1-0.dll _o__initialize_onexit_table
api-ms-win-crt-private-l1-1-0.dll _o__invalid_parameter_noinfo
api-ms-win-crt-private-l1-1-0.dll _o__invalid_parameter_noinfo_noreturn
api-ms-win-crt-private-l1-1-0.dll _o__msize
api-ms-win-crt-private-l1-1-0.dll _o__purecall
api-ms-win-crt-private-l1-1-0.dll _o__register_onexit_function
api-ms-win-crt-private-l1-1-0.dll _o__seh_filter_dll
api-ms-win-crt-private-l1-1-0.dll _o__crt_atexit
api-ms-win-crt-private-l1-1-0.dll _o__wcsicmp
api-ms-win-crt-private-l1-1-0.dll _o__wcsnicmp
api-ms-win-crt-private-l1-1-0.dll memcpy
api-ms-win-crt-private-l1-1-0.dll _o__wstat64i32
api-ms-win-crt-private-l1-1-0.dll _o__wtoi_l
api-ms-win-crt-private-l1-1-0.dll _o_acos
api-ms-win-crt-private-l1-1-0.dll _o_asin
api-ms-win-crt-private-l1-1-0.dll _o_atan
api-ms-win-crt-private-l1-1-0.dll _o_atan2
api-ms-win-crt-private-l1-1-0.dll _o_atof
api-ms-win-crt-private-l1-1-0.dll _o_atoi
api-ms-win-crt-private-l1-1-0.dll _o_ceil
api-ms-win-crt-private-l1-1-0.dll _o_ceilf
api-ms-win-crt-private-l1-1-0.dll _o_cos
api-ms-win-crt-private-l1-1-0.dll _o_cosf
api-ms-win-crt-private-l1-1-0.dll _o_exp
api-ms-win-crt-private-l1-1-0.dll _o_exp2f
api-ms-win-crt-private-l1-1-0.dll _o_floor
api-ms-win-crt-private-l1-1-0.dll _o_floorf
api-ms-win-crt-private-l1-1-0.dll _o_fmod
api-ms-win-crt-private-l1-1-0.dll _o_fmodf
api-ms-win-crt-private-l1-1-0.dll _o_free
api-ms-win-crt-private-l1-1-0.dll _o_islower
api-ms-win-crt-private-l1-1-0.dll _o_isupper
api-ms-win-crt-private-l1-1-0.dll _o_log
api-ms-win-crt-private-l1-1-0.dll _o_log2
api-ms-win-crt-private-l1-1-0.dll _o_malloc
api-ms-win-crt-private-l1-1-0.dll _o_memset
api-ms-win-crt-private-l1-1-0.dll _o_modff
api-ms-win-crt-private-l1-1-0.dll _o_pow
api-ms-win-crt-private-l1-1-0.dll _o_powf
api-ms-win-crt-private-l1-1-0.dll _o_realloc
api-ms-win-crt-private-l1-1-0.dll _o_round
api-ms-win-crt-private-l1-1-0.dll _o_roundf
api-ms-win-crt-private-l1-1-0.dll _o_sin
api-ms-win-crt-private-l1-1-0.dll _o_sinf
api-ms-win-crt-private-l1-1-0.dll _o_sinh
api-ms-win-crt-private-l1-1-0.dll _o_sqrt
api-ms-win-crt-private-l1-1-0.dll _o_sqrtf
api-ms-win-crt-private-l1-1-0.dll _o_tan
api-ms-win-crt-private-l1-1-0.dll _o_tanf
api-ms-win-crt-private-l1-1-0.dll _o_terminate
api-ms-win-crt-private-l1-1-0.dll _o_tolower
api-ms-win-crt-private-l1-1-0.dll _o_toupper
api-ms-win-crt-private-l1-1-0.dll _o_towlower
api-ms-win-crt-private-l1-1-0.dll _o_towupper
api-ms-win-crt-private-l1-1-0.dll _o_wcsncpy_s
api-ms-win-crt-private-l1-1-0.dll _o_wcstod
api-ms-win-crt-private-l1-1-0.dll _o_wcstol
api-ms-win-crt-private-l1-1-0.dll _o_wcstoll
api-ms-win-crt-private-l1-1-0.dll _o_wcstoul
api-ms-win-crt-private-l1-1-0.dll __C_specific_handler
api-ms-win-crt-private-l1-1-0.dll __CxxFrameHandler3
api-ms-win-crt-private-l1-1-0.dll _CxxThrowException
api-ms-win-crt-private-l1-1-0.dll __std_type_info_compare
api-ms-win-crt-private-l1-1-0.dll __std_terminate
api-ms-win-crt-private-l1-1-0.dll _o__create_locale
api-ms-win-crt-private-l1-1-0.dll _o___stdio_common_vswprintf_s
api-ms-win-crt-private-l1-1-0.dll _o__execute_onexit_table
api-ms-win-crt-private-l1-1-0.dll _o___stdio_common_vswprintf
api-ms-win-crt-private-l1-1-0.dll _o___stdio_common_vsprintf_s
api-ms-win-crt-private-l1-1-0.dll _o___stdio_common_vsnwprintf_s
api-ms-win-crt-private-l1-1-0.dll _o__errno
api-ms-win-crt-private-l1-1-0.dll _o___stdio_common_vsnprintf_s
api-ms-win-crt-private-l1-1-0.dll _o__configure_narrow_argv
api-ms-win-crt-private-l1-1-0.dll memmove
api-ms-win-crt-private-l1-1-0.dll _o__cexit
api-ms-win-crt-private-l1-1-0.dll _o__callnewh
api-ms-win-crt-private-l1-1-0.dll _o___std_type_info_destroy_list
api-ms-win-crt-private-l1-1-0.dll _o___std_exception_destroy
api-ms-win-crt-private-l1-1-0.dll _o___std_exception_copy
api-ms-win-crt-private-l1-1-0.dll _o__dtest
api-ms-win-crt-private-l1-1-0.dll wcschr
api-ms-win-crt-private-l1-1-0.dll memchr
api-ms-win-crt-private-l1-1-0.dll _o__expand
api-ms-win-crt-private-l1-1-0.dll memcmp
api-ms-win-crt-private-l1-1-0.dll __RTDynamicCast
mapconfiguration.dll ConfigurationManager_Initialize
mapconfiguration.dll ConfigurationManager_Create
mapconfiguration.dll ConfigurationManager_GetLocaleMapConfiguration
mapconfiguration.dll ConfigurationManager_Uninitialize
api-ms-win-core-winrt-string-l1-1-0.dll WindowsDeleteString
api-ms-win-core-winrt-string-l1-1-0.dll WindowsDuplicateString
api-ms-win-core-winrt-string-l1-1-0.dll WindowsConcatString
api-ms-win-core-winrt-string-l1-1-0.dll WindowsCreateStringReference
api-ms-win-core-winrt-string-l1-1-0.dll WindowsCreateString
api-ms-win-core-winrt-string-l1-1-0.dll WindowsGetStringRawBuffer
api-ms-win-core-com-l1-1-1.dll CoTaskMemAlloc
api-ms-win-core-com-l1-1-1.dll CreateStreamOnHGlobal
api-ms-win-core-com-l1-1-1.dll CoGetApartmentType
api-ms-win-core-com-l1-1-1.dll CoCreateFreeThreadedMarshaler
api-ms-win-core-com-l1-1-1.dll CoReleaseMarshalData
api-ms-win-core-com-l1-1-1.dll CoMarshalInterface
api-ms-win-core-com-l1-1-1.dll CoCreateInstance
api-ms-win-core-com-l1-1-1.dll RoGetAgileReference
api-ms-win-core-com-l1-1-1.dll CoTaskMemFree
api-ms-win-core-libraryloader-l1-2-0.dll SizeofResource
api-ms-win-core-libraryloader-l1-2-0.dll LockResource
api-ms-win-core-libraryloader-l1-2-0.dll LoadResource
api-ms-win-core-libraryloader-l1-2-0.dll LoadLibraryExW
api-ms-win-core-libraryloader-l1-2-0.dll GetProcAddress
api-ms-win-core-libraryloader-l1-2-0.dll DisableThreadLibraryCalls
api-ms-win-core-libraryloader-l1-2-2.dll FindResourceW
api-ms-win-core-errorhandling-l1-1-1.dll UnhandledExceptionFilter
api-ms-win-core-errorhandling-l1-1-1.dll GetLastError
api-ms-win-core-errorhandling-l1-1-1.dll RaiseException
api-ms-win-core-errorhandling-l1-1-1.dll SetUnhandledExceptionFilter
api-ms-win-core-errorhandling-l1-1-1.dll SetLastError
api-ms-win-core-winrt-error-l1-1-1.dll RoFailFastWithErrorContext
api-ms-win-core-winrt-error-l1-1-1.dll RoTransformError
api-ms-win-core-winrt-error-l1-1-1.dll SetRestrictedErrorInfo
api-ms-win-core-winrt-error-l1-1-1.dll RoOriginateErrorW
api-ms-win-core-winrt-error-l1-1-1.dll GetRestrictedErrorInfo
api-ms-win-core-winrt-error-l1-1-1.dll RoReportFailedDelegate
api-ms-win-core-winrt-error-l1-1-1.dll RoGetMatchingRestrictedErrorInfo
api-ms-win-core-winrt-error-l1-1-1.dll IsErrorPropagationEnabled
api-ms-win-core-winrt-error-l1-1-1.dll RoOriginateError
api-ms-win-core-synch-l1-2-0.dll EnterCriticalSection
api-ms-win-core-synch-l1-2-0.dll WaitForMultipleObjectsEx
api-ms-win-core-synch-l1-2-0.dll DeleteCriticalSection
api-ms-win-core-synch-l1-2-0.dll ResetEvent
api-ms-win-core-synch-l1-2-0.dll AcquireSRWLockExclusive
api-ms-win-core-synch-l1-2-0.dll WaitForSingleObjectEx
api-ms-win-core-synch-l1-2-0.dll AcquireSRWLockShared
api-ms-win-core-synch-l1-2-0.dll SetEvent
api-ms-win-core-synch-l1-2-0.dll ReleaseSRWLockExclusive
api-ms-win-core-synch-l1-2-0.dll InitializeCriticalSectionEx
api-ms-win-core-synch-l1-2-0.dll LeaveCriticalSection
api-ms-win-core-synch-l1-2-0.dll InitializeSRWLock
api-ms-win-core-synch-l1-2-0.dll CreateEventExW
api-ms-win-core-synch-l1-2-0.dll ReleaseSRWLockShared
api-ms-win-core-synch-l1-2-0.dll InitOnceExecuteOnce
api-ms-win-core-synch-l1-2-0.dll WakeByAddressSingle
api-ms-win-core-synch-l1-2-0.dll WaitOnAddress
api-ms-win-core-winrt-l1-1-0.dll RoGetActivationFactory
api-ms-win-core-processthreads-l1-1-2.dll OpenProcessToken
api-ms-win-core-processthreads-l1-1-2.dll OpenProcess
api-ms-win-core-processthreads-l1-1-2.dll GetCurrentThreadId
api-ms-win-core-processthreads-l1-1-2.dll GetCurrentProcessId
api-ms-win-core-processthreads-l1-1-2.dll TerminateProcess
api-ms-win-core-processthreads-l1-1-2.dll IsProcessorFeaturePresent
api-ms-win-core-processthreads-l1-1-2.dll GetCurrentProcess
api-ms-win-security-base-l1-2-0.dll GetTokenInformation
api-ms-win-core-handle-l1-1-0.dll CloseHandle
api-ms-win-core-timezone-l1-1-0.dll FileTimeToSystemTime
api-ms-win-core-timezone-l1-1-0.dll GetTimeZoneInformation
api-ms-win-core-timezone-l1-1-0.dll SystemTimeToFileTime
api-ms-win-core-string-l1-1-0.dll CompareStringOrdinal
api-ms-win-core-string-l1-1-0.dll MultiByteToWideChar
api-ms-win-core-string-l1-1-0.dll WideCharToMultiByte
api-ms-win-core-path-l1-1-0.dll PathCchCanonicalize
api-ms-win-core-sysinfo-l1-2-1.dll GetSystemTimeAsFileTime
api-ms-win-core-sysinfo-l1-2-1.dll GetNativeSystemInfo
api-ms-win-core-profile-l1-1-0.dll QueryPerformanceFrequency
api-ms-win-core-profile-l1-1-0.dll QueryPerformanceCounter
api-ms-win-core-interlocked-l1-2-0.dll InitializeSListHead
api-ms-win-core-rtlsupport-l1-2-0.dll RtlCaptureContext
api-ms-win-core-rtlsupport-l1-2-0.dll RtlVirtualUnwind
api-ms-win-core-rtlsupport-l1-2-0.dll RtlLookupFunctionEntry
api-ms-win-core-rtlsupport-l1-2-0.dll RtlCaptureStackBackTrace
api-ms-win-core-debug-l1-1-1.dll IsDebuggerPresent
api-ms-win-core-debug-l1-1-1.dll OutputDebugStringW
api-ms-win-core-file-l1-2-1.dll WriteFile
api-ms-win-core-file-l1-2-1.dll DeleteFileW
api-ms-win-core-file-l1-2-1.dll GetFileAttributesExW
api-ms-win-core-file-l1-2-1.dll SetFileAttributesW
api-ms-win-core-file-l1-2-1.dll CreateFile2
api-ms-win-core-file-l1-2-1.dll FindClose
api-ms-win-core-file-l1-2-1.dll RemoveDirectoryW
api-ms-win-core-file-l1-2-1.dll FindNextFileW
api-ms-win-core-file-l1-2-1.dll GetFileSizeEx
api-ms-win-core-file-l1-2-1.dll FindFirstFileW
api-ms-win-core-file-l1-2-1.dll CreateDirectoryW
api-ms-win-core-file-l1-2-1.dll ReadFile
api-ms-win-core-file-l2-1-1.dll GetFileInformationByHandleEx
api-ms-win-eventing-provider-l1-1-0.dll EventRegister
api-ms-win-eventing-provider-l1-1-0.dll EventUnregister
api-ms-win-eventing-provider-l1-1-0.dll EventWrite
api-ms-win-core-registry-l1-1-0.dll RegOpenKeyExW
api-ms-win-core-localization-l1-2-1.dll FormatMessageW
api-ms-win-core-io-l1-1-1.dll CancelIoEx
api-ms-win-core-psapi-l1-1-0.dll K32GetPerformanceInfo
api-ms-win-core-kernel32-legacy-l1-1-1.dll BindIoCompletionCallback
d3d11.dll D3D11CreateDevice
dwrite.dll DWriteCreateFactory
dxgi.dll CreateDXGIFactory1
api-ms-win-shcore-stream-winrt-l1-1-0.dll CreateRandomAccessStreamOverStream
ztrace_maps.dll ZTraceReportOrigination
ztrace_maps.dll ZTraceClose
ztrace_maps.dll ZTraceInit
ztrace_maps.dll ZTraceReportOriginationNoThis
ztrace_maps.dll ZTraceHelper
ztrace_maps.dll ZTraceReportIgnore
ztrace_maps.dll ZTraceReportPropagation
ztrace_maps.dll ZTraceReportPropagationNoThis
moshostclient.dll MosDeleteDataAsyncOperation
moshostclient.dll MosGetDataAsyncOperation
moshostclient.dll MosHostOpen
moshostclient.dll MosHostClose
