msvcp_win.dll ?_BADOFF@std@@3_JB
msvcp_win.dll ?snextc@?$basic_streambuf@GU?$char_traits@G@std@@@std@@QEAAGXZ
msvcp_win.dll ?_Ipfx@?$basic_istream@GU?$char_traits@G@std@@@std@@QEAA_N_N@Z
msvcp_win.dll ?sbumpc@?$basic_streambuf@GU?$char_traits@G@std@@@std@@QEAAGXZ
msvcp_win.dll ?sgetc@?$basic_streambuf@GU?$char_traits@G@std@@@std@@QEAAGXZ
msvcp_win.dll ??0?$basic_streambuf@GU?$char_traits@G@std@@@std@@IEAA@XZ
msvcp_win.dll ??0?$basic_ios@GU?$char_traits@G@std@@@std@@IEAA@XZ
msvcp_win.dll ?gbump@?$basic_streambuf@GU?$char_traits@G@std@@@std@@IEAAXH@Z
msvcp_win.dll ?pbump@?$basic_streambuf@GU?$char_traits@G@std@@@std@@IEAAXH@Z
msvcp_win.dll ??0?$basic_iostream@GU?$char_traits@G@std@@@std@@QEAA@PEAV?$basic_streambuf@GU?$char_traits@G@std@@@1@@Z
msvcp_win.dll ??1?$basic_ios@GU?$char_traits@G@std@@@std@@UEAA@XZ
msvcp_win.dll ?setstate@?$basic_ios@GU?$char_traits@G@std@@@std@@QEAAXH_N@Z
msvcp_win.dll ??1?$basic_streambuf@GU?$char_traits@G@std@@@std@@UEAA@XZ
msvcp_win.dll ?_Lock@?$basic_streambuf@GU?$char_traits@G@std@@@std@@UEAAXXZ
msvcp_win.dll ?_Unlock@?$basic_streambuf@GU?$char_traits@G@std@@@std@@UEAAXXZ
msvcp_win.dll ?showmanyc@?$basic_streambuf@GU?$char_traits@G@std@@@std@@MEAA_JXZ
msvcp_win.dll ?uflow@?$basic_streambuf@GU?$char_traits@G@std@@@std@@MEAAGXZ
msvcp_win.dll ?xsgetn@?$basic_streambuf@GU?$char_traits@G@std@@@std@@MEAA_JPEAG_J@Z
msvcp_win.dll ?xsputn@?$basic_streambuf@GU?$char_traits@G@std@@@std@@MEAA_JPEBG_J@Z
msvcp_win.dll ?setbuf@?$basic_streambuf@GU?$char_traits@G@std@@@std@@MEAAPEAV12@PEAG_J@Z
msvcp_win.dll ?sync@?$basic_streambuf@GU?$char_traits@G@std@@@std@@MEAAHXZ
msvcp_win.dll ?imbue@?$basic_streambuf@GU?$char_traits@G@std@@@std@@MEAAXAEBVlocale@2@@Z
msvcp_win.dll ??1?$basic_iostream@GU?$char_traits@G@std@@@std@@UEAA@XZ
msvcp_win.dll ?_Xinvalid_argument@std@@YAXPEBD@Z
msvcp_win.dll ?uncaught_exception@std@@YA_NXZ
msvcp_win.dll ?sputn@?$basic_streambuf@GU?$char_traits@G@std@@@std@@QEAA_JPEBG_J@Z
msvcp_win.dll ?_Osfx@?$basic_ostream@GU?$char_traits@G@std@@@std@@QEAAXXZ
msvcp_win.dll ?flush@?$basic_ostream@GU?$char_traits@G@std@@@std@@QEAAAEAV12@XZ
msvcp_win.dll ?sputc@?$basic_streambuf@GU?$char_traits@G@std@@@std@@QEAAGG@Z
msvcp_win.dll ?_Syserror_map@std@@YAPEBDH@Z
msvcp_win.dll ?_Xbad_alloc@std@@YAXXZ
msvcp_win.dll ?_Xlength_error@std@@YAXPEBD@Z
msvcp_win.dll ?_Xout_of_range@std@@YAXPEBD@Z
msvcp_win.dll ?_Winerror_map@std@@YAHH@Z
msvcp_win.dll ?_Winerror_message@std@@YAKKPEADK@Z
api-ms-win-crt-runtime-l1-1-0.dll _initterm
api-ms-win-crt-runtime-l1-1-0.dll _initterm_e
api-ms-win-crt-private-l1-1-0.dll _o__wcsicmp
api-ms-win-crt-private-l1-1-0.dll _o__wcsnicmp
api-ms-win-crt-private-l1-1-0.dll _o_atan2
api-ms-win-crt-private-l1-1-0.dll _o_bsearch
api-ms-win-crt-private-l1-1-0.dll _o_ceilf
api-ms-win-crt-private-l1-1-0.dll _o_cos
api-ms-win-crt-private-l1-1-0.dll _o_floor
api-ms-win-crt-private-l1-1-0.dll _o_fmod
api-ms-win-crt-private-l1-1-0.dll _o_free
api-ms-win-crt-private-l1-1-0.dll memcpy
api-ms-win-crt-private-l1-1-0.dll _o_log
api-ms-win-crt-private-l1-1-0.dll _o_malloc
api-ms-win-crt-private-l1-1-0.dll _o_memset
api-ms-win-crt-private-l1-1-0.dll _o_pow
api-ms-win-crt-private-l1-1-0.dll _o_realloc
api-ms-win-crt-private-l1-1-0.dll _o_sin
api-ms-win-crt-private-l1-1-0.dll _o_sqrt
api-ms-win-crt-private-l1-1-0.dll _o_sqrtf
api-ms-win-crt-private-l1-1-0.dll _o_tan
api-ms-win-crt-private-l1-1-0.dll _o_towlower
api-ms-win-crt-private-l1-1-0.dll _o_wcscpy_s
api-ms-win-crt-private-l1-1-0.dll _o_wcstol
api-ms-win-crt-private-l1-1-0.dll __C_specific_handler
api-ms-win-crt-private-l1-1-0.dll __CxxFrameHandler3
api-ms-win-crt-private-l1-1-0.dll _CxxThrowException
api-ms-win-crt-private-l1-1-0.dll _o__seh_filter_dll
api-ms-win-crt-private-l1-1-0.dll _o__register_onexit_function
api-ms-win-crt-private-l1-1-0.dll __std_type_info_compare
api-ms-win-crt-private-l1-1-0.dll _o__purecall
api-ms-win-crt-private-l1-1-0.dll _o__invalid_parameter_noinfo_noreturn
api-ms-win-crt-private-l1-1-0.dll _o__invalid_parameter_noinfo
api-ms-win-crt-private-l1-1-0.dll _o__initialize_onexit_table
api-ms-win-crt-private-l1-1-0.dll _o__initialize_narrow_environment
api-ms-win-crt-private-l1-1-0.dll _o__execute_onexit_table
api-ms-win-crt-private-l1-1-0.dll _o__errno
api-ms-win-crt-private-l1-1-0.dll _o__dtest
api-ms-win-crt-private-l1-1-0.dll _o__crt_atexit
api-ms-win-crt-private-l1-1-0.dll _o__create_locale
api-ms-win-crt-private-l1-1-0.dll _o__configure_narrow_argv
api-ms-win-crt-private-l1-1-0.dll _o__cexit
api-ms-win-crt-private-l1-1-0.dll _o__callnewh
api-ms-win-crt-private-l1-1-0.dll _o___stdio_common_vswscanf
api-ms-win-crt-private-l1-1-0.dll _o___stdio_common_vswprintf
api-ms-win-crt-private-l1-1-0.dll _o___stdio_common_vsnprintf_s
api-ms-win-crt-private-l1-1-0.dll _o___std_type_info_destroy_list
api-ms-win-crt-private-l1-1-0.dll _o___std_exception_destroy
api-ms-win-crt-private-l1-1-0.dll _o___std_exception_copy
api-ms-win-crt-private-l1-1-0.dll memmove
api-ms-win-crt-private-l1-1-0.dll __std_terminate
api-ms-win-crt-private-l1-1-0.dll memcmp
api-ms-win-core-winrt-error-l1-1-1.dll GetRestrictedErrorInfo
api-ms-win-core-winrt-error-l1-1-1.dll RoReportFailedDelegate
api-ms-win-core-winrt-error-l1-1-1.dll RoGetMatchingRestrictedErrorInfo
api-ms-win-core-winrt-error-l1-1-1.dll RoTransformError
api-ms-win-core-winrt-error-l1-1-1.dll IsErrorPropagationEnabled
api-ms-win-core-winrt-error-l1-1-1.dll SetRestrictedErrorInfo
api-ms-win-core-winrt-error-l1-1-1.dll RoOriginateErrorW
api-ms-win-core-winrt-error-l1-1-1.dll RoOriginateError
api-ms-win-core-synch-l1-2-0.dll WaitForSingleObjectEx
api-ms-win-core-synch-l1-2-0.dll ReleaseSemaphore
api-ms-win-core-synch-l1-2-0.dll OpenSemaphoreW
api-ms-win-core-synch-l1-2-0.dll WaitForSingleObject
api-ms-win-core-synch-l1-2-0.dll AcquireSRWLockShared
api-ms-win-core-synch-l1-2-0.dll AcquireSRWLockExclusive
api-ms-win-core-synch-l1-2-0.dll InitOnceExecuteOnce
api-ms-win-core-synch-l1-2-0.dll ReleaseSRWLockExclusive
api-ms-win-core-synch-l1-2-0.dll DeleteCriticalSection
api-ms-win-core-synch-l1-2-0.dll CreateSemaphoreExW
api-ms-win-core-synch-l1-2-0.dll CreateMutexExW
api-ms-win-core-synch-l1-2-0.dll ReleaseSRWLockShared
api-ms-win-core-synch-l1-2-0.dll WaitOnAddress
api-ms-win-core-synch-l1-2-0.dll InitializeCriticalSection
api-ms-win-core-synch-l1-2-0.dll WakeByAddressSingle
api-ms-win-core-synch-l1-2-0.dll EnterCriticalSection
api-ms-win-core-synch-l1-2-0.dll ReleaseMutex
api-ms-win-core-synch-l1-2-0.dll LeaveCriticalSection
api-ms-win-core-synch-l1-2-0.dll InitializeSRWLock
api-ms-win-core-synch-l1-2-0.dll InitializeCriticalSectionEx
api-ms-win-core-winrt-string-l1-1-0.dll WindowsConcatString
api-ms-win-core-winrt-string-l1-1-0.dll WindowsDuplicateString
api-ms-win-core-winrt-string-l1-1-0.dll WindowsCreateString
api-ms-win-core-winrt-string-l1-1-0.dll WindowsDeleteString
api-ms-win-core-winrt-string-l1-1-0.dll WindowsStringHasEmbeddedNull
api-ms-win-core-winrt-string-l1-1-0.dll WindowsIsStringEmpty
api-ms-win-core-winrt-string-l1-1-0.dll WindowsGetStringRawBuffer
api-ms-win-core-winrt-string-l1-1-0.dll WindowsCreateStringReference
api-ms-win-core-util-l1-1-0.dll DecodePointer
api-ms-win-core-util-l1-1-0.dll EncodePointer
api-ms-win-eventing-provider-l1-1-0.dll EventRegister
api-ms-win-eventing-provider-l1-1-0.dll EventWrite
api-ms-win-eventing-provider-l1-1-0.dll EventWriteTransfer
api-ms-win-eventing-provider-l1-1-0.dll EventSetInformation
api-ms-win-eventing-provider-l1-1-0.dll EventUnregister
api-ms-win-core-debug-l1-1-1.dll OutputDebugStringW
api-ms-win-core-debug-l1-1-1.dll IsDebuggerPresent
api-ms-win-core-libraryloader-l1-2-0.dll GetModuleHandleW
api-ms-win-core-libraryloader-l1-2-0.dll FreeLibrary
api-ms-win-core-libraryloader-l1-2-0.dll LoadLibraryExA
api-ms-win-core-libraryloader-l1-2-0.dll LoadStringW
api-ms-win-core-libraryloader-l1-2-0.dll LoadResource
api-ms-win-core-libraryloader-l1-2-0.dll FindResourceExW
api-ms-win-core-libraryloader-l1-2-0.dll GetModuleFileNameA
api-ms-win-core-libraryloader-l1-2-0.dll GetModuleHandleExW
api-ms-win-core-libraryloader-l1-2-0.dll GetProcAddress
api-ms-win-core-libraryloader-l1-2-0.dll LoadLibraryExW
api-ms-win-core-libraryloader-l1-2-0.dll DisableThreadLibraryCalls
api-ms-win-core-com-l1-1-1.dll StringFromGUID2
api-ms-win-core-com-l1-1-1.dll CoGetApartmentType
api-ms-win-core-com-l1-1-1.dll CoCreateInstance
api-ms-win-core-com-l1-1-1.dll RoGetAgileReference
api-ms-win-core-com-l1-1-1.dll CoMarshalInterface
api-ms-win-core-com-l1-1-1.dll CreateStreamOnHGlobal
api-ms-win-core-com-l1-1-1.dll CoCreateFreeThreadedMarshaler
api-ms-win-core-com-l1-1-1.dll CoTaskMemFree
api-ms-win-core-com-l1-1-1.dll CoGetCallContext
api-ms-win-core-com-l1-1-1.dll CoTaskMemAlloc
api-ms-win-core-com-l1-1-1.dll CoReleaseMarshalData
api-ms-win-core-errorhandling-l1-1-1.dll GetLastError
api-ms-win-core-errorhandling-l1-1-1.dll UnhandledExceptionFilter
api-ms-win-core-errorhandling-l1-1-1.dll SetLastError
api-ms-win-core-errorhandling-l1-1-1.dll RaiseException
api-ms-win-core-errorhandling-l1-1-1.dll SetUnhandledExceptionFilter
api-ms-win-core-handle-l1-1-0.dll CloseHandle
api-ms-win-core-processthreads-l1-1-2.dll OpenProcess
api-ms-win-core-processthreads-l1-1-2.dll GetCurrentProcess
api-ms-win-core-processthreads-l1-1-2.dll GetCurrentProcessId
api-ms-win-core-processthreads-l1-1-2.dll OpenProcessToken
api-ms-win-core-processthreads-l1-1-2.dll IsProcessorFeaturePresent
api-ms-win-core-processthreads-l1-1-2.dll GetCurrentThreadId
api-ms-win-core-processthreads-l1-1-2.dll TerminateProcess
api-ms-win-core-localization-l1-2-1.dll GetLocaleInfoEx
api-ms-win-core-localization-l1-2-1.dll GetLocaleInfoW
api-ms-win-core-localization-l1-2-1.dll FormatMessageW
api-ms-win-core-heap-l1-2-0.dll HeapAlloc
api-ms-win-core-heap-l1-2-0.dll HeapFree
api-ms-win-core-heap-l1-2-0.dll GetProcessHeap
api-ms-win-core-rtlsupport-l1-2-0.dll RtlVirtualUnwind
api-ms-win-core-rtlsupport-l1-2-0.dll RtlCaptureContext
api-ms-win-core-rtlsupport-l1-2-0.dll RtlLookupFunctionEntry
api-ms-win-core-profile-l1-1-0.dll QueryPerformanceCounter
api-ms-win-core-sysinfo-l1-2-1.dll GetSystemTimeAsFileTime
api-ms-win-core-sysinfo-l1-2-1.dll GetSystemInfo
api-ms-win-core-sysinfo-l1-2-1.dll GetSystemDirectoryW
api-ms-win-core-sysinfo-l1-2-1.dll GetNativeSystemInfo
api-ms-win-core-sysinfo-l1-2-1.dll GetVersionExW
api-ms-win-core-interlocked-l1-2-0.dll InitializeSListHead
ztrace_maps.dll ZTraceInit
ztrace_maps.dll ZTraceReportPropagationNoThis
ztrace_maps.dll ZTraceReportIgnore
ztrace_maps.dll ZTraceHelper
ztrace_maps.dll ZTraceClose
ztrace_maps.dll ZTraceReportOriginationNoThis
ztrace_maps.dll ZTraceReportOrigination
ztrace_maps.dll ZTraceReportIgnoreNoThis
ztrace_maps.dll ZTraceHelperNoThis
ztrace_maps.dll ZTraceReportPropagation
mos.dll ??0Icon@ngeo@@QEAA@AEBV01@@Z
mos.dll ??1Icon@ngeo@@QEAA@XZ
mos.dll ??0Location@ngeo@@QEAA@XZ
mos.dll ??1Location@ngeo@@UEAA@XZ
mos.dll ??0SizeInPixels@ngeo@@QEAA@XZ
mos.dll ??1GeoCoordinates@ngeo@@UEAA@XZ
mos.dll ?get_official_name@TransitStopInfo@ngeo@@QEBAAEBVustring@2@XZ
mos.dll ??_7IGeoCoordinates@msngeo@@6B@
mos.dll ??0Location@ngeo@@QEAA@AEBV01@@Z
mos.dll ?get_icon_size@Icon@ngeo@@QEBAAEBVSizeInPixels@2@XZ
mos.dll ??0GeoCoordinates@ngeo@@QEAA@XZ
mos.dll ?get_coordinates@Location@ngeo@@QEBAAEBVGeoCoordinates@2@XZ
mos.dll ?get_height@SizeInPixels@ngeo@@QEBAMXZ
mos.dll ?get_width@SizeInPixels@ngeo@@QEBAMXZ
mos.dll ?get@LocationInfo@ngeo@@QEBAAEBVustring@2@W4Field@12@@Z
mos.dll ?get_info@Location@ngeo@@QEBAAEBVLocationInfo@2@XZ
mos.dll ??0ustring@ngeo@@QEAA@PEBD@Z
mos.dll ?get_id@TransitStopInfo@ngeo@@QEBAAEBVIdentifier@2@XZ
mos.dll ??0Identifier@ngeo@@QEAA@XZ
mos.dll ??1Identifier@ngeo@@QEAA@XZ
mos.dll ??4Location@ngeo@@QEAAAEAV01@AEBV01@@Z
mos.dll ?to_wstring@ustring@ngeo@@QEBA?AV?$basic_string@GU?$char_traits@G@std@@V?$allocator@G@2@@std@@XZ
mos.dll ?length@ustring@ngeo@@QEBA_KXZ
mos.dll ??4GeoCoordinates@ngeo@@QEAAAEAV01@AEBV01@@Z
mos.dll ?c_str@ustring@ngeo@@QEBAPEBGXZ
mos.dll ?get_position@TransitStopInfo@ngeo@@QEBAAEBVGeoCoordinates@2@XZ
mos.dll ?get_longitude@GeoCoordinates@ngeo@@UEBANXZ
mos.dll ?create_bmp_from_svg@util@ngeo@@YAPEAEPEAEIPEAI@Z
mos.dll ?free_bmp@util@ngeo@@YAXAEAPEAE@Z
mos.dll ?get_current_version@RasterTileSourceBase@ngeo@@UEBAIXZ
mos.dll ?do_get_semantic_type@RasterTileSourceBase@ngeo@@MEBA?AW4MapSemanticType@2@XZ
mos.dll ?do_get_z_order@RasterTileSourceBase@ngeo@@MEBAIXZ
mos.dll ?do_get_visibility@RasterTileSourceBase@ngeo@@MEBA?AW4Visibility@MapRasterTileSource@2@XZ
mos.dll ?do_has_transparency@RasterTileSourceBase@ngeo@@MEBA_NXZ
mos.dll ?do_is_fallback_enabled@RasterTileSourceBase@ngeo@@MEBA_NXZ
mos.dll ?do_is_fading_enabled@RasterTileSourceBase@ngeo@@MEBA_NXZ
mos.dll ?do_has_coordinate_shift@RasterTileSourceBase@ngeo@@MEBA_NXZ
mos.dll ?do_get_bounding_area@RasterTileSourceBase@ngeo@@MEBA?AVGeoRect@2@I@Z
mos.dll ?do_get_tile_size@RasterTileSourceBase@ngeo@@MEBAIXZ
mos.dll ?do_get_pixel_format@RasterTileSourceBase@ngeo@@MEBA?AW4PixelFormat@2@XZ
mos.dll ?do_query_version_state@RasterTileSourceBase@ngeo@@MEAA?AW4VersionState@MapRasterTileSource@2@I@Z
mos.dll ?do_get_valid_zoom_levels@RasterTileSourceBase@ngeo@@MEBA?AVZoomAttributes@2@XZ
mos.dll ?do_get_country@RasterTileSourceBase@ngeo@@MEBA?AW4CountryEnum@2@XZ
mos.dll ?do_is_half_scaled@RasterTileSourceBase@ngeo@@MEBA_NXZ
mos.dll ?get_latitude@GeoCoordinates@ngeo@@UEBANXZ
mos.dll ?get_info@Location@ngeo@@QEAAAEAVLocationInfo@2@XZ
mos.dll ?get_official_name@TransitLineInfo@ngeo@@QEBAAEBVustring@2@XZ
mos.dll ?get_type_as_string@TransitLineInfo@ngeo@@QEBA?AVustring@2@XZ
mos.dll ??1TransitLineInfo@ngeo@@QEAA@XZ
mos.dll ??0Identifier@ngeo@@QEAA@AEBV01@@Z
mos.dll ?get_lines@TransitStopInfo@ngeo@@QEBAXAEAV?$vector@VIdentifier@ngeo@@V?$allocator@VIdentifier@ngeo@@@std@@@std@@@Z
mos.dll ?get_bing_route_data@TransitStopInfo@ngeo@@QEBAAEBV?$unordered_map@V?$basic_string@GU?$char_traits@G@std@@V?$allocator@G@2@@std@@V?$vector@V?$basic_string@GU?$char_traits@G@std@@V?$allocator@G@2@@std@@V?$allocator@V?$basic_string@GU?$char_traits@G@std@@V?$allocator@G@2@@std@@@2@@2@U?$hash@V?$basic_string@GU?$char_traits@G@std@@V?$allocator@G@2@@std@@@2@U?$equal_to@V?$basic_string@GU?$char_traits@G@std@@V?$allocator@G@2@@std@@@2@V?$allocator@U?$pair@$$CBV?$basic_string@GU?$char_traits@G@std@@V?$allocator@G@2
mos.dll ??0ustring@ngeo@@QEAA@PEBG@Z
mos.dll ??8ngeo@@YA_NAEBVustring@0@0@Z
mos.dll ?get_data_source@TransitStopInfo@ngeo@@QEBAAEBVustring@2@XZ
mos.dll ?to_string@Identifier@ngeo@@QEBA?AVustring@2@XZ
mos.dll ?do_reset_non_existing_tiles@RasterTileSourceBase@ngeo@@MEAAXXZ
nmaa.dll ?setData@MapIcon@nmacore@@UEAAXPEBXK@Z
nmaa.dll ?setRawData@MapIcon@nmacore@@UEAAXPEBXII@Z
nmaa.dll ?setIcon@MapIcon@nmacore@@UEAAXAEBVIcon@ngeo@@@Z
nmaa.dll ??1MapIcon@nmacore@@UEAA@XZ
nmaa.dll ??1TransitLineInfo@nmacore@@QEAA@XZ
nmaa.dll ?transitLineInfo@TransitLineInfo@nmacore@@QEBAAEBV1ngeo@@XZ
nmaa.dll ?getType@MapObject@nmacore@@QEBA?AW4MapObjectType@12@XZ
nmaa.dll ??0TransitLineInfo@nmacore@@QEAA@AEBVIdentifier@ngeo@@@Z
nmaa.dll ?getLocation@MapIcon@nmacore@@QEBAAEBVLocation@ngeo@@XZ
nmaa.dll ??0MapTransitStop@nmacore@@QEAA@AEBV01@@Z
nmaa.dll ?getSize@MapIcon@nmacore@@QEBA?AVSizeInPixels@ngeo@@XZ
nmaa.dll ?transitStopInfo@MapTransitStop@nmacore@@QEBAAEBVTransitStopInfo@ngeo@@XZ
nmaa.dll ?location@MapTransitStop@nmacore@@QEBAAEBVLocation@ngeo@@XZ
nmaa.dll ??0MapUserObject@nmacore@@IEAA@AEBV01@@Z
nmaa.dll ?icons@MapTransitStop@nmacore@@QEBAAEBV?$vector@VIcon@ngeo@@V?$allocator@VIcon@ngeo@@@std@@@std@@XZ
nmaa.dll ?equals@MapIcon@nmacore@@QEAA_NAEBV12@@Z
nmaa.dll ?equals@MapTransitStop@nmacore@@QEAA_NAEBV12@@Z
mapconfiguration.dll ConfigurationManager_Initialize
mapconfiguration.dll ConfigurationManager_Uninitialize
mapgeocoder.dll CreateMapGeocoderFactory
api-ms-win-crt-math-l1-1-0.dll fmax
api-ms-win-crt-math-l1-1-0.dll _isnan
api-ms-win-crt-math-l1-1-0.dll fmin
api-ms-win-core-winrt-l1-1-0.dll RoActivateInstance
api-ms-win-core-winrt-l1-1-0.dll RoUninitialize
api-ms-win-core-winrt-l1-1-0.dll RoInitialize
api-ms-win-core-winrt-l1-1-0.dll RoGetActivationFactory
api-ms-win-security-base-l1-2-0.dll GetTokenInformation
api-ms-win-core-string-l1-1-0.dll CompareStringOrdinal
api-ms-win-core-quirks-l1-1-0.dll QuirkIsEnabled
api-ms-win-core-registry-l1-1-0.dll RegGetValueW
api-ms-win-core-registry-l1-1-0.dll RegCloseKey
api-ms-win-core-registry-l1-1-0.dll RegQueryValueExW
api-ms-win-core-registry-l1-1-0.dll RegOpenKeyExW
api-ms-win-core-heap-l2-1-0.dll LocalFree
api-ms-win-core-path-l1-1-0.dll PathCchAppend
api-ms-win-core-file-l1-2-1.dll CreateFileW
api-ms-win-core-file-l1-2-1.dll GetFileAttributesW
api-ms-win-core-threadpool-legacy-l1-1-0.dll QueueUserWorkItem
d3d11.dll D3D11CreateDevice
dcomp.dll DCompositionCreateDevice3
ntdll.dll RtlGetDeviceFamilyInfoEnum
mapcontrolcore.dll ?SetStrokeColor@MapPolygon@core@@QEAAJK@Z
mapcontrolcore.dll ?SetFillColor@MapPolygon@core@@QEAAJK@Z
mapcontrolcore.dll ?Initialize@MapPolygon@core@@IEAAJV?$unique_ptr@VMapPolygon@nmacore@@U?$default_delete@VMapPolygon@nmacore@@@std@@@std@@@Z
mapcontrolcore.dll ??0MapPolygon@core@@IEAA@XZ
mapcontrolcore.dll ?SetVisible@MapObject@core@@QEAAX_N@Z
mapcontrolcore.dll ?SetZIndex@MapObject@core@@QEAAXK@Z
mapcontrolcore.dll ?SetBingMapsKey@MapsSettings@@SAJAEBV?$basic_string@GU?$char_traits@G@std@@V?$allocator@G@2@@std@@@Z
mapcontrolcore.dll ?SetApplicationId@MapsSettings@@SAJAEBV?$basic_string@GU?$char_traits@G@std@@V?$allocator@G@2@@std@@@Z
mapcontrolcore.dll IsUIThread
mapcontrolcore.dll ?GetGenerationNumber@?$UIThreadCore@UIMapUI@@@@UEBAJXZ
mapcontrolcore.dll ?Post@?$UIThreadCore@UIMapUI@@@@UEAAXPEAV?$TDispatchItem@UIMapUI@@@@@Z
mapcontrolcore.dll ?SetBackingObject@?$BackedType@VLocation@ngeo@@@core@@QEAAXAEBVLocation@ngeo@@@Z
mapcontrolcore.dll ?ProcessDispatchQueue@?$UIThreadCore@UIMapUI@@@@QEAAXPEAUIMapUI@@@Z
mapcontrolcore.dll ??1MapRoute@core@@UEAA@XZ
mapcontrolcore.dll ?SetVisibleInternal@MapObject@core@@MEAAX_N@Z
mapcontrolcore.dll ?GetVisibleInternal@MapObject@core@@MEAA_NXZ
mapcontrolcore.dll ?GetNmaMapUserObject@MapRoute@core@@UEAAPEAVMapUserObject@nmacore@@XZ
mapcontrolcore.dll ?InvalidateOverlays@MapControlAdapterCore@@UEAAXXZ
mapcontrolcore.dll ?CalculateOverlayPosition@MapControlAdapterCore@@UEAAJAEBVGeoCoordinates@core@@PEAVPixelCoordinates@3@PEA_N@Z
mapcontrolcore.dll ?PostOverlaysPositions@MapControlAdapterCore@@UEAAXXZ
mapcontrolcore.dll ?RecalculateOverlaysPositions@MapControlAdapterCore@@UEAAX_N@Z
mapcontrolcore.dll ?OnIsViewportValidChanged@MapControlAdapterCore@@UEAAX_N@Z
mapcontrolcore.dll ?OnFieldOfViewChanged@MapControlAdapterCore@@UEAA_NAEBV?$Versioned@N@core@@@Z
mapcontrolcore.dll ?OnFontScaleFactorChanged@MapControlAdapterCore@@UEAA_NAEBV?$Versioned@M@core@@@Z
mapcontrolcore.dll ?OnAutomaticZoomLevelEnabledChanged@MapControlAdapterCore@@UEAA_NAEBV?$Versioned@_N@core@@@Z
mapcontrolcore.dll ?OnMaxTiltChanged@MapControlAdapterCore@@UEAA_NAEBV?$Versioned@M@core@@@Z
mapcontrolcore.dll ?OnGestureSnapExtentsChanged@MapControlAdapterCore@@UEAA_NAEBV?$Versioned@UDoublePoint@core@@@core@@@Z
mapcontrolcore.dll ??0MapRoute@core@@IEAA@XZ
mapcontrolcore.dll ??1ExtendedInputAdapterCore@@UEAA@XZ
mapcontrolcore.dll ??0ExtendedInputAdapterCore@@QEAA@XZ
mapcontrolcore.dll ?Invalidate@MapControlAdapterCore@@QEAAXXZ
mapcontrolcore.dll ?SetTransitFeaturesEnabled@MapControlAdapterCore@@QEAAJ_N@Z
mapcontrolcore.dll ?SetTransitLayerMode@MapControlAdapterCore@@QEAAXW4Mode@MapTransitLayer@ngeo@@@Z
mapcontrolcore.dll ?SetBusinessLandmarksEnabled@MapControlAdapterCore@@QEAAJ_N@Z
mapcontrolcore.dll ?SetCartographicPoisVisible@MapControlAdapterCore@@QEAAX_N@Z
mapcontrolcore.dll ?SetDoubleTapEnabled@InputAdapterCore@@QEAAX_N@Z
mapcontrolcore.dll ?SetPinchStretchEnabled@InputAdapterCore@@QEAAX_N@Z
mapcontrolcore.dll ?SetKeyboardAltitudeChangeEnabled@InputAdapterCore@@QEAAX_N@Z
mapcontrolcore.dll ?SetKeyboardZoomEnabled@InputAdapterCore@@QEAAX_N@Z
mapcontrolcore.dll ?SetTwoFingerTiltEnabled@InputAdapterCore@@QEAAX_N@Z
mapcontrolcore.dll ?SetKeyboardTiltEnabled@InputAdapterCore@@QEAAX_N@Z
mapcontrolcore.dll ?SetTwoFingerRotateEnabled@InputAdapterCore@@QEAAX_N@Z
mapcontrolcore.dll ?SetTwoFingerHorizontalRotateEnabled@InputAdapterCore@@QEAAX_N@Z
mapcontrolcore.dll ?SetKeyboardRotateEnabled@InputAdapterCore@@QEAAX_N@Z
mapcontrolcore.dll ?SetFlickEnabled@InputAdapterCore@@QEAAX_N@Z
mapcontrolcore.dll ?SetPanEnabled@InputAdapterCore@@QEAAX_N@Z
mapcontrolcore.dll ?CancelContinuousMotion@MapControlAdapterCore@@QEAAJXZ
mapcontrolcore.dll ?ZoomContinuously@MapControlAdapterCore@@QEAAJMW4InteractionSource@engine@@@Z
mapcontrolcore.dll ?TiltContinuously@MapControlAdapterCore@@QEAAJMW4InteractionSource@engine@@@Z
mapcontrolcore.dll ?RotateContinuously@MapControlAdapterCore@@QEAAJMW4InteractionSource@engine@@@Z
mapcontrolcore.dll ?SetAllowCopyrightHiding@MapControlAdapterCore@@QEAAJ_N@Z
mapcontrolcore.dll ?CreateSnapshot@MapControlAdapterCore@@QEAAJPEAUIWICBitmap@@@Z
mapcontrolcore.dll ?SetFocusedTransit@MapControlAdapterCore@@QEAAJAEBVGeoCoordinates@ngeo@@AEBVIdentifier@3@@Z
mapcontrolcore.dll ?SetFocusedBusiness@MapControlAdapterCore@@QEAAJAEBVGeoCoordinates@ngeo@@AEBVustring@3@@Z
mapcontrolcore.dll ?GetVisible@MapObject@core@@QEAA_NXZ
mapcontrolcore.dll ?GetMapObjects@MapControlAdapterCore@@QEAAJPEAV?$vector@PEAVMapObject@core@@V?$allocator@PEAVMapObject@core@@@std@@@std@@@Z
mapcontrolcore.dll ?GetTransitLayerMode@MapControlAdapterCore@@QEAA?AW4Mode@MapTransitLayer@ngeo@@XZ
mapcontrolcore.dll ?GetCartographicPoisVisible@MapControlAdapterCore@@QEAA_NXZ
mapcontrolcore.dll ?GetPedestrianFeaturesVisible@MapControlAdapterCore@@QEAA_NXZ
mapcontrolcore.dll ?GetLandmarksVisible@MapControlAdapterCore@@QEAA_NXZ
mapcontrolcore.dll ?GetTrafficVisible@MapControlAdapterCore@@QEAA_NXZ
mapcontrolcore.dll ?SetView@MapControlAdapterCore@@QEAAJAEBVGeoCoordinates@core@@MMMW4MapAnimationLevel@3@@Z
mapcontrolcore.dll ?SetVerticalFieldOfViewInDegrees@MapControlAdapterCore@@QEAAXN@Z
mapcontrolcore.dll ?GetTransformCenter@MapControlAdapterCore@@QEAAJPEAUDoublePoint@core@@@Z
mapcontrolcore.dll ?GetVerticalFieldOfViewInDegrees@MapControlAdapterCore@@QEAANXZ
mapcontrolcore.dll ?GetCenter@MapControlAdapterCore@@QEAAJPEAVGeoCoordinates@core@@@Z
mapcontrolcore.dll ?GetTilt@MapControlAdapterCore@@QEAAMXZ
mapcontrolcore.dll ?GetZoomLevel@MapControlAdapterCore@@QEAAMXZ
mapcontrolcore.dll ?GetGeoAreaInView@MapControlAdapterCore@@QEAAJPEAV?$vector@VGeoCoordinates@core@@V?$allocator@VGeoCoordinates@core@@@std@@@std@@@Z
mapcontrolcore.dll ?GetGeoAreaInNearView@MapControlAdapterCore@@QEAAJPEAV?$vector@VGeoCoordinates@core@@V?$allocator@VGeoCoordinates@core@@@std@@@std@@@Z
mapcontrolcore.dll ?RemoveMapOverlay@MapControlAdapterCore@@QEAAJPEAUIMapOverlay@@@Z
mapcontrolcore.dll ?AddMapOverlay@MapControlAdapterCore@@QEAAJPEAUIMapOverlay@@@Z
mapcontrolcore.dll ?GetWatermarkVisible@MapControlAdapterCore@@QEAA_NXZ
mapcontrolcore.dll ?GetContrastMode@MapControlAdapterCore@@QEAA?AW4MapContrastMode@core@@XZ
mapcontrolcore.dll ?GetZIndex@MapObject@core@@QEAAKXZ
mapcontrolcore.dll ?SetHoverVisualAt@MapControlAdapterCore@@QEAAJPEBVPixelCoordinates@core@@@Z
mapcontrolcore.dll ?GetOfflineMapObjectsAt@MapControlAdapterCore@@QEAAJPEBVPixelCoordinates@core@@AEAV?$vector@V?$unique_ptr@VMapObject@nmacore@@U?$default_delete@VMapObject@nmacore@@@std@@@std@@V?$allocator@V?$unique_ptr@VMapObject@nmacore@@U?$default_delete@VMapObject@nmacore@@@std@@@std@@@2@@std@@@Z
mapcontrolcore.dll ??0PixelCoordinates@core@@QEAA@HH@Z
mapcontrolcore.dll ?GetHeading@MapControlAdapterCore@@QEAAMXZ
mapcontrolcore.dll ?GetActualTilt@MapControlAdapterCore@@QEAAMXZ
mapcontrolcore.dll ?OnMinZoomLevelChanged@MapControlAdapterCore@@UEAA_NAEBV?$Versioned@M@core@@@Z
mapcontrolcore.dll ?OnTransitLayerModeChanged@MapControlAdapterCore@@UEAA_NAEBV?$Versioned@W4Mode@MapTransitLayer@ngeo@@@core@@@Z
mapcontrolcore.dll ?OnCartographicPoisVisibleChanged@MapControlAdapterCore@@UEAA_NAEBV?$Versioned@_N@core@@@Z
mapcontrolcore.dll ?OnLandmarksVisibleChanged@MapControlAdapterCore@@UEAA_NAEBV?$Versioned@_N@core@@@Z
mapcontrolcore.dll ?OnDetailLevelChanged@MapControlAdapterCore@@UEAA_NAEBV?$Versioned@W4MapDetailLevel@core@@@core@@@Z
mapcontrolcore.dll ?OnConfigurationSchemeChanged@MapControlAdapterCore@@UEAA_NAEBV?$Versioned@W4TMapScheme@Map@nmacore@@@core@@@Z
mapcontrolcore.dll ?OnActualTiltChanged@MapControlAdapterCore@@UEAAXM@Z
mapcontrolcore.dll ?OnTiltChanged@MapControlAdapterCore@@UEAA_NAEBV?$Versioned@M@core@@@Z
mapcontrolcore.dll ?OnHeadingChanged@MapControlAdapterCore@@UEAA_NAEBV?$Versioned@M@core@@@Z
mapcontrolcore.dll ?OnZoomLevelChanged@MapControlAdapterCore@@UEAA_NAEBV?$Versioned@M@core@@@Z
mapcontrolcore.dll ?OnTransformCenterChanged@MapControlAdapterCore@@UEAA_NAEBV?$Versioned@UDoublePoint@core@@@core@@@Z
mapcontrolcore.dll ?SetTrafficVisible@MapControlAdapterCore@@QEAAX_N@Z
mapcontrolcore.dll ?OnCenterChanged@MapControlAdapterCore@@UEAA_NAEBV?$Versioned@VGeoCoordinates@core@@@core@@@Z
mapcontrolcore.dll ?RemoveTileSource@MapControlAdapterCore@@QEAAJPEAVTileSourceCore@@@Z
mapcontrolcore.dll ?AddTileSource@MapControlAdapterCore@@QEAAJPEAVTileSourceCore@@@Z
mapcontrolcore.dll ?CreateSnapshot@MapControlAdapterCore@@QEAAJPEBG@Z
mapcontrolcore.dll ?PixelToGeo@MapControlAdapterCore@@QEAAJPEAVPixelCoordinates@core@@PEAVGeoCoordinates@3@@Z
mapcontrolcore.dll ?GeoToPixel@MapControlAdapterCore@@QEAAJPEAVGeoCoordinates@core@@PEAVPixelCoordinates@3@PEA_N@Z
mapcontrolcore.dll ?CancelAnimation@MapControlAdapterCore@@QEAAJXZ
mapcontrolcore.dll ?SetView@MapControlAdapterCore@@QEAAJAEBVGeoRect@core@@HHHHW4MapAnimationLevel@3@@Z
mapcontrolcore.dll ?IsValid@GeoRect@core@@UEBA_NXZ
mapcontrolcore.dll ??0GeoRect@core@@QEAA@NNNN@Z
mapcontrolcore.dll ?SetViewByCameraLocation@MapControlAdapterCore@@QEAAJAEBVGeoCoordinates@core@@MMMW4MapAnimationLevel@3@W4InteractionSource@engine@@@Z
mapcontrolcore.dll ?SetView@MapControlAdapterCore@@QEAAJPEAVGeoCoordinates@core@@PEAM111PEAW4MapAnimationLevel@3@W4InteractionSource@engine@@@Z
mapcontrolcore.dll ?GeoToPixelNonBlocking@MapControlAdapterCore@@QEAAJPEAVGeoCoordinates@core@@PEAVPixelCoordinates@3@PEA_N@Z
mapcontrolcore.dll ??1SizeInPixels@core@@UEAA@XZ
mapcontrolcore.dll ??0SizeInPixels@core@@QEAA@XZ
mapcontrolcore.dll ?GetHeight@SizeInPixels@core@@UEBAIXZ
mapcontrolcore.dll ?GetWidth@SizeInPixels@core@@UEBAIXZ
mapcontrolcore.dll ?GetMapObjectType@MapObject@core@@QEAA?AW4MapObjectType@2@XZ
mapcontrolcore.dll ?GetOnlineMapObjectsInRect@MapControlAdapterCore@@QEAAJPEBVPixelRect@core@@AEAV?$vector@PEAVMapObject@core@@V?$allocator@PEAVMapObject@core@@@std@@@std@@@Z
mapcontrolcore.dll ?GetOfflineMapObjectsInRect@MapControlAdapterCore@@QEAAJPEBVPixelRect@core@@AEAV?$vector@V?$unique_ptr@VMapObject@nmacore@@U?$default_delete@VMapObject@nmacore@@@std@@@std@@V?$allocator@V?$unique_ptr@VMapObject@nmacore@@U?$default_delete@VMapObject@nmacore@@@std@@@std@@@2@@std@@@Z
mapcontrolcore.dll ??1PixelRect@core@@UEAA@XZ
mapcontrolcore.dll ??0PixelRect@core@@QEAA@HHII@Z
mapcontrolcore.dll ?GetMapLabels@MapControlAdapterCore@@QEAAJPEAV?$vector@UMapLabel@@V?$allocator@UMapLabel@@@std@@@std@@@Z
mapcontrolcore.dll ?SetFontScaleFactor@MapControlAdapterCore@@QEAAXM@Z
mapcontrolcore.dll ?SetHighContrastTheme@MapControlAdapterCore@@QEAAXW4MapHighContrastTheme@core@@@Z
mapcontrolcore.dll ?GetY@PixelCoordinates@core@@UEBAHXZ
mapcontrolcore.dll ?GetX@PixelCoordinates@core@@UEBAHXZ
mapcontrolcore.dll ?GetCenter@GeoRect@core@@QEBAJPEAVGeoCoordinates@2@@Z
mapcontrolcore.dll ?GetPosition@MapIconAdapterCore@core@@QEAAJPEAVGeoCoordinates@2@@Z
mapcontrolcore.dll ?SetContrastMode@MapControlAdapterCore@@QEAAXW4MapContrastMode@core@@@Z
mapcontrolcore.dll ?GetMode@MapControlAdapterCore@@QEAA?AW4MapMode@core@@XZ
mapcontrolcore.dll ?SetDisplayLayers@MapControlAdapterCore@@QEAAXI@Z
mapcontrolcore.dll ?SetMode@MapControlAdapterCore@@QEAAXW4MapMode@core@@@Z
mapcontrolcore.dll ?SetWatermarkVisible@MapControlAdapterCore@@QEAA_N_N@Z
mapcontrolcore.dll ?SetTransformCenter@MapControlAdapterCore@@QEAAXPEBUDoublePoint@core@@@Z
mapcontrolcore.dll ?SetCenter@MapControlAdapterCore@@QEAAXPEBVGeoCoordinates@core@@@Z
mapcontrolcore.dll ?SetPedestrianFeaturesVisible@MapControlAdapterCore@@QEAAX_N@Z
mapcontrolcore.dll ?SetLandmarksVisible@MapControlAdapterCore@@QEAAX_N@Z
mapcontrolcore.dll ?SetExtrudedBuildingsVisible@MapControlAdapterCore@@QEAAX_N@Z
mapcontrolcore.dll ?SetTilt@MapControlAdapterCore@@QEAAXM@Z
mapcontrolcore.dll ?SetHeading@MapControlAdapterCore@@QEAAXM@Z
mapcontrolcore.dll ?SetZoomLevel@MapControlAdapterCore@@QEAAXM@Z
mapcontrolcore.dll ?SetViewportSizeAsync@MapControlAdapterCore@@IEAAJHH@Z
mapcontrolcore.dll ?SetPixelDensities@MapControlAdapterCore@@QEAAXII@Z
mapcontrolcore.dll ?_CoreGetPixelDensities@MapControlAdapterCore@@IEAAXPEAI0@Z
mapcontrolcore.dll ?_CoreUninitialize@MapControlAdapterCore@@IEAAXXZ
mapcontrolcore.dll ?SetAutomaticMinimumZoomLevelEnabled@MapControlAdapterCore@@QEAAX_N@Z
mapcontrolcore.dll ?GetConfigurationManager@MapControlAdapterCore@@IEAAJPEAPEAUIConfigurationManager@@@Z
mapcontrolcore.dll ?_CoreInitialize@MapControlAdapterCore@@IEAAJH_NV?$unique_ptr@UIThreadSignal@@U?$destroy_delete@UIThreadSignal@@@@@std@@M0V?$unique_ptr@UIMapRenderer@@Udestructable_deleter@@@3@W4MapHighContrastTheme@core@@0@Z
mapcontrolcore.dll ?Initialize@SwapChainMapRenderer@@QEAAJHPEAUIUnknown@@@Z
mapcontrolcore.dll ??0SwapChainMapRenderer@@QEAA@XZ
mapcontrolcore.dll ??1MapControlAdapterCore@@MEAA@XZ
mapcontrolcore.dll ??0MapControlAdapterCore@@IEAA@XZ
mapcontrolcore.dll ?GetOnlineMapObjectsAt@MapControlAdapterCore@@QEAAJPEBVPixelCoordinates@core@@AEAV?$vector@PEAVMapObject@core@@V?$allocator@PEAVMapObject@core@@@std@@@std@@@Z
mapcontrolcore.dll ?SetY@PixelCoordinates@core@@UEAAXH@Z
mapcontrolcore.dll ?SetX@PixelCoordinates@core@@UEAAXH@Z
mapcontrolcore.dll ??1PixelCoordinates@core@@UEAA@XZ
mapcontrolcore.dll ??0PixelCoordinates@core@@QEAA@XZ
mapcontrolcore.dll ?RemoveMapObject@MapControlAdapterCore@@QEAAJPEAVMapObject@core@@@Z
mapcontrolcore.dll ?AddMapObject@MapControlAdapterCore@@QEAAJPEAVMapObject@core@@@Z
mapcontrolcore.dll ?GetBingMapsKey@MapsSettings@@SAJPEAV?$basic_string@GU?$char_traits@G@std@@V?$allocator@G@2@@std@@@Z
mapcontrolcore.dll ?GetApplicationCode@MapsSettings@@SAJPEAV?$basic_string@GU?$char_traits@G@std@@V?$allocator@G@2@@std@@@Z
mapcontrolcore.dll ?GetApplicationId@MapsSettings@@SAJPEAV?$basic_string@GU?$char_traits@G@std@@V?$allocator@G@2@@std@@@Z
mapcontrolcore.dll ?GetMosConnectivityStatus@MapsSettings@@SAJPEAW4MosConnectivityStatus@@@Z
mapcontrolcore.dll ?SetMosConnectivityStatus@MapsSettings@@SAJW4MosConnectivityStatus@@@Z
mapcontrolcore.dll ?GetContrastModeFromConfigurationScheme@MapSchemeConverter@@SA?AW4MapContrastMode@core@@W4TMapScheme@Map@nmacore@@@Z
mapcontrolcore.dll ?GetDefaultCenterFromTimezone@MapsSettings@@SAPEBVGeoCoordinates@core@@XZ
mapcontrolcore.dll ?GetModeFromConfigurationScheme@MapSchemeConverter@@SA?AW4MapMode@core@@W4TMapScheme@Map@nmacore@@_N@Z
mapcontrolcore.dll ?ProcessDispatchQueue@?$UIThreadCore@UIFinderUI@@@@QEAAXPEAUIFinderUI@@@Z
mapcontrolcore.dll ?_CoreInitialize@FinderAdapterCore@@IEAAJHV?$unique_ptr@UIThreadSignal@@U?$destroy_delete@UIThreadSignal@@@@@std@@W4SearchType@core@@_N@Z
mapcontrolcore.dll ?_CoreUninitialize@FinderAdapterCore@@IEAAXXZ
mapcontrolcore.dll ?ProcessDispatchQueue@?$UIThreadCore@UIRouterUI@@@@QEAAXPEAUIRouterUI@@@Z
mapcontrolcore.dll ?GetInstanceId@OperationAdapterCore@@QEBAHXZ
mapcontrolcore.dll ?_CoreInitialize@RouterAdapterCore@@IEAAJHV?$unique_ptr@UIThreadSignal@@U?$destroy_delete@UIThreadSignal@@@@@std@@_N@Z
mapcontrolcore.dll ?_CoreUninitialize@RouterAdapterCore@@IEAAXXZ
mapcontrolcore.dll ?GetFormattedAddress@Address@core@@QEBAJAEAV?$basic_string@GU?$char_traits@G@std@@V?$allocator@G@2@@std@@@Z
mapcontrolcore.dll ?GetContinent@Address@core@@QEBAJAEAV?$basic_string@GU?$char_traits@G@std@@V?$allocator@G@2@@std@@@Z
mapcontrolcore.dll ?GetPostalCode@Address@core@@QEBAJAEAV?$basic_string@GU?$char_traits@G@std@@V?$allocator@G@2@@std@@@Z
mapcontrolcore.dll ?GetCountryCode@Address@core@@QEBAJAEAV?$basic_string@GU?$char_traits@G@std@@V?$allocator@G@2@@std@@@Z
mapcontrolcore.dll ?GetCountry@Address@core@@QEBAJAEAV?$basic_string@GU?$char_traits@G@std@@V?$allocator@G@2@@std@@@Z
mapcontrolcore.dll ?SetPaths@MapPolygon@core@@QEAAJAEBV?$vector@V?$vector@PEAVGeoCoordinates@core@@V?$allocator@PEAVGeoCoordinates@core@@@std@@@std@@V?$allocator@V?$vector@PEAVGeoCoordinates@core@@V?$allocator@PEAVGeoCoordinates@core@@@std@@@std@@@2@@std@@@Z
mapcontrolcore.dll ?GetCounty@Address@core@@QEBAJAEAV?$basic_string@GU?$char_traits@G@std@@V?$allocator@G@2@@std@@@Z
mapcontrolcore.dll ?GetProvince@Address@core@@QEBAJAEAV?$basic_string@GU?$char_traits@G@std@@V?$allocator@G@2@@std@@@Z
mapcontrolcore.dll ?GetState@Address@core@@QEBAJAEAV?$basic_string@GU?$char_traits@G@std@@V?$allocator@G@2@@std@@@Z
mapcontrolcore.dll ?GetDistrict@Address@core@@QEBAJAEAV?$basic_string@GU?$char_traits@G@std@@V?$allocator@G@2@@std@@@Z
mapcontrolcore.dll ?GetCity@Address@core@@QEBAJAEAV?$basic_string@GU?$char_traits@G@std@@V?$allocator@G@2@@std@@@Z
mapcontrolcore.dll ?GetNeighborhood@Address@core@@QEBAJAEAV?$basic_string@GU?$char_traits@G@std@@V?$allocator@G@2@@std@@@Z
mapcontrolcore.dll ?GetStreet@Address@core@@QEBAJAEAV?$basic_string@GU?$char_traits@G@std@@V?$allocator@G@2@@std@@@Z
mapcontrolcore.dll ?GetHouseNumber@Address@core@@QEBAJAEAV?$basic_string@GU?$char_traits@G@std@@V?$allocator@G@2@@std@@@Z
mapcontrolcore.dll ?GetBuildingZone@Address@core@@QEBAJAEAV?$basic_string@GU?$char_traits@G@std@@V?$allocator@G@2@@std@@@Z
mapcontrolcore.dll ?GetBuildingRoom@Address@core@@QEBAJAEAV?$basic_string@GU?$char_traits@G@std@@V?$allocator@G@2@@std@@@Z
mapcontrolcore.dll ?GetBuildingFloor@Address@core@@QEBAJAEAV?$basic_string@GU?$char_traits@G@std@@V?$allocator@G@2@@std@@@Z
mapcontrolcore.dll ?GetBuildingName@Address@core@@QEBAJAEAV?$basic_string@GU?$char_traits@G@std@@V?$allocator@G@2@@std@@@Z
mapcontrolcore.dll ?LocalSearch@FinderAdapterCore@@QEAAXPEBGPEAVGeoCoordinates@core@@K0K_N@Z
mapcontrolcore.dll ?GetGenerationNumber@?$UIThreadCore@UIFinderUI@@@@UEBAJXZ
mapcontrolcore.dll ?Post@?$UIThreadCore@UIFinderUI@@@@UEAAXPEAV?$TDispatchItem@UIFinderUI@@@@@Z
mapcontrolcore.dll ?OnSearchDone@FinderAdapterCore@@UEAAXJAEBV?$vector@VLocation@ngeo@@V?$allocator@VLocation@ngeo@@@std@@@std@@@Z
mapcontrolcore.dll ?GetResultSqmId@FinderAdapterCore@@UEBAKXZ
mapcontrolcore.dll ??1FinderAdapterCore@@MEAA@XZ
mapcontrolcore.dll ??0FinderAdapterCore@@IEAA@XZ
mapcontrolcore.dll ?GetResult@FinderAdapterCore@@QEAAJKPEAVLocation@core@@@Z
mapcontrolcore.dll ??1Location@core@@UEAA@XZ
mapcontrolcore.dll ??0Location@core@@QEAA@XZ
mapcontrolcore.dll ?GetResultCount@FinderAdapterCore@@QEAAKXZ
mapcontrolcore.dll ?Cancel@FinderAdapterCore@@QEAAXXZ
mapcontrolcore.dll ?ReverseGeocode@FinderAdapterCore@@QEAAXPEAVGeoCoordinates@core@@@Z
mapcontrolcore.dll ?Geocode@FinderAdapterCore@@QEAAXPEBGPEAVGeoCoordinates@core@@K@Z
mapcontrolcore.dll ?GetUserGeoRegion@MapsSettings@@SAJPEAPEAUHSTRING__@@@Z
mapcontrolcore.dll ?GetUserProfileLanguages@MapsSettings@@SAJPEAPEAUHSTRING__@@@Z
mapcontrolcore.dll ?GetGenerationNumber@?$UIThreadCore@UIRouterUI@@@@UEBAJXZ
mapcontrolcore.dll ?Post@?$UIThreadCore@UIRouterUI@@@@UEAAXPEAV?$TDispatchItem@UIRouterUI@@@@@Z
mapcontrolcore.dll ?OnRouteDone@RouterAdapterCore@@UEAAXAEBURouteResult@engine@@@Z
mapcontrolcore.dll ?OnRouteProgress@RouterAdapterCore@@UEAAXK@Z
mapcontrolcore.dll ?GetEngineFactoryWeak@OperationAdapterCore@@MEBAPEAUIEngineFactory@@XZ
mapcontrolcore.dll ?GetResultSqmId@RouterAdapterCore@@UEBAKXZ
mapcontrolcore.dll ?SetProgress@QueryAdapterCore@@MEAAXK@Z
mapcontrolcore.dll ?GetAltitude@GeoCoordinates@core@@UEBANXZ
mapcontrolcore.dll ?SetAltitude@GeoCoordinates@core@@UEAAXN@Z
mapcontrolcore.dll ??1RouterAdapterCore@@MEAA@XZ
mapcontrolcore.dll ??0RouterAdapterCore@@IEAA@XZ
mapcontrolcore.dll ?GetProvider@RouterAdapterCore@@QEAAJPEAW4Provider@engine@@@Z
mapcontrolcore.dll ?GetConnectivityType@RouterAdapterCore@@QEAAJPEAW4ConnectivityType@engine@@@Z
mapcontrolcore.dll ?GetAlternateRoute@RouterAdapterCore@@QEAAJIPEAVRoute@core@@@Z
mapcontrolcore.dll ?GetAlternateRouteViolatedOption@RouterAdapterCore@@QEAAJIPEAH@Z
mapcontrolcore.dll ?GetAlternateRouteCount@RouterAdapterCore@@QEAAJPEAI@Z
mapcontrolcore.dll ?GetRoute@RouterAdapterCore@@QEAAJPEAVRoute@core@@@Z
mapcontrolcore.dll ?GetViolatedOptions@RouterAdapterCore@@QEAAJPEAH@Z
mapcontrolcore.dll ?GetErrorCode@OperationAdapterCore@@QEBAJXZ
mapcontrolcore.dll ?Cancel@RouterAdapterCore@@QEAAXXZ
mapcontrolcore.dll ?CalculateRoute@RouterAdapterCore@@QEAAJAEBV?$vector@VGeoCoordinates@core@@V?$allocator@VGeoCoordinates@core@@@std@@@std@@W4TravelMode@engine@@W4RouteOptimization@5@KIPEAURouteOptions@5@@Z
mapcontrolcore.dll ?c_DefaultWalkingRouteOptions@RouterAdapterCore@@2URouteOptions@engine@@B
mapcontrolcore.dll ?c_DefaultDrivingRouteOptions@RouterAdapterCore@@2URouteOptions@engine@@B
mapcontrolcore.dll ?IsValid@GeoCoordinates@core@@UEBA_NXZ
mapcontrolcore.dll ?SetLongitude@GeoCoordinates@core@@UEAAXN@Z
mapcontrolcore.dll ?SetLatitude@GeoCoordinates@core@@UEAAXN@Z
mapcontrolcore.dll ?GetBottomRight@GeoRect@core@@QEBAJPEAVGeoCoordinates@2@@Z
mapcontrolcore.dll ?GetTopLeft@GeoRect@core@@QEBAJPEAVGeoCoordinates@2@@Z
mapcontrolcore.dll ?GetDataAttribution@MapsSettings@@SAJPEAV?$basic_string@GU?$char_traits@G@std@@V?$allocator@G@2@@std@@@Z
mapcontrolcore.dll ?GetUserGeoRegionAsThreeLetterCode@MapsSettings@@SAJPEAV?$basic_string@GU?$char_traits@G@std@@V?$allocator@G@2@@std@@@Z
mapcontrolcore.dll ?IsOldChinaRegKeySet@MapsSettings@@SA_NXZ
mapcontrolcore.dll ?SetApplicationCode@MapsSettings@@SAJAEBV?$basic_string@GU?$char_traits@G@std@@V?$allocator@G@2@@std@@@Z
mapcontrolcore.dll ??0GeoCoordinates@core@@QEAA@AEBV01@@Z
mapcontrolcore.dll ??0GeoCoordinates@core@@QEAA@NN@Z
mapcontrolcore.dll ?GetCoordinates@Location@core@@QEBAJPEAVGeoCoordinates@2@@Z
mapcontrolcore.dll ?GetFieldValue@LocationInfoBackedType@core@@QEBAJW4Field@LocationInfo@ngeo@@AEAV?$basic_string@GU?$char_traits@G@std@@V?$allocator@G@2@@std@@@Z
mapcontrolcore.dll ?GetName@LocationInformation@core@@QEBAJAEAV?$basic_string@GU?$char_traits@G@std@@V?$allocator@G@2@@std@@@Z
mapcontrolcore.dll ?GetDescription@LocationInformation@core@@QEBAJAEAV?$basic_string@GU?$char_traits@G@std@@V?$allocator@G@2@@std@@@Z
mapcontrolcore.dll ?GetAddress@LocationInformation@core@@QEBAJPEAVAddress@2@@Z
mapcontrolcore.dll ?GetInformation@Location@core@@QEBAJPEAVLocationInformation@2@@Z
mapcontrolcore.dll ??1Address@core@@UEAA@XZ
mapcontrolcore.dll ??0Address@core@@QEAA@XZ
mapcontrolcore.dll ??1LocationInformation@core@@UEAA@XZ
mapcontrolcore.dll ??0LocationInformation@core@@QEAA@XZ
mapcontrolcore.dll ?GetLocaleMapConfiguration@MapsSettings@@SAJPEAPEAUILocaleMapConfiguration@@@Z
mapcontrolcore.dll ?GetBingAuthenticationKey@MapsSettings@@SAJPEAV?$basic_string@GU?$char_traits@G@std@@V?$allocator@G@2@@std@@@Z
mapcontrolcore.dll ?UseMosStack@MapsSettings@@SAJPEA_N@Z
mapcontrolcore.dll ?GetBackingObject@?$BackedType@V?$shared_ptr@VIRoute@msnma@@@std@@@core@@QEBA?AV?$shared_ptr@VIRoute@msnma@@@std@@XZ
mapcontrolcore.dll ?GetBackingObject@?$BackedType@V?$shared_ptr@VIManeuver@msnma@@@std@@@core@@QEBA?AV?$shared_ptr@VIManeuver@msnma@@@std@@XZ
mapcontrolcore.dll ?Initialize@Route@core@@QEAAJV?$shared_ptr@VIRoute@msnma@@@std@@@Z
mapcontrolcore.dll ?GetLeg@Route@core@@UEBAJKPEAVRouteLeg@2@@Z
mapcontrolcore.dll ?GetLegCount@Route@core@@UEBAKXZ
mapcontrolcore.dll ?GetGeometryCoordinates@Route@core@@UEBAJKPEAVGeoCoordinates@2@@Z
mapcontrolcore.dll ?GetGeometryCoordinatesCount@Route@core@@UEBAKXZ
mapcontrolcore.dll ?GetDurationInSeconds@Route@core@@UEBAKXZ
mapcontrolcore.dll ?GetLengthInMeters@Route@core@@UEBAKXZ
mapcontrolcore.dll ?GetBoundingBox@Route@core@@UEBAJPEAVGeoRect@2@@Z
mapcontrolcore.dll ??1Route@core@@UEAA@XZ
mapcontrolcore.dll ??0Route@core@@QEAA@XZ
mapcontrolcore.dll ?GetManeuver@RouteLeg@core@@UEBAJKPEAVRouteManeuver@2@@Z
mapcontrolcore.dll ?GetManeuverCount@RouteLeg@core@@UEBAKXZ
mapcontrolcore.dll ?GetDurationInSeconds@RouteLeg@core@@UEBAKXZ
mapcontrolcore.dll ?GetLengthInMeters@RouteLeg@core@@UEBAKXZ
mapcontrolcore.dll ?GetLongitude@GeoCoordinates@core@@UEBANXZ
mapcontrolcore.dll ?GetLatitude@GeoCoordinates@core@@UEBANXZ
mapcontrolcore.dll ?GetGeometryCoordinates@RouteLeg@core@@UEBAJKPEAVGeoCoordinates@2@@Z
mapcontrolcore.dll ?GetGeometryCoordinatesCount@RouteLeg@core@@UEBAKXZ
mapcontrolcore.dll ?GetBoundingBox@RouteLeg@core@@UEBAJPEAVGeoRect@2@@Z
mapcontrolcore.dll ??1GeoRect@core@@UEAA@XZ
mapcontrolcore.dll ??0GeoRect@core@@QEAA@XZ
mapcontrolcore.dll ??1RouteLeg@core@@UEAA@XZ
mapcontrolcore.dll ??0RouteLeg@core@@QEAA@XZ
mapcontrolcore.dll ?GetTargetRoadName@RouteManeuver@core@@QEBAJAEAV?$basic_string@GU?$char_traits@G@std@@V?$allocator@G@2@@std@@@Z
mapcontrolcore.dll ?GetFreewayExitNumber@RouteManeuver@core@@QEBAJAEAV?$basic_string@GU?$char_traits@G@std@@V?$allocator@G@2@@std@@@Z
mapcontrolcore.dll ?GetTrafficCircleExitNumber@RouteManeuver@core@@QEBAKXZ
mapcontrolcore.dll ?GetManeuverType@RouteManeuver@core@@QEBA?AW4RouteManeuverType@2@XZ
mapcontrolcore.dll ?GetInstructionText@RouteManeuver@core@@QEBAJAEAV?$basic_string@GU?$char_traits@G@std@@V?$allocator@G@2@@std@@@Z
mapcontrolcore.dll ?GetDistanceInMetersToNextManeuver@RouteManeuver@core@@QEBAKXZ
mapcontrolcore.dll ?GetStartCoordinates@RouteManeuver@core@@QEBAJPEAVGeoCoordinates@2@@Z
mapcontrolcore.dll ??1GeoCoordinates@core@@UEAA@XZ
mapcontrolcore.dll ??0GeoCoordinates@core@@QEAA@XZ
mapcontrolcore.dll ?GetManeuverNotice@RouteManeuver@core@@QEBAJPEAH@Z
mapcontrolcore.dll ??1RouteManeuver@core@@UEAA@XZ
mapcontrolcore.dll ??0RouteManeuver@core@@QEAA@XZ
mapcontrolcore.dll ?GetAccessibilityInfo@MapPolygon@core@@UEAAJPEAUMapPolygonAccessibilityInfo@2@@Z
mapcontrolcore.dll ?GetNmaMapUserObject@MapPolygon@core@@UEAAPEAVMapUserObject@nmacore@@XZ
mapcontrolcore.dll ?GetVisibleInternal@MapPolygon@core@@MEAA_NXZ
mapcontrolcore.dll ?SetVisibleInternal@MapPolygon@core@@MEAAX_N@Z
mapcontrolcore.dll ??1MapPolygon@core@@UEAA@XZ
mapcontrolcore.dll ??0MapPolyline@core@@IEAA@XZ
mapcontrolcore.dll ?Initialize@MapPolyline@core@@IEAAJV?$unique_ptr@VMapPolyline@nmacore@@U?$default_delete@VMapPolyline@nmacore@@@std@@@std@@@Z
mapcontrolcore.dll ?SetStrokeColor@MapPolyline@core@@QEAAJK@Z
mapcontrolcore.dll ?SetPath@MapPolyline@core@@QEAAJAEBV?$vector@PEAVGeoCoordinates@core@@V?$allocator@PEAVGeoCoordinates@core@@@std@@@std@@@Z
mapcontrolcore.dll ?SetStrokeDashed@MapPolyline@core@@QEAAJ_N@Z
mapcontrolcore.dll ?SetStrokeThickness@MapPolyline@core@@QEAAJI@Z
mapcontrolcore.dll ?GetNmaMapUserObject@MapPolyline@core@@UEAAPEAVMapUserObject@nmacore@@XZ
mapcontrolcore.dll ?GetVisibleInternal@MapPolyline@core@@MEAA_NXZ
mapcontrolcore.dll ?SetVisibleInternal@MapPolyline@core@@MEAAX_N@Z
mapcontrolcore.dll ??1MapPolyline@core@@UEAA@XZ
mapcontrolcore.dll ??0MapIconAdapterCore@core@@IEAA@XZ
mapcontrolcore.dll ??1MapIconAdapterCore@core@@UEAA@XZ
mapcontrolcore.dll ?Initialize@MapIconAdapterCore@core@@IEAAJXZ
mapcontrolcore.dll ?SetConvertSvgsToBitmap@MapIconAdapterCore@core@@QEAAJ_N@Z
mapcontrolcore.dll ?SetDefaultImage@MapIconAdapterCore@core@@IEAAJPEBEI@Z
mapcontrolcore.dll ?SetTitle@MapIconAdapterCore@core@@QEAAJPEBGI@Z
mapcontrolcore.dll ?SetPosition@MapIconAdapterCore@core@@QEAAJNN@Z
mapcontrolcore.dll ?GetAccessibilityInfo@MapIconAdapterCore@core@@UEAAJPEAUMapPoiAccessibilityInfo@2@@Z
mapcontrolcore.dll ?SetAnchorPointInPercentages@MapIconAdapterCore@core@@QEAAJMM@Z
mapcontrolcore.dll ?SetImage@MapIconAdapterCore@core@@QEAAJPEAUIBuffer@Streams@Storage@Windows@@@Z
mapcontrolcore.dll ?SetEnableFadingAnimation@MapIconAdapterCore@core@@QEAAJ_N@Z
mapcontrolcore.dll ?SetDrawAboveLabels@MapIconAdapterCore@core@@QEAAJ_N@Z
mapcontrolcore.dll ?SetImageAndAnchorPointInPercentages@MapIconAdapterCore@core@@QEAAJPEAUIBuffer@Streams@Storage@Windows@@MM@Z
mapcontrolcore.dll ?SetFocused@MapIconAdapterCore@core@@QEAAJ_N@Z
mapcontrolcore.dll ?SetHovered@MapIconAdapterCore@core@@QEAAJ_N@Z
mapcontrolcore.dll ?GetNmaMapUserObject@MapIconAdapterCore@core@@UEAAPEAVMapUserObject@nmacore@@XZ
mapcontrolcore.dll ??0UriTileSourceCore@@IEAA@XZ
mapcontrolcore.dll ??1UriTileSourceCore@@UEAA@XZ
mapcontrolcore.dll ?Initialize@TileSourceCore@@MEAAJXZ
mapcontrolcore.dll ?SetDisplayLayer@TileSourceCore@@QEAAXW4MapDisplayLayer@core@@@Z
mapcontrolcore.dll ?SetZoomRange@TileSourceCore@@QEAAJHH@Z
mapcontrolcore.dll ?SetBoundingRectangle@TileSourceCore@@QEAAJAEBVGeoRect@core@@@Z
mapcontrolcore.dll ?SetFallbackEnabled@TileSourceCore@@QEAAX_N@Z
mapcontrolcore.dll ?SetFadingEnabled@TileSourceCore@@QEAAX_N@Z
mapcontrolcore.dll ?SetTransparencyEnabled@TileSourceCore@@QEAAX_N@Z
mapcontrolcore.dll ?SetRetryEnabled@TileSourceCore@@QEAAX_N@Z
mapcontrolcore.dll ?SetZIndex@TileSourceCore@@QEAAJH@Z
mapcontrolcore.dll ?SetTileSizeInPixels@TileSourceCore@@QEAAJH@Z
mapcontrolcore.dll ?SetOption@UriTileSourceCore@@QEAAJW4UriTileSourceOptionId@core@@PEBG@Z
mapcontrolcore.dll ?SetVisible@TileSourceCore@@QEAAJ_N@Z
mapcontrolcore.dll ?FetchBitmap@UriTileSourceCore@@UEAAJHHHPEAPEAUIWICBitmapSource@@@Z
mapcontrolcore.dll ?EnsureBitmapIsExpectedTileSize@TileSourceCore@@IEAAJPEAUIWICBitmapSource@@@Z
mapcontrolcore.dll ?GetTestDetails@UriTileSourceCore@@UEAAJPEAV?$basic_string@GU?$char_traits@G@std@@V?$allocator@G@2@@std@@@Z
mapcontrolcore.dll ?do_has_tile@TileSourceCore@@MEBA_NIII@Z
mapcontrolcore.dll ?do_request_raster_tile@TileSourceCore@@MEAA?AW4ErrorCode@ngeo@@IIIAEAV?$SharedPointer@VMapRasterTileData@ngeo@@$0A@@3@@Z
mapcontrolcore.dll ?do_cancel_all_requests@TileSourceCore@@MEAAXXZ
mapcontrolcore.dll ?do_increase_frame_number@TileSourceCore@@MEAAXXZ
mapcontrolcore.dll ?_CoreInitialize@InputAdapterCore@@IEAAJHAEBV?$shared_ptr@U?$IDispatcher@UIMapHost@@@@@std@@@Z
mapcontrolcore.dll ??0MapOverlayModelCore@@QEAA@XZ
mapcontrolcore.dll ??1MapOverlayModelCore@@UEAA@XZ
mapcontrolcore.dll ?OnViewportLocationPosted@MapOverlayModelCore@@IEAAXXZ
mapcontrolcore.dll ?SetGeoLocation@MapOverlayModelCore@@QEAAJPEBVGeoCoordinates@core@@@Z
mapcontrolcore.dll ?SetCenter@MapOverlayModelCore@@QEAAJPEBVPixelCoordinates@core@@@Z
mapcontrolcore.dll ?Update@MapOverlayModelCore@@UEAAJ_N@Z
mapcontrolcore.dll ?SetStrokeDashed@MapPolygon@core@@QEAAJ_N@Z
mapcontrolcore.dll ?GetStateCode@Address@core@@QEBAJAEAV?$basic_string@GU?$char_traits@G@std@@V?$allocator@G@2@@std@@@Z
mapcontrolcore.dll ?SetFocused@MapPolygon@core@@QEAAJ_N@Z
mapcontrolcore.dll ?PostViewportLocation@MapOverlayModelCore@@UEAAJXZ
mapcontrolcore.dll ?SetMapOverlayServices@MapOverlayModelCore@@UEAAJPEAUIMapOverlayServices@@@Z
mapcontrolcore.dll ?Invalidate@MapOverlayModelCore@@UEAAXXZ
mapcontrolcore.dll ?Initialize@MapOverlayModelCore@@UEAAJXZ
mapcontrolcore.dll ?Initialize@MapRoute@core@@IEAAJPEAVRoute@2@@Z
mapcontrolcore.dll ?SetColor@MapRoute@core@@QEAAJK@Z
mapcontrolcore.dll ?SetOutlineColor@MapRoute@core@@QEAAJK@Z
mapcontrolcore.dll ?SetDisplayOutline@MapRoute@core@@QEAAJ_N@Z
mapcontrolcore.dll ?TouchSessionBegin@ExtendedInputAdapterCore@@QEAA_NXZ
mapcontrolcore.dll ?ScrollWheel@InputAdapterCore@@QEAA_NHHH@Z
mapcontrolcore.dll ?ContinuousPan@InputAdapterCore@@QEAA_NHH@Z
mapcontrolcore.dll ?KeyboardRotate@InputAdapterCore@@QEAA_NM@Z
mapcontrolcore.dll ?KeyboardTilt@InputAdapterCore@@QEAA_NM@Z
mapcontrolcore.dll ?ContinuousZoom@InputAdapterCore@@QEAA_NM@Z
mapcontrolcore.dll ?ContinuousAltitudeChange@InputAdapterCore@@QEAA_NM@Z
mapcontrolcore.dll ?TouchSessionEnd@ExtendedInputAdapterCore@@QEAA_NXZ
mapcontrolcore.dll ?DoubleTap@InputAdapterCore@@QEAA_NHH@Z
mapcontrolcore.dll ?Tap@InputAdapterCore@@QEAA_NHH@Z
mapcontrolcore.dll ?RightTap@InputAdapterCore@@QEAA_NHH@Z
mapcontrolcore.dll ?TapAndHold@InputAdapterCore@@QEAA_NHH@Z
mapcontrolcore.dll ?PinchStretch@ExtendedInputAdapterCore@@QEAA_NAEBUtagPOINT@@00000_N@Z
mapcontrolcore.dll ?MouseRotate@InputAdapterCore@@QEAA_NMAEBUtagPOINT@@@Z
mapcontrolcore.dll ?TwoFingerTilt@InputAdapterCore@@QEAA_NH@Z
mapcontrolcore.dll ?Pan@ExtendedInputAdapterCore@@QEAA_NHHHH@Z
mapcontrolcore.dll ?Flick@ExtendedInputAdapterCore@@QEAA_NHH@Z
mapcontrolcore.dll ?IsChinaVariant@MapsSettings@@SA_NXZ
mapcontrolcore.dll ?RegisterListener@SuspendResumeDispatcher@@SAJPEAVISuspendResumeListener@@PEA_N@Z
mapcontrolcore.dll ?UnregisterListener@SuspendResumeDispatcher@@SAXPEAVISuspendResumeListener@@@Z
mapcontrolcore.dll ?IsWatermarkEnabled@MapsSettings@@SA_NXZ
mapcontrolcore.dll ?RemoveBingKeyValidationListener@MapsSettings@@SAJPEAUIMapsSettingsListener@@@Z
mapcontrolcore.dll SetUIThreadId
mapcontrolcore.dll ?GetKeyValidationStatus@MapsSettings@@SAJPEAH@Z
mapcontrolcore.dll ?AddBingKeyValidationListener@MapsSettings@@SAJPEAUIMapsSettingsListener@@@Z
mapcontrolcore.dll ?SetStrokeThickness@MapPolygon@core@@QEAAJI@Z
api-ms-win-crt-string-l1-1-0.dll wcsncmp
api-ms-win-core-apiquery-l1-1-0.dll ApiSetQueryApiSetPresence
api-ms-win-appmodel-runtime-l1-1-1.dll GetPackageFamilyName
api-ms-win-core-processenvironment-l1-2-0.dll SearchPathW
api-ms-win-core-memory-l1-1-2.dll UnmapViewOfFile
api-ms-win-core-memory-l1-1-2.dll MapViewOfFile
api-ms-win-core-memory-l1-1-2.dll VirtualQuery
api-ms-win-core-memory-l1-1-2.dll VirtualProtect
api-ms-win-core-memory-l1-1-2.dll CreateFileMappingW
api-ms-win-core-localization-obsolete-l1-3-0.dll GetSystemDefaultUILanguage
api-ms-win-core-localization-obsolete-l1-3-0.dll GetUserDefaultUILanguage
