b'msvcrt.dll' b'free'
b'msvcrt.dll' b'malloc'
b'msvcrt.dll' b'_initterm'
b'msvcrt.dll' b'__C_specific_handler'
b'msvcrt.dll' b'_XcptFilter'
b'msvcrt.dll' b'memcpy'
b'msvcrt.dll' b'_amsg_exit'
b'msvcrt.dll' b'memset'
b'ntdll.dll' b'RtlFreeHeap'
b'ntdll.dll' b'RtlInitUnicodeString'
b'ntdll.dll' b'NtQueryAttributesFile'
b'ntdll.dll' b'NtQuerySystemInformation'
b'ntdll.dll' b'NtSetThreadExecutionState'
b'ntdll.dll' b'RtlLocalTimeToSystemTime'
b'ntdll.dll' b'RtlCaptureContext'
b'ntdll.dll' b'RtlLookupFunctionEntry'
b'ntdll.dll' b'RtlVirtualUnwind'
b'ntdll.dll' b'RtlAllocateHeap'
b'kernel32.dll' b'GetSystemTimeAsFileTime'
b'kernel32.dll' b'GetTickCount'
b'kernel32.dll' b'GetCurrentThreadId'
b'kernel32.dll' b'Sleep'
b'kernel32.dll' b'UnhandledExceptionFilter'
b'kernel32.dll' b'SetUnhandledExceptionFilter'
b'kernel32.dll' b'GetCurrentProcess'
b'kernel32.dll' b'TerminateProcess'
b'kernel32.dll' b'QueryPerformanceCounter'
b'kernel32.dll' b'GetCurrentProcessId'
b'ulib.dll' b'??0OBJECT@@IEAA@XZ'
b'ulib.dll' b'??1OBJECT@@UEAA@XZ'
b'ulib.dll' b'?ComputeCountSet@BITVECTOR@@AEBAKXZ'
b'ulib.dll' b'?Initialize@CLASS_DESCRIPTOR@@QEAAEPEBD@Z'
b'ulib.dll' b'??0CLASS_DESCRIPTOR@@QEAA@XZ'
b'ulib.dll' b'?Stricmp@WSTRING@@SAHPEAG0@Z'
b'ulib.dll' b'?Stricmp@WSTRING@@QEBAJPEBV1@@Z'
b'ulib.dll' b'?ResetBit@BITVECTOR@@QEAAXKK@Z'
b'ulib.dll' b'?FreeLibraryHandle@SYSTEM@@SAXPEAX@Z'
b'ulib.dll' b'?QueryLibraryEntryPoint@SYSTEM@@SAP6A_JXZPEBVWSTRING@@0PEAPEAX@Z'
b'ulib.dll' b'?Initialize@WSTRING@@QEAAEPEBGK@Z'
b'ulib.dll' b'?Strcat@WSTRING@@QEAAEPEBV1@@Z'
b'ulib.dll' b'?Initialize@WSTRING@@QEAAEPEBV1@KK@Z'
b'ulib.dll' b'?Initialize@WSTRING@@QEAAEPEBDK@Z'
b'ulib.dll' b'??1DSTRING@@UEAA@XZ'
b'ulib.dll' b'??0DSTRING@@QEAA@XZ'
b'ulib.dll' b'?Display@MESSAGE@@QEAAEPEBDZZ'
b'ulib.dll' b'?SetBit@BITVECTOR@@QEAAXKK@Z'
b'ulib.dll' b'??0HMEM@@QEAA@XZ'
b'ulib.dll' b'??1HMEM@@UEAA@XZ'
b'ulib.dll' b'?QuerySTR@WSTRING@@QEBAPEADKKPEADKE@Z'
b'ulib.dll' b'?Initialize@HMEM@@QEAAEXZ'
b'ulib.dll' b'??0FSTRING@@QEAA@XZ'
b'ulib.dll' b'?DebugDump@OBJECT@@UEBAXE@Z'
b'ulib.dll' b'?Compare@OBJECT@@UEBAJPEBV1@@Z'
b'ulib.dll' b'??1FSTRING@@UEAA@XZ'
b'ulib.dll' b'?QueryWSTR@WSTRING@@QEBAPEAGKKPEAGKE@Z'
b'ufat.dll' b'?QueryEaSetClusterNumber@EA_HEADER@@QEBAGG@Z'
b'ufat.dll' b'??1EA_SET@@UEAA@XZ'
b'ufat.dll' b'?Initialize@EA_SET@@QEAAEPEAVMEM@@PEAVLOG_IO_DP_DRIVE@@PEAVFAT_SA@@PEBVFAT@@KK@Z'
b'ufat.dll' b'?Read@EA_SET@@UEAAEXZ'
b'ufat.dll' b'?GetEa@EA_SET@@QEAAPEAU_EA@@KPEAJPEAE@Z'
b'ufat.dll' b'??0CLUSTER_CHAIN@@QEAA@XZ'
b'ufat.dll' b'??1CLUSTER_CHAIN@@UEAA@XZ'
b'ufat.dll' b'?Initialize@CLUSTER_CHAIN@@QEAAEPEAVMEM@@PEAVLOG_IO_DP_DRIVE@@PEAVFAT_SA@@PEBVFAT@@KK@Z'
b'ufat.dll' b'?Initialize@FAT_DIRENT@@QEAAEPEAX@Z'
b'ufat.dll' b'?Initialize@EA_HEADER@@QEAAEPEAVMEM@@PEAVLOG_IO_DP_DRIVE@@PEAVFAT_SA@@PEBVFAT@@KK@Z'
b'ufat.dll' b'?QueryNthCluster@FAT@@QEBAKKK@Z'
b'ufat.dll' b'??0EA_SET@@QEAA@XZ'
b'ufat.dll' b'?Initialize@FILEDIR@@QEAAEPEAVMEM@@PEAVLOG_IO_DP_DRIVE@@PEAVFAT_SA@@PEBVFAT@@K@Z'
b'ufat.dll' b'?QueryLongName@FATDIR@@QEAAEJPEAVWSTRING@@@Z'
b'ufat.dll' b'?QueryName@FAT_DIRENT@@QEBAEPEAVWSTRING@@@Z'
b'ufat.dll' b'?QueryLastAccessTime@FAT_DIRENT@@QEBAEPEAT_LARGE_INTEGER@@@Z'
b'ufat.dll' b'?IsValidLastAccessTime@FAT_DIRENT@@QEBAEXZ'
b'ufat.dll' b'?QueryCreationTime@FAT_DIRENT@@QEBAEPEAT_LARGE_INTEGER@@@Z'
b'ufat.dll' b'?IsValidCreationTime@FAT_DIRENT@@QEBAEXZ'
b'ufat.dll' b'?QueryLastWriteTime@FAT_DIRENT@@QEBAEPEAT_LARGE_INTEGER@@@Z'
b'ufat.dll' b'??1FILEDIR@@UEAA@XZ'
b'ufat.dll' b'??0FILEDIR@@QEAA@XZ'
b'ufat.dll' b'?QueryCensusAndRelocate@FAT_SA@@QEAAEPEAU_CENSUS_REPORT@@PEAVINTSTACK@@PEAE@Z'
b'ufat.dll' b'?QueryFreeSectors@REAL_FAT_SA@@QEBAKXZ'
b'ufat.dll' b'?SearchForDirEntry@FATDIR@@QEAAPEAXPEBVWSTRING@@@Z'
b'ufat.dll' b'?Initialize@FAT_DIRENT@@QEAAEPEAXE@Z'
b'ufat.dll' b'??1FAT_DIRENT@@UEAA@XZ'
b'ufat.dll' b'??0FAT_DIRENT@@QEAA@XZ'
b'ufat.dll' b'??1EA_HEADER@@UEAA@XZ'
b'ufat.dll' b'??0EA_HEADER@@QEAA@XZ'
b'ufat.dll' b'?Read@CLUSTER_CHAIN@@UEAAEXZ'
b'ufat.dll' b'?Index12@FAT@@AEBAKK@Z'
b'ufat.dll' b'?Read@REAL_FAT_SA@@UEAAEPEAVMESSAGE@@@Z'
b'ufat.dll' b'??0REAL_FAT_SA@@QEAA@XZ'
b'ufat.dll' b'??1REAL_FAT_SA@@UEAA@XZ'
b'ufat.dll' b'?Initialize@REAL_FAT_SA@@UEAAEPEAVLOG_IO_DP_DRIVE@@PEAVMESSAGE@@E@Z'
b'untfs.dll' b'?AddExtent@NTFS_EXTENT_LIST@@QEAAEVBIG_INT@@00@Z'
b'untfs.dll' b'?Initialize@NTFS_ATTRIBUTE@@QEAAEPEAVLOG_IO_DP_DRIVE@@KPEBVNTFS_EXTENT_LIST@@VBIG_INT@@2KPEBVWSTRING@@G@Z'
b'untfs.dll' b'?Initialize@NTFS_BITMAP@@QEAAEVBIG_INT@@EPEAVLOG_IO_DP_DRIVE@@KE@Z'
b'untfs.dll' b'??0NTFS_UPCASE_FILE@@QEAA@XZ'
b'untfs.dll' b'??1NTFS_UPCASE_FILE@@UEAA@XZ'
b'untfs.dll' b'??0NTFS_LOG_FILE@@QEAA@XZ'
b'untfs.dll' b'??1NTFS_LOG_FILE@@UEAA@XZ'
b'untfs.dll' b'?CreateElementaryStructures@NTFS_SA@@QEAAEPEAVNTFS_BITMAP@@KKKKPEBVNUMBER_SET@@EEEEEKPEAVMESSAGE@@PEAUBIOS_PARAMETER_BLOCK@@PEBVWSTRING@@@Z'
b'untfs.dll' b'?Initialize@NTFS_MFT_FILE@@QEAAEW4FIX_LEVEL@@PEAVLOG_IO_DP_DRIVE@@VBIG_INT@@KK2PEAVNTFS_BITMAP@@PEAVNTFS_UPCASE_TABLE@@PEAVNTFS_ATTRIBUTE@@@Z'
b'untfs.dll' b'?Initialize@NTFS_UPCASE_FILE@@QEAAEW4FIX_LEVEL@@PEAVNTFS_MASTER_FILE_TABLE@@@Z'
b'untfs.dll' b'?QueryAttribute@NTFS_FILE_RECORD_SEGMENT@@QEAAEPEAVNTFS_ATTRIBUTE@@PEAEKPEBVWSTRING@@@Z'
b'untfs.dll' b'?Initialize@NTFS_UPCASE_TABLE@@QEAAEPEAVNTFS_ATTRIBUTE@@PEA_K@Z'
b'untfs.dll' b'?Flush@NTFS_MFT_FILE@@QEAAEXZ'
b'untfs.dll' b'?Initialize@NTFS_LOG_FILE@@QEAAEW4FIX_LEVEL@@PEAVNTFS_MASTER_FILE_TABLE@@@Z'
b'untfs.dll' b'??0NTFS_BITMAP_FILE@@QEAA@XZ'
b'untfs.dll' b'??1NTFS_BITMAP_FILE@@UEAA@XZ'
b'untfs.dll' b'?IsFree@NTFS_BITMAP@@QEBAEVBIG_INT@@0@Z'
b'untfs.dll' b'?Initialize@NTFS_BITMAP_FILE@@QEAAEW4FIX_LEVEL@@PEAVNTFS_MASTER_FILE_TABLE@@@Z'
b'untfs.dll' b'?Write@NTFS_BITMAP@@QEAAEPEAVNTFS_ATTRIBUTE@@PEAV1@@Z'
b'untfs.dll' b'?QuerySectorsInElementaryStructures@NTFS_SA@@SAKPEAVDP_DRIVE@@KKKK@Z'
b'untfs.dll' b'?WriteRemainingBootCode@NTFS_SA@@QEAAEXZ'
b'untfs.dll' b'??1NTFS_EXTENT_LIST@@UEAA@XZ'
b'untfs.dll' b'??0NTFS_EXTENT_LIST@@QEAA@XZ'
b'untfs.dll' b'?MakeNonresident@NTFS_ATTRIBUTE@@UEAAEPEAVNTFS_BITMAP@@@Z'
b'untfs.dll' b'?InsertEntry@NTFS_INDEX_TREE@@QEAAEKPEAXU_MFT_SEGMENT_REFERENCE@@E@Z'
b'untfs.dll' b'?AddFileNameAttribute@NTFS_FILE_RECORD_SEGMENT@@QEAAEPEAU_FILE_NAME@@@Z'
b'untfs.dll' b'?QueryDuplicatedInformation@NTFS_FILE_RECORD_SEGMENT@@QEAAEPEAU_DUPLICATED_INFORMATION@@@Z'
b'untfs.dll' b'?AddSecurityDescriptor@NTFS_FILE_RECORD_SEGMENT@@QEAAEW4_CANNED_SECURITY_TYPE@@PEAVNTFS_BITMAP@@@Z'
b'untfs.dll' b'?Create@NTFS_FILE_RECORD_SEGMENT@@QEAAEPEBU_STANDARD_INFORMATION@@G@Z'
b'untfs.dll' b'NtfsUpcaseCompare'
b'untfs.dll' b'?Initialize@NTFS_INDEX_TREE@@QEAAEKPEAVLOG_IO_DP_DRIVE@@KPEAVNTFS_BITMAP@@PEAVNTFS_UPCASE_TABLE@@KKKPEBVWSTRING@@@Z'
b'untfs.dll' b'?Flush@NTFS_FILE_RECORD_SEGMENT@@QEAAEPEAVNTFS_BITMAP@@PEAVNTFS_INDEX_TREE@@E@Z'
b'untfs.dll' b'?Save@NTFS_INDEX_TREE@@QEAAEPEAVNTFS_FILE_RECORD_SEGMENT@@@Z'
b'untfs.dll' b'??0NTFS_BITMAP@@QEAA@XZ'
b'untfs.dll' b'??1NTFS_BITMAP@@UEAA@XZ'
b'untfs.dll' b'??0NTFS_ATTRIBUTE@@QEAA@XZ'
b'untfs.dll' b'??1NTFS_ATTRIBUTE@@UEAA@XZ'
b'untfs.dll' b'?Initialize@NTFS_ATTRIBUTE@@QEAAEPEAVLOG_IO_DP_DRIVE@@KPEBXKKPEBVWSTRING@@G@Z'
b'untfs.dll' b'?InsertIntoFile@NTFS_ATTRIBUTE@@UEAAEPEAVNTFS_FILE_RECORD_SEGMENT@@PEAVNTFS_BITMAP@@@Z'
b'untfs.dll' b'?IsAttributePresent@NTFS_FILE_RECORD_SEGMENT@@QEAAEKPEBVWSTRING@@E@Z'
b'untfs.dll' b'?AllocateFileRecordSegment@NTFS_MASTER_FILE_TABLE@@QEAAEPEAVBIG_INT@@E@Z'
b'untfs.dll' b'?Extend@NTFS_MASTER_FILE_TABLE@@QEAAEK@Z'
b'untfs.dll' b'??0NTFS_SA@@QEAA@XZ'
b'untfs.dll' b'??1NTFS_SA@@UEAA@XZ'
b'untfs.dll' b'??0NTFS_UPCASE_TABLE@@QEAA@XZ'
b'untfs.dll' b'??1NTFS_UPCASE_TABLE@@UEAA@XZ'
b'untfs.dll' b'??0NTFS_MFT_FILE@@QEAA@XZ'
b'untfs.dll' b'??1NTFS_MFT_FILE@@UEAA@XZ'
b'untfs.dll' b'?QueryDefaultClustersPerIndexBuffer@NTFS_SA@@SAKPEBVDP_DRIVE@@K@Z'
b'untfs.dll' b'?Initialize@NTFS_SA@@QEAAEPEAVLOG_IO_DP_DRIVE@@PEAVMESSAGE@@VBIG_INT@@2@Z'
b'untfs.dll' b'??0NTFS_FILE_RECORD_SEGMENT@@QEAA@XZ'
b'untfs.dll' b'??1NTFS_FILE_RECORD_SEGMENT@@UEAA@XZ'
b'untfs.dll' b'??0NTFS_INDEX_TREE@@QEAA@XZ'
b'untfs.dll' b'??1NTFS_INDEX_TREE@@UEAA@XZ'
b'untfs.dll' b'?Initialize@NTFS_FILE_RECORD_SEGMENT@@QEAAEW4FIX_LEVEL@@VBIG_INT@@PEAVNTFS_MFT_FILE@@@Z'
b'untfs.dll' b'?Read@NTFS_FRS_STRUCTURE@@UEAAEXZ'
b'untfs.dll' b'?Initialize@NTFS_INDEX_TREE@@QEAAEPEAVLOG_IO_DP_DRIVE@@KPEAVNTFS_BITMAP@@PEAVNTFS_UPCASE_TABLE@@KPEAVNTFS_FILE_RECORD_SEGMENT@@PEBVWSTRING@@@Z'
b'untfs.dll' b'?Initialize@NTFS_EXTENT_LIST@@QEAAEVBIG_INT@@0@Z'
b'ifsutil.dll' b'?Add@NUMBER_SET@@QEAAEVBIG_INT@@0@Z'
b'ifsutil.dll' b'?Initialize@READ_WRITE_CACHE@@QEAAEPEAVIO_DP_DRIVE@@KE@Z'
b'ifsutil.dll' b'?SetCache@IO_DP_DRIVE@@QEAAXPEAVDRIVE_CACHE@@@Z'
b'ifsutil.dll' b'RestoreThreadExecutionState'
b'ifsutil.dll' b'??0LOG_IO_DP_DRIVE@@QEAA@XZ'
b'ifsutil.dll' b'?Initialize@LOG_IO_DP_DRIVE@@QEAAEPEBVWSTRING@@PEAVMESSAGE@@E@Z'
b'ifsutil.dll' b'?Lock@IO_DP_DRIVE@@QEAAEXZ'
b'ifsutil.dll' b'?DismountVolume@IFS_SYSTEM@@SAEPEBVWSTRING@@@Z'
b'ifsutil.dll' b'?Remove@NUMBER_SET@@QEAAEVBIG_INT@@0@Z'
b'ifsutil.dll' b'??0READ_WRITE_CACHE@@QEAA@XZ'
b'ifsutil.dll' b'??0NUMBER_SET@@QEAA@XZ'
b'ifsutil.dll' b'??1NUMBER_SET@@UEAA@XZ'
b'ifsutil.dll' b'?Write@IO_DP_DRIVE@@QEAAEVBIG_INT@@KPEAX@Z'
b'ifsutil.dll' b'?Push@INTSTACK@@QEAAEVBIG_INT@@@Z'
b'ifsutil.dll' b'?Initialize@INTSTACK@@QEAAEXZ'
b'ifsutil.dll' b'??1INTSTACK@@UEAA@XZ'
b'ifsutil.dll' b'??0INTSTACK@@QEAA@XZ'
b'ifsutil.dll' b'?Initialize@NUMBER_SET@@QEAAEXZ'
