msvcrt.dll _wcsicmp
msvcrt.dll memmove
msvcrt.dll wcstod
msvcrt.dll _set_errno
msvcrt.dll _get_errno
msvcrt.dll wcsncpy_s
msvcrt.dll wcstok_s
msvcrt.dll ??1exception@@UEAA@XZ
msvcrt.dll _vsnprintf_s
msvcrt.dll ??0exception@@QEAA@XZ
msvcrt.dll memmove_s
msvcrt.dll memcpy_s
msvcrt.dll _purecall
msvcrt.dll free
msvcrt.dll malloc
msvcrt.dll _callnewh
msvcrt.dll memset
msvcrt.dll wcscpy_s
msvcrt.dll _XcptFilter
msvcrt.dll _amsg_exit
msvcrt.dll _initterm
msvcrt.dll __C_specific_handler
msvcrt.dll _lock
msvcrt.dll _unlock
msvcrt.dll __dllonexit
msvcrt.dll _onexit
msvcrt.dll _errno
msvcrt.dll realloc
msvcrt.dll __CxxFrameHandler3
msvcrt.dll memcmp
msvcrt.dll floorf
msvcrt.dll _CxxThrowException
msvcrt.dll ??1type_info@@UEAA@XZ
msvcrt.dll wcschr
msvcrt.dll ??0exception@@QEAA@AEBV0@@Z
msvcrt.dll _vsnwprintf
msvcrt.dll memcpy
api-ms-win-core-libraryloader-l1-2-0.dll GetModuleFileNameA
api-ms-win-core-libraryloader-l1-2-0.dll LoadLibraryExW
api-ms-win-core-libraryloader-l1-2-0.dll DisableThreadLibraryCalls
api-ms-win-core-libraryloader-l1-2-0.dll GetModuleHandleExW
api-ms-win-core-libraryloader-l1-2-0.dll LoadStringW
api-ms-win-core-libraryloader-l1-2-0.dll GetProcAddress
api-ms-win-core-synch-l1-2-0.dll LeaveCriticalSection
api-ms-win-core-synch-l1-2-0.dll WaitForSingleObjectEx
api-ms-win-core-synch-l1-2-0.dll ReleaseMutex
api-ms-win-core-synch-l1-2-0.dll WaitForSingleObject
api-ms-win-core-synch-l1-2-0.dll ReleaseSemaphore
api-ms-win-core-synch-l1-2-0.dll CreateSemaphoreExW
api-ms-win-core-synch-l1-2-0.dll CreateMutexExW
api-ms-win-core-synch-l1-2-0.dll InitOnceComplete
api-ms-win-core-synch-l1-2-0.dll InitOnceBeginInitialize
api-ms-win-core-synch-l1-2-0.dll EnterCriticalSection
api-ms-win-core-synch-l1-2-0.dll OpenSemaphoreW
api-ms-win-core-synch-l1-2-0.dll DeleteCriticalSection
api-ms-win-core-synch-l1-2-0.dll InitializeCriticalSection
api-ms-win-core-synch-l1-2-0.dll Sleep
api-ms-win-core-heap-l1-2-0.dll HeapFree
api-ms-win-core-heap-l1-2-0.dll GetProcessHeap
api-ms-win-core-heap-l1-2-0.dll HeapAlloc
api-ms-win-core-errorhandling-l1-1-1.dll RaiseException
api-ms-win-core-errorhandling-l1-1-1.dll GetLastError
api-ms-win-core-errorhandling-l1-1-1.dll SetUnhandledExceptionFilter
api-ms-win-core-errorhandling-l1-1-1.dll SetLastError
api-ms-win-core-errorhandling-l1-1-1.dll UnhandledExceptionFilter
api-ms-win-core-processthreads-l1-1-2.dll GetCurrentProcessId
api-ms-win-core-processthreads-l1-1-2.dll GetCurrentThreadId
api-ms-win-core-processthreads-l1-1-2.dll OpenProcessToken
api-ms-win-core-processthreads-l1-1-2.dll GetCurrentProcess
api-ms-win-core-processthreads-l1-1-2.dll TerminateProcess
api-ms-win-core-localization-l1-2-1.dll FormatMessageW
api-ms-win-core-debug-l1-1-1.dll OutputDebugStringW
api-ms-win-core-debug-l1-1-1.dll OutputDebugStringA
api-ms-win-core-handle-l1-1-0.dll CloseHandle
api-ms-win-eventing-provider-l1-1-0.dll EventWrite
api-ms-win-eventing-provider-l1-1-0.dll EventRegister
api-ms-win-eventing-provider-l1-1-0.dll EventActivityIdControl
api-ms-win-eventing-provider-l1-1-0.dll EventWriteTransfer
api-ms-win-eventing-provider-l1-1-0.dll EventUnregister
api-ms-win-eventing-provider-l1-1-0.dll EventSetInformation
api-ms-win-core-sysinfo-l1-2-1.dll GetTickCount
api-ms-win-core-sysinfo-l1-2-1.dll GetSystemTimeAsFileTime
api-ms-win-core-rtlsupport-l1-2-0.dll RtlCaptureContext
api-ms-win-core-rtlsupport-l1-2-0.dll RtlVirtualUnwind
api-ms-win-core-rtlsupport-l1-2-0.dll RtlLookupFunctionEntry
api-ms-win-core-profile-l1-1-0.dll QueryPerformanceCounter
user32.dll SetWindowPos
user32.dll RealGetWindowClassW
user32.dll GetWindowRect
user32.dll PostMessageW
user32.dll KillTimer
user32.dll SetRectEmpty
user32.dll SetWindowLongPtrW
user32.dll DestroyWindow
user32.dll UnregisterClassW
user32.dll IsRectEmpty
user32.dll GetWindowLongPtrW
user32.dll RegisterClassExW
user32.dll CreateWindowExW
user32.dll CopyRect
user32.dll IsWindowVisible
user32.dll NotifyWinEvent
user32.dll GetClientRect
user32.dll SetWindowRgn
user32.dll IsWindow
user32.dll GetDC
user32.dll PostThreadMessageW
user32.dll UpdateWindow
user32.dll RegisterTouchWindow
user32.dll GetMessageW
user32.dll CloseDesktop
user32.dll SetThreadDesktop
user32.dll GetUserObjectInformationW
user32.dll GetThreadDesktop
user32.dll OpenInputDesktop
user32.dll UnionRect
user32.dll InflateRect
user32.dll MonitorFromWindow
user32.dll SetRect
user32.dll DefWindowProcW
user32.dll GetWindowThreadProcessId
user32.dll GetMonitorInfoW
user32.dll SystemParametersInfoW
user32.dll DestroyIcon
user32.dll PtInRect
user32.dll MonitorFromPoint
user32.dll GetForegroundWindow
user32.dll GetAncestor
user32.dll ShowWindow
user32.dll SetLayeredWindowAttributes
user32.dll MsgWaitForMultipleObjectsEx
user32.dll PostQuitMessage
user32.dll TranslateMessage
user32.dll SetCursor
user32.dll GetParent
user32.dll DispatchMessageW
user32.dll GetSysColor
user32.dll EqualRect
user32.dll SetCoalescableTimer
user32.dll GetSystemMetrics
user32.dll LoadImageW
user32.dll GetGUIThreadInfo
user32.dll MsgWaitForMultipleObjects
user32.dll PeekMessageW
user32.dll CopyIcon
user32.dll GetClassInfoExW
user32.dll LoadCursorW
user32.dll ScreenToClient
user32.dll OffsetRect
user32.dll ClientToScreen
user32.dll SendMessageW
dui70.dll ?IsPatternSupported@ElementProxy@DirectUI@@IEAAJW4Pattern@Schema@2@PEA_N@Z
dui70.dll ?EventFromEventId@Schema@DirectUI@@SA?AW4Event@12@H@Z
dui70.dll ?WantEvent@EventManager@DirectUI@@SA_NW4Event@Schema@2@@Z
dui70.dll ?FWantAnyEvent@EventManager@DirectUI@@SA_NPEAVElement@2@@Z
dui70.dll ?SetContentAlign@Element@DirectUI@@QEAAJH@Z
dui70.dll ?SetMargin@Element@DirectUI@@QEAAJHHHH@Z
dui70.dll ?GetMargin@Element@DirectUI@@QEAAPEBUtagRECT@@PEAPEAVValue@2@@Z
dui70.dll ?SetBorderThickness@Element@DirectUI@@QEAAJHHHH@Z
dui70.dll ?GetBorderThickness@Element@DirectUI@@QEAAPEBUtagRECT@@PEAPEAVValue@2@@Z
dui70.dll ?GetFontSize@Element@DirectUI@@QEAAHXZ
dui70.dll ?_PostEvent@Element@DirectUI@@AEAAXPEAUEvent@2@H@Z
dui70.dll ?GetMinSize@Element@DirectUI@@QEAAPEBUtagSIZE@@PEAPEAVValue@2@@Z
dui70.dll ?SetClass@Element@DirectUI@@QEAAJPEBG@Z
dui70.dll ?SetMinSize@Element@DirectUI@@QEAAJHH@Z
dui70.dll ?SetActivityOccuring@ModernProgressRing@DirectUI@@QEAAJ_N@Z
dui70.dll ?SetFontColorRuns@RichText@DirectUI@@QEAAJPEBG@Z
dui70.dll ?SetFontSizeRuns@RichText@DirectUI@@QEAAJPEBG@Z
dui70.dll ?SetTypographyRuns@RichText@DirectUI@@QEAAJPEBG@Z
dui70.dll ?SetLocale@RichText@DirectUI@@QEAAJPEBG@Z
dui70.dll ?GetXOffset@BaseScrollViewer@DirectUI@@QEAAHXZ
dui70.dll ?SetXOffset@BaseScrollViewer@DirectUI@@QEAAJH@Z
dui70.dll ?SetXScrollable@BaseScrollViewer@DirectUI@@QEAAJ_N@Z
dui70.dll ?GetSnapPointCollectionX@TouchScrollViewer@DirectUI@@QEAAPEAV?$DynamicArray@N$0A@@2@PEAPEAVValue@2@@Z
dui70.dll ?SetSnapPointCollectionX@TouchScrollViewer@DirectUI@@QEAAJPEBNH@Z
dui70.dll ?MouseFocusedProp@Element@DirectUI@@SAPEBUPropertyInfo@2@XZ
dui70.dll ?GetBoolTrue@Value@DirectUI@@SAPEAV12@XZ
dui70.dll ?GetBoolFalse@Value@DirectUI@@SAPEAV12@XZ
dui70.dll ?UpdateContentSize@TouchScrollViewer@DirectUI@@SA?AVUID@@XZ
dui70.dll ?ResetManipulations@TouchScrollViewer@DirectUI@@QEAAJXZ
dui70.dll ?RemoveAll@Element@DirectUI@@QEAAJXZ
dui70.dll ?GetPressed@TouchButton@DirectUI@@QEAA_NXZ
dui70.dll ?GetVisibleRect@TouchScrollViewer@DirectUI@@QEAAXPEAUtagRECT@@@Z
dui70.dll ?WindowDpiChanged@HWNDElement@DirectUI@@SA?AVUID@@XZ
dui70.dll ?ManipulationDelta@TouchScrollViewer@DirectUI@@SA?AVUID@@XZ
dui70.dll ?GetValue@Element@DirectUI@@QEAAPEAVValue@2@PEBUPropertyInfo@2@HPEAUUpdateCache@2@@Z
dui70.dll ?TypographyRunsProp@RichText@DirectUI@@SAPEBUPropertyInfo@2@XZ
dui70.dll ?DirectionProp@Element@DirectUI@@SAPEBUPropertyInfo@2@XZ
dui70.dll ?SelectedProp@Element@DirectUI@@SAPEBUPropertyInfo@2@XZ
dui70.dll ?IDProp@Element@DirectUI@@SAPEBUPropertyInfo@2@XZ
dui70.dll ?FontFaceProp@Element@DirectUI@@SAPEBUPropertyInfo@2@XZ
dui70.dll ?CreateString@Value@DirectUI@@SAPEAV12@PEBGPEAUHINSTANCE__@@@Z
dui70.dll ?CreateRect@Value@DirectUI@@SAPEAV12@HHHHW4DynamicScaleValue@@@Z
dui70.dll ?LayoutPosProp@Element@DirectUI@@SAPEBUPropertyInfo@2@XZ
dui70.dll ?VisibleProp@Element@DirectUI@@SAPEBUPropertyInfo@2@XZ
dui70.dll ?CreateBool@Value@DirectUI@@SAPEAV12@_N@Z
dui70.dll ?AccValueProp@Element@DirectUI@@SAPEBUPropertyInfo@2@XZ
dui70.dll ?AccDescProp@Element@DirectUI@@SAPEBUPropertyInfo@2@XZ
dui70.dll ?ClassProp@Element@DirectUI@@SAPEBUPropertyInfo@2@XZ
dui70.dll ?FontQualityProp@Element@DirectUI@@SAPEBUPropertyInfo@2@XZ
dui70.dll ?FontStyleProp@Element@DirectUI@@SAPEBUPropertyInfo@2@XZ
dui70.dll ?FontWeightProp@Element@DirectUI@@SAPEBUPropertyInfo@2@XZ
dui70.dll ?FontSizeProp@Element@DirectUI@@SAPEBUPropertyInfo@2@XZ
dui70.dll ?PaddingProp@Element@DirectUI@@SAPEBUPropertyInfo@2@XZ
dui70.dll ?ZoomToRect@TouchScrollViewer@DirectUI@@QEAAJPEBUtagRECT@@_N@Z
dui70.dll ?SetXOffset@Viewer@DirectUI@@QEAAJH@Z
dui70.dll ?CreateAtom@Value@DirectUI@@SAPEAV12@PEBG@Z
dui70.dll ?SelectionPattern@Schema@DirectUI@@2HA
dui70.dll ?SetAccState@Element@DirectUI@@QEAAJH@Z
dui70.dll ?GetAccState@Element@DirectUI@@QEAAHXZ
dui70.dll NotifyAccessibilityEvent
dui70.dll ?GetVScrollbar@TouchScrollViewer@DirectUI@@QEAAJPEAPEAVElement@2@@Z
dui70.dll ?SetYScrollable@BaseScrollViewer@DirectUI@@QEAAJ_N@Z
dui70.dll ?GetHeight@Element@DirectUI@@QEAAHXZ
dui70.dll ?SetID@Element@DirectUI@@QEAAJPEBG@Z
dui70.dll ?YOffsetProp@BaseScrollViewer@DirectUI@@SAPEBUPropertyInfo@2@XZ
dui70.dll ?Host@NativeHWNDHost@DirectUI@@QEAAXPEAVElement@2@@Z
dui70.dll ?EndDefer@Element@DirectUI@@QEAAXK@Z
dui70.dll ?Click@TouchButton@DirectUI@@SA?AVUID@@XZ
dui70.dll ?ContextMenuRequested@ContextMenuBehavior@DirectUI@@SA?AVUID@@XZ
dui70.dll ?MouseWithinProp@Element@DirectUI@@SAPEBUPropertyInfo@2@XZ
dui70.dll InitProcessPriv
dui70.dll InitThread
dui70.dll ?Init@Schema@DirectUI@@SAJXZ
dui70.dll RegisterPVLBehaviorFactory
dui70.dll StartMessagePump
dui70.dll UnInitThread
dui70.dll UnInitProcessPriv
dui70.dll ?RemoveListener@Element@DirectUI@@QEAAXPEAUIElementListener@2@@Z
dui70.dll ?AddListener@Element@DirectUI@@QEAAJPEAUIElementListener@2@@Z
dui70.dll ??0NativeHWNDHost@DirectUI@@QEAA@XZ
dui70.dll ??1NativeHWNDHost@DirectUI@@UEAA@XZ
dui70.dll ?Initialize@NativeHWNDHost@DirectUI@@QEAAJPEBGPEAUHWND__@@PEAUHICON__@@HHHHHHI@Z
dui70.dll ?ShowWindow@NativeHWNDHost@DirectUI@@QEAAXH@Z
dui70.dll ?HideWindow@NativeHWNDHost@DirectUI@@QEAAXXZ
dui70.dll ?DestroyWindow@NativeHWNDHost@DirectUI@@QEAAXXZ
dui70.dll ?CreateHostWindow@NativeHWNDHost@DirectUI@@UEAAPEAUHWND__@@KPEBG0KHHHHPEAU3@PEAUHMENU__@@PEAUHINSTANCE__@@PEAX@Z
dui70.dll ?Release@Value@DirectUI@@QEAAXXZ
dui70.dll ?Destroy@Element@DirectUI@@QEAAJ_N@Z
dui70.dll ?SetAccessible@Element@DirectUI@@QEAAJ_N@Z
dui70.dll ?SetValue@Element@DirectUI@@QEAAJP6APEBUPropertyInfo@2@XZHPEAVValue@2@@Z
dui70.dll ?Create@FillLayout@DirectUI@@SAJPEAPEAVLayout@2@@Z
dui70.dll ?SetLayout@Element@DirectUI@@QEAAJPEAVLayout@2@@Z
dui70.dll ?StartDefer@Element@DirectUI@@QEAAXPEAK@Z
dui70.dll ?Create@Element@DirectUI@@SAJIPEAV12@PEAKPEAPEAV12@@Z
dui70.dll ?Add@Element@DirectUI@@QEAAJPEAV12@@Z
dui70.dll ?FindDescendent@Element@DirectUI@@QEAAPEAV12@G@Z
dui70.dll StrToID
dui70.dll ?Destroy@Layout@DirectUI@@QEAAXXZ
dui70.dll ?SetVisible@Element@DirectUI@@QEAAJ_N@Z
dui70.dll ?EnableUiaEvents@Element@DirectUI@@QEAAX_N@Z
dui70.dll UiaOnToolTip
dui70.dll ?ContentProp@Element@DirectUI@@SAPEBUPropertyInfo@2@XZ
dui70.dll ?CreateGraphic@Value@DirectUI@@SAPEAV12@PEAUHICON__@@_N11@Z
dui70.dll ?SetAccName@Element@DirectUI@@QEAAJPEBG@Z
dui70.dll ?Initialize@TouchHWNDElement@DirectUI@@QEAAJPEAUHWND__@@_NIPEAVElement@2@PEAK@Z
dui70.dll ?Create@DUIXmlParser@DirectUI@@SAJPEAPEAV12@P6APEAVValue@2@PEBGPEAX@Z2P6AX11H2@Z2@Z
dui70.dll ?SetXMLFromResource@DUIXmlParser@DirectUI@@QEAAJIPEAUHINSTANCE__@@0@Z
dui70.dll ?Destroy@DUIXmlParser@DirectUI@@QEAAXXZ
dui70.dll ?EnableDesignMode@DUIXmlParser@DirectUI@@QEAAXXZ
dui70.dll ?CreateElement@DUIXmlParser@DirectUI@@QEAAJPEBGPEAVElement@2@1PEAKPEAPEAV32@@Z
dui70.dll ?WndProc@TouchHWNDElement@DirectUI@@UEAA_JPEAUHWND__@@I_K_J@Z
dui70.dll ?PressedProp@TouchButton@DirectUI@@SAPEBUPropertyInfo@2@XZ
dui70.dll ?CreateInstance@CSafeElementProxy@@SAJPEAVElement@DirectUI@@PEAPEAV1@@Z
dui70.dll ??1TouchHWNDElement@DirectUI@@UEAA@XZ
dui70.dll ?Detach@CSafeElementProxy@@QEAAXXZ
dui70.dll ??0TouchHWNDElement@DirectUI@@QEAA@XZ
dui70.dll ?Register@TouchHWNDElement@DirectUI@@SAJXZ
dui70.dll ?GetFactoryLock@Element@DirectUI@@SAPEAU_RTL_CRITICAL_SECTION@@XZ
dui70.dll ??1CritSecLock@DirectUI@@QEAA@XZ
dui70.dll ?ClassExist@ClassInfoBase@DirectUI@@SA_NPEAPEAUIClassInfo@2@PEBQEBUPropertyInfo@2@IPEAU32@PEAUHINSTANCE__@@PEBG_N@Z
dui70.dll ?Register@ClassInfoBase@DirectUI@@QEAAJXZ
dui70.dll ?Initialize@ClassInfoBase@DirectUI@@QEAAJPEAUHINSTANCE__@@PEBG_NPEBQEBUPropertyInfo@2@I@Z
dui70.dll ?GetClassInfoPtr@TouchHWNDElement@DirectUI@@SAPEAUIClassInfo@2@XZ
dui70.dll ??0ClassInfoBase@DirectUI@@QEAA@XZ
dui70.dll ??1ClassInfoBase@DirectUI@@UEAA@XZ
dui70.dll ?IsRTLReading@Element@DirectUI@@UEAA_NXZ
dui70.dll ?IsContentProtected@Element@DirectUI@@UEAA_NXZ
dui70.dll ?GetContentStringAsDisplayed@Element@DirectUI@@UEAAPEBGPEAPEAVValue@2@@Z
dui70.dll ?OnPropertyChanging@Element@DirectUI@@UEAA_NPEBUPropertyInfo@2@HPEAVValue@2@1@Z
dui70.dll ?OnPropertyChanging@Element@DirectUI@@UEAA_NPEAUPropertyInfo@2@HPEAVValue@2@1@Z
dui70.dll ?OnPropertyChanged@TouchHWNDElement@DirectUI@@UEAAXPEBUPropertyInfo@2@HPEAVValue@2@1@Z
dui70.dll ?OnPropertyChanged@Element@DirectUI@@UEAAXPEAUPropertyInfo@2@HPEAVValue@2@1@Z
dui70.dll ?OnGroupChanged@HWNDElement@DirectUI@@UEAAXH_N@Z
dui70.dll ?OnInput@TouchHWNDElement@DirectUI@@UEAAXPEAUInputEvent@2@@Z
dui70.dll ?OnKeyFocusMoved@TouchHWNDElement@DirectUI@@UEAAXPEAVElement@2@0@Z
dui70.dll ?OnMouseFocusMoved@Element@DirectUI@@UEAAXPEAV12@0@Z
dui70.dll ?OnDestroy@TouchHWNDElement@DirectUI@@UEAAXXZ
dui70.dll ?OnEvent@TouchHWNDElement@DirectUI@@UEAAXPEAUEvent@2@@Z
dui70.dll ?Paint@Element@DirectUI@@UEAAXPEAUHDC__@@PEBUtagRECT@@1PEAU4@2@Z
dui70.dll ?GetContentSize@Element@DirectUI@@UEAA?AUtagSIZE@@HHPEAVSurface@2@@Z
dui70.dll ?Add@Element@DirectUI@@UEAAJPEAPEAV12@I@Z
dui70.dll ?Insert@Element@DirectUI@@UEAAJPEAPEAV12@II@Z
dui70.dll ?Remove@Element@DirectUI@@UEAAJPEAPEAV12@I@Z
dui70.dll ?GetAdjacent@Element@DirectUI@@UEAAPEAV12@PEAV12@HPEBUNavReference@2@K@Z
dui70.dll ?EnsureVisible@Element@DirectUI@@UEAA_NHHHH@Z
dui70.dll ?SetKeyFocus@Element@DirectUI@@UEAAXXZ
dui70.dll ?AddBehavior@Element@DirectUI@@UEAAJPEAUIDuiBehavior@@@Z
dui70.dll ?RemoveBehavior@Element@DirectUI@@UEAAJPEAUIDuiBehavior@@@Z
dui70.dll ?MessageCallback@TouchHWNDElement@DirectUI@@UEAAIPEAUtagGMSG@@@Z
dui70.dll ?QueryInterface@Element@DirectUI@@UEAAJAEBU_GUID@@PEAPEAX@Z
dui70.dll ?GetImmersiveFocusRectOffsets@Element@DirectUI@@UEAAXPEAUtagRECT@@@Z
dui70.dll ?_SelfLayoutDoLayout@Element@DirectUI@@MEAAXHH@Z
dui70.dll ?_SelfLayoutUpdateDesiredSize@Element@DirectUI@@MEAA?AUtagSIZE@@HHPEAVSurface@2@@Z
dui70.dll ?OnHosted@Element@DirectUI@@MEAAXPEAV12@@Z
dui70.dll ?OnUnHosted@Element@DirectUI@@MEAAXPEAV12@@Z
dui70.dll ?UpdateTooltip@TouchHWNDElement@DirectUI@@UEAAXPEAVElement@2@@Z
dui70.dll ?ActivateTooltip@TouchHWNDElement@DirectUI@@UEAAXPEAVElement@2@K@Z
dui70.dll ?RemoveTooltip@TouchHWNDElement@DirectUI@@UEAAXPEAVElement@2@@Z
dui70.dll ?GetKeyFocused@Element@DirectUI@@UEAA_NXZ
dui70.dll ?GetAccessibleImpl@HWNDElement@DirectUI@@UEAAJPEAPEAUIAccessible@@@Z
dui70.dll ?DefaultAction@Element@DirectUI@@UEAAJXZ
dui70.dll ?GetUIAElementProvider@Element@DirectUI@@UEAAJAEBU_GUID@@PEAPEAX@Z
dui70.dll ?GetElementProviderImpl@Element@DirectUI@@UEAAJPEAVInvokeHelper@2@PEAPEAVElementProvider@2@@Z
dui70.dll ?HandleUiaDestroyListener@Element@DirectUI@@UEAAXXZ
dui70.dll ?HandleUiaPropertyListener@Element@DirectUI@@UEAAXPEBUPropertyInfo@2@HPEAVValue@2@1@Z
dui70.dll ?HandleUiaPropertyChangingListener@Element@DirectUI@@UEAAXPEBUPropertyInfo@2@@Z
dui70.dll ?HandleUiaEventListener@Element@DirectUI@@UEAAXPEAUEvent@2@@Z
dui70.dll ?GetUiaFocusDelegate@Element@DirectUI@@UEAAPEAV12@XZ
dui70.dll ?GetHWND@HWNDElement@DirectUI@@UEAAPEAUHWND__@@XZ
dui70.dll ?OnThemeChanged@HWNDElement@DirectUI@@UEAAXPEAUThemeChangedEvent@2@@Z
dui70.dll ?OnImmersiveColorSchemeChanged@HWNDElement@DirectUI@@UEAAXXZ
dui70.dll ?OnNoChildWithShortcutFound@HWNDElement@DirectUI@@UEAAXPEAUKeyboardEvent@2@@Z
dui70.dll ?OnGetDlgCode@HWNDElement@DirectUI@@UEAAXPEAUtagMSG@@PEA_J@Z
dui70.dll ?OnWmThemeChanged@HWNDElement@DirectUI@@UEAAX_K_J@Z
dui70.dll ?OnWmSettingChanged@HWNDElement@DirectUI@@UEAAX_K_J@Z
dui70.dll ?OnCompositionChanged@HWNDElement@DirectUI@@UEAAXXZ
dui70.dll ?CanSetFocus@HWNDElement@DirectUI@@UEAA_NXZ
dui70.dll ?IsMSAAEnabled@TouchHWNDElement@DirectUI@@UEAA_NXZ
dui70.dll ?_OnUIStateChanged@TouchHWNDElement@DirectUI@@MEAAXGG@Z
dui70.dll ?GetClassInfoW@TouchHWNDElement@DirectUI@@UEAAPEAUIClassInfo@2@XZ
dui70.dll ?CreateStyleParser@HWNDElement@DirectUI@@UEAAJPEAPEAVDUIXmlParser@2@@Z
dui70.dll ?GetWindowClassNameAndStyle@HWNDElement@DirectUI@@UEAAXPEAPEBGPEAI@Z
dui70.dll ?AddRef@ClassInfoBase@DirectUI@@UEAAXXZ
dui70.dll ?Release@ClassInfoBase@DirectUI@@UEAAHXZ
dui70.dll ?EnumPropertyInfo@ClassInfoBase@DirectUI@@UEAAPEBUPropertyInfo@2@I@Z
dui70.dll ?GetByClassIndex@ClassInfoBase@DirectUI@@UEAAPEBUPropertyInfo@2@I@Z
dui70.dll ?GetPICount@ClassInfoBase@DirectUI@@UEBAIXZ
dui70.dll ?GetGlobalIndex@ClassInfoBase@DirectUI@@UEBAIXZ
dui70.dll ?GetName@ClassInfoBase@DirectUI@@UEBAPEBGXZ
dui70.dll ?IsValidProperty@ClassInfoBase@DirectUI@@UEBA_NPEBUPropertyInfo@2@@Z
dui70.dll ?IsSubclassOf@ClassInfoBase@DirectUI@@UEBA_NPEAUIClassInfo@2@@Z
dui70.dll ?GetModule@ClassInfoBase@DirectUI@@UEBAPEAUHINSTANCE__@@XZ
dui70.dll ?IsGlobal@ClassInfoBase@DirectUI@@UEBA_NXZ
dui70.dll ?AddChild@ClassInfoBase@DirectUI@@UEAAXXZ
dui70.dll ?RemoveChild@ClassInfoBase@DirectUI@@UEAAXXZ
dui70.dll ?GetChildren@ClassInfoBase@DirectUI@@UEBAHXZ
dui70.dll ?AssertPIZeroRef@ClassInfoBase@DirectUI@@UEBAXXZ
dui70.dll GetScaleFactor
dui70.dll ?DestroyAll@Element@DirectUI@@QEAAJ_N@Z
dui70.dll ?SyncDestroyWindow@NativeHWNDHost@DirectUI@@QEAAXXZ
dui70.dll ?SetAlpha@Element@DirectUI@@QEAAJH@Z
dui70.dll ?SetAccRole@Element@DirectUI@@QEAAJH@Z
dui70.dll ?SetActive@Element@DirectUI@@QEAAJH@Z
dui70.dll ?SetSelected@Element@DirectUI@@QEAAJ_N@Z
dui70.dll ?GetElementScaleFactor@Element@DirectUI@@QEAAMXZ
dui70.dll ?SetLayoutPos@Element@DirectUI@@QEAAJH@Z
dui70.dll ?CreateInt@Value@DirectUI@@SAPEAV12@HW4DynamicScaleValue@@@Z
dui70.dll ?GetExtent@Element@DirectUI@@QEAAPEBUtagSIZE@@PEAPEAVValue@2@@Z
dui70.dll ?SetWidth@Element@DirectUI@@QEAAJH@Z
dui70.dll ?WidthProp@Element@DirectUI@@SAPEBUPropertyInfo@2@XZ
dui70.dll ?SetValue@Element@DirectUI@@QEAAJPEBUPropertyInfo@2@HPEAVValue@2@@Z
dui70.dll ?HeightProp@Element@DirectUI@@SAPEBUPropertyInfo@2@XZ
dui70.dll ?SetFont@Element@DirectUI@@QEAAJPEBG@Z
dui70.dll ?SetColorFontPaletteIndex@RichText@DirectUI@@QEAAJH@Z
dui70.dll ?ColorFontPaletteIndexProp@RichText@DirectUI@@SAPEBUPropertyInfo@2@XZ
dui70.dll ?RemoveLocalValue@Element@DirectUI@@QEAAJPEBUPropertyInfo@2@@Z
dui70.dll ?SetDirection@Element@DirectUI@@QEAAJH@Z
dui70.dll ?ExtentProp@Element@DirectUI@@SAPEBUPropertyInfo@2@XZ
dui70.dll ?GetWidth@Element@DirectUI@@QEAAHXZ
dui70.dll ?SetHeight@Element@DirectUI@@QEAAJH@Z
dui70.dll ?Initialize@NativeHWNDHost@DirectUI@@QEAAJPEBG0PEAUHWND__@@PEAUHICON__@@HHHHHHPEAUHINSTANCE__@@I@Z
dui70.dll ?Destroy@NativeHWNDHost@DirectUI@@QEAAXXZ
dui70.dll ?SetPadding@Element@DirectUI@@QEAAJHHHH@Z
dui70.dll ??0Element@DirectUI@@QEAA@XZ
dui70.dll ??1Element@DirectUI@@UEAA@XZ
dui70.dll ??0TouchButton@DirectUI@@QEAA@XZ
dui70.dll ??1TouchButton@DirectUI@@UEAA@XZ
dui70.dll ?GetValue@Element@DirectUI@@QEAAPEAVValue@2@P6APEBUPropertyInfo@2@XZHPEAUUpdateCache@2@@Z
dui70.dll ?MultipleClick@TouchButton@DirectUI@@SA?AVUID@@XZ
dui70.dll ?GetChildren@Element@DirectUI@@QEAAPEAV?$DynamicArray@PEAVElement@DirectUI@@$0A@@2@PEAPEAVValue@2@@Z
dui70.dll ?SetContentString@Element@DirectUI@@QEAAJPEBG@Z
dui70.dll ?OnEvent@Element@DirectUI@@UEAAXPEAUEvent@2@@Z
dui70.dll ?SetYOffset@BaseScrollViewer@DirectUI@@QEAAJH@Z
dui70.dll ?AccNameProp@Element@DirectUI@@SAPEBUPropertyInfo@2@XZ
dui70.dll ?RemoveLocalValue@Element@DirectUI@@QEAAJP6APEBUPropertyInfo@2@XZ@Z
dui70.dll ?BorderThicknessProp@Element@DirectUI@@SAPEBUPropertyInfo@2@XZ
dui70.dll ?SetEnabled@Element@DirectUI@@QEAAJ_N@Z
dui70.dll ?Remove@Element@DirectUI@@QEAAJPEAV12@@Z
dui70.dll ?GetYOffset@BaseScrollViewer@DirectUI@@QEAAHXZ
dui70.dll ?GetRoot@Element@DirectUI@@QEAAPEAV12@XZ
dui70.dll ?GetLocation@Element@DirectUI@@QEAAPEBUtagPOINT@@PEAPEAVValue@2@@Z
dui70.dll ?SetX@Element@DirectUI@@QEAAJH@Z
dui70.dll ?SetY@Element@DirectUI@@QEAAJH@Z
dui70.dll ?Register@TouchButton@DirectUI@@SAJXZ
dui70.dll ?Register@Element@DirectUI@@SAJXZ
dui70.dll ?GetClassInfoPtr@Element@DirectUI@@SAPEAUIClassInfo@2@XZ
dui70.dll ?Initialize@Element@DirectUI@@QEAAJIPEAV12@PEAK@Z
dui70.dll ?Initialize@TouchButton@DirectUI@@QEAAJIPEAVElement@2@PEAK@Z
dui70.dll ?GetClassInfoPtr@TouchButton@DirectUI@@SAPEAUIClassInfo@2@XZ
dui70.dll ?OnPropertyChanged@Element@DirectUI@@UEAAXPEBUPropertyInfo@2@HPEAVValue@2@1@Z
dui70.dll ?OnGroupChanged@Element@DirectUI@@UEAAXH_N@Z
dui70.dll ?OnInput@Element@DirectUI@@UEAAXPEAUInputEvent@2@@Z
dui70.dll ?OnKeyFocusMoved@Element@DirectUI@@UEAAXPEAV12@0@Z
dui70.dll ?OnDestroy@Element@DirectUI@@UEAAXXZ
dui70.dll ?MessageCallback@Element@DirectUI@@UEAAIPEAUtagGMSG@@@Z
dui70.dll ?UpdateTooltip@Element@DirectUI@@MEAAXPEAV12@@Z
dui70.dll ?ActivateTooltip@Element@DirectUI@@MEAAXPEAV12@K@Z
dui70.dll ?RemoveTooltip@Element@DirectUI@@MEAAXPEAV12@@Z
dui70.dll ?GetAccessibleImpl@Element@DirectUI@@UEAAJPEAPEAUIAccessible@@@Z
dui70.dll ?OnPropertyChanged@TouchButton@DirectUI@@UEAAXPEBUPropertyInfo@2@HPEAVValue@2@1@Z
dui70.dll ?OnInput@TouchButton@DirectUI@@UEAAXPEAUInputEvent@2@@Z
dui70.dll ?OnEvent@TouchButton@DirectUI@@UEAAXPEAUEvent@2@@Z
dui70.dll ?Paint@RichText@DirectUI@@UEAAXPEAUHDC__@@PEBUtagRECT@@1PEAU4@2@Z
dui70.dll ?GetContentSize@RichText@DirectUI@@UEAA?AUtagSIZE@@HHPEAVSurface@2@@Z
dui70.dll ?GetImmersiveFocusRectOffsets@TouchButton@DirectUI@@UEAAXPEAUtagRECT@@@Z
dui70.dll ?OnHosted@TouchButton@DirectUI@@UEAAXPEAVElement@2@@Z
dui70.dll ?OnUnHosted@TouchButton@DirectUI@@UEAAXPEAVElement@2@@Z
dui70.dll ?DefaultAction@TouchButton@DirectUI@@UEAAJXZ
dui70.dll ?GetForegroundColorRef@TouchButton@DirectUI@@UEAAJPEAK@Z
dui70.dll ?FireClickEvent@TouchButton@DirectUI@@UEAAXIIW4ClickDevice@12@PEAUtagPOINT@@@Z
dui70.dll ?FireRightClickEvent@TouchButton@DirectUI@@UEAAXIPEAUtagPOINT@@@Z
dui70.dll ?PatternFromPatternId@Schema@DirectUI@@SA?AW4Pattern@12@H@Z
dui70.dll ?DoInvoke@ElementProvider@DirectUI@@IEAAJHZZ
dui70.dll ?Init@ElementProvider@DirectUI@@MEAAJPEAVElement@2@PEAVInvokeHelper@2@@Z
dui70.dll ?Release@ElementProvider@DirectUI@@UEAAKXZ
dui70.dll ??1ElementProvider@DirectUI@@UEAA@XZ
dui70.dll ?GetProperty@ElementProxy@DirectUI@@IEAAJPEAUtagVARIANT@@H@Z
dui70.dll ?DoMethod@ElementProxy@DirectUI@@UEAAJHPEAD@Z
dui70.dll ?Init@ElementProxy@DirectUI@@MEAAXPEAVElement@2@@Z
dui70.dll ?ManipulationCompleted@TouchScrollViewer@DirectUI@@SA?AVUID@@XZ
dui70.dll ?CreatePatternProvider@Schema@DirectUI@@SAJW4Pattern@12@PEAVElementProvider@2@PEAPEAUIUnknown@@@Z
dui70.dll ??0ElementProvider@DirectUI@@QEAA@XZ
dui70.dll ?GetElement@ElementProvider@DirectUI@@UEAAPEDVElement@2@XZ
dui70.dll ?TossElement@ElementProvider@DirectUI@@UEAAXXZ
dui70.dll ?QueryInterface@ElementProvider@DirectUI@@UEAAJAEBU_GUID@@PEAPEAX@Z
dui70.dll ?AddRef@ElementProvider@DirectUI@@UEAAKXZ
dui70.dll ?get_ProviderOptions@ElementProvider@DirectUI@@UEAAJPEAW4ProviderOptions@@@Z
dui70.dll ?GetPropertyValue@ElementProvider@DirectUI@@UEAAJHPEAUtagVARIANT@@@Z
dui70.dll ?get_HostRawElementProvider@ElementProvider@DirectUI@@UEAAJPEAPEAUIRawElementProviderSimple@@@Z
dui70.dll ?ShowContextMenu@ElementProvider@DirectUI@@UEAAJXZ
dui70.dll ?Navigate@ElementProvider@DirectUI@@UEAAJW4NavigateDirection@@PEAPEAUIRawElementProviderFragment@@@Z
dui70.dll ?GetRuntimeId@ElementProvider@DirectUI@@UEAAJPEAPEAUtagSAFEARRAY@@@Z
dui70.dll ?get_BoundingRectangle@ElementProvider@DirectUI@@UEAAJPEAUUiaRect@@@Z
dui70.dll ?GetEmbeddedFragmentRoots@ElementProvider@DirectUI@@UEAAJPEAPEAUtagSAFEARRAY@@@Z
dui70.dll ?SetFocus@ElementProvider@DirectUI@@UEAAJXZ
dui70.dll ?get_FragmentRoot@ElementProvider@DirectUI@@UEAAJPEAPEAUIRawElementProviderFragmentRoot@@@Z
dui70.dll ?AdviseEventAdded@ElementProvider@DirectUI@@UEAAJHPEAUtagSAFEARRAY@@@Z
dui70.dll ?AdviseEventRemoved@ElementProvider@DirectUI@@UEAAJHPEAUtagSAFEARRAY@@@Z
dui70.dll ?SetAccValue@Element@DirectUI@@QEAAJPEBG@Z
dui70.dll ?GetPadding@Element@DirectUI@@QEAAPEBUtagRECT@@PEAPEAVValue@2@@Z
dui70.dll ?SetAccDesc@Element@DirectUI@@QEAAJPEBG@Z
dui70.dll ?FireEvent@Element@DirectUI@@QEAAXPEAUEvent@2@_N1@Z
dui70.dll ?GetContentString@Element@DirectUI@@QEAAPEBGPEAPEAVValue@2@@Z
dui70.dll ?SelectionItemPattern@Schema@DirectUI@@2HA
dui70.dll ?DoInvokeArgs@ElementProvider@DirectUI@@QEAAJHP6APEAVProviderProxy@2@PEAVElement@2@@ZPEAD@Z
dui70.dll ??1RefcountBase@DirectUI@@UEAA@XZ
dui70.dll ?TossPatternProvider@ElementProvider@DirectUI@@QEAAXW4Pattern@Schema@2@@Z
dui70.dll ?Release@RefcountBase@DirectUI@@QEAAJXZ
dui70.dll ?AddRef@RefcountBase@DirectUI@@QEAAJXZ
dui70.dll ?Init@ProviderProxy@DirectUI@@MEAAXPEAVElement@2@@Z
dui70.dll ?GetInvokeHelper@InvokeManager@DirectUI@@SAJPEAPEAVInvokeHelper@2@@Z
dui70.dll ??0RefcountBase@DirectUI@@QEAA@XZ
dui70.dll ?Find@ElementProviderManager@DirectUI@@SAPEAVElementProvider@2@PEAVElement@2@@Z
dui70.dll ?Create@HWNDElementProvider@DirectUI@@SAJPEAVHWNDElement@2@PEAVInvokeHelper@2@PEAPEAV12@@Z
dui70.dll ?Create@ElementProvider@DirectUI@@SAJPEAVElement@2@PEAVInvokeHelper@2@PEAPEAV12@@Z
dui70.dll ?GetClassInfoPtr@HWNDElement@DirectUI@@SAPEAUIClassInfo@2@XZ
dui70.dll ?GetStringNull@Value@DirectUI@@SAPEAV12@XZ
dui70.dll ?GetIntZero@Value@DirectUI@@SAPEAV12@XZ
dui70.dll ?ManipulationStarted@TouchScrollViewer@DirectUI@@SA?AVUID@@XZ
kernel32.dll OpenMutexW
kernel32.dll HeapReAlloc
kernel32.dll RegOpenCurrentUser
kernel32.dll RegQueryValueExW
kernel32.dll InitializeCriticalSectionEx
kernel32.dll CompareStringOrdinal
kernel32.dll LCIDToLocaleName
kernel32.dll MulDiv
kernel32.dll TlsFree
kernel32.dll CreateSemaphoreW
kernel32.dll TlsAlloc
kernel32.dll TlsSetValue
kernel32.dll FreeLibraryWhenCallbackReturns
kernel32.dll CallbackMayRunLong
kernel32.dll CloseThreadpoolTimer
kernel32.dll WaitForThreadpoolTimerCallbacks
kernel32.dll SetThreadpoolTimer
kernel32.dll CreateThreadpoolTimer
kernel32.dll TrySubmitThreadpoolCallback
kernel32.dll TryEnterCriticalSection
kernel32.dll GetSystemDirectoryW
kernel32.dll GetModuleFileNameW
kernel32.dll RegOpenKeyExW
kernel32.dll FindStringOrdinal
kernel32.dll OpenProcess
kernel32.dll WaitForMultipleObjectsEx
kernel32.dll ReleaseSRWLockShared
kernel32.dll AcquireSRWLockShared
kernel32.dll FreeLibraryAndExitThread
kernel32.dll SetEvent
kernel32.dll CreateThread
kernel32.dll ResetEvent
kernel32.dll CreateEventW
kernel32.dll InitializeCriticalSectionAndSpinCount
kernel32.dll RegCloseKey
kernel32.dll CreateThreadpoolWait
kernel32.dll CreateEventExW
kernel32.dll RegNotifyChangeKeyValue
kernel32.dll RegCreateKeyExW
kernel32.dll RegGetValueW
kernel32.dll FreeLibrary
kernel32.dll FindResourceExW
kernel32.dll LoadResource
kernel32.dll LockResource
kernel32.dll SizeofResource
kernel32.dll GetModuleHandleW
kernel32.dll SetThreadpoolWait
kernel32.dll AcquireSRWLockExclusive
kernel32.dll ReleaseSRWLockExclusive
kernel32.dll WaitForThreadpoolWaitCallbacks
kernel32.dll CloseThreadpoolWait
api-ms-win-security-base-l1-2-0.dll GetSidSubAuthorityCount
api-ms-win-security-base-l1-2-0.dll GetSidSubAuthority
api-ms-win-security-base-l1-2-0.dll GetTokenInformation
api-ms-win-security-base-l1-2-0.dll IsValidSid
api-ms-win-core-delayload-l1-1-1.dll DelayLoadFailureHook
api-ms-win-core-delayload-l1-1-1.dll ResolveDelayLoadedAPI
ntdll.dll EtwEventWrite
ntdll.dll RtlUnsubscribeWnfStateChangeNotification
ntdll.dll RtlSubscribeWnfStateChangeNotification
ntdll.dll RtlQueryWnfStateData
ntdll.dll RtlCompareUnicodeString
ntdll.dll RtlNtStatusToDosErrorNoTeb
ntdll.dll RtlAllocateHeap
ntdll.dll RtlInitUnicodeString
ntdll.dll NtQueryInformationToken
ntdll.dll RtlFreeHeap
ntdll.dll RtlPublishWnfStateData
imm32.dll ImmDisableLegacyIME
imm32.dll ImmDisableIME
