msvcr120.dll ??0bad_cast@std@@QEAA@AEBV01@@Z
msvcr120.dll ??1bad_cast@std@@UEAA@XZ
msvcr120.dll ?what@exception@std@@UEBAPEBDXZ
msvcr120.dll _CxxThrowException
msvcr120.dll __CxxFrameHandler3
msvcr120.dll fclose
msvcr120.dll fflush
msvcr120.dll fgetc
msvcr120.dll fgetpos
msvcr120.dll fsetpos
msvcr120.dll _fseeki64
msvcr120.dll fwrite
msvcr120.dll setvbuf
msvcr120.dll ungetc
msvcr120.dll _lock_file
msvcr120.dll _unlock_file
msvcr120.dll memcpy_s
msvcr120.dll _fsopen
msvcr120.dll fseek
msvcr120.dll _wfsopen
msvcr120.dll ?__ExceptionPtrDestroy@@YAXPEAX@Z
msvcr120.dll ?__ExceptionPtrCopy@@YAXPEAXPEBX@Z
msvcr120.dll ?__ExceptionPtrRethrow@@YAXPEBX@Z
msvcr120.dll ?Alloc@Concurrency@@YAPEAX_K@Z
msvcr120.dll ?Free@Concurrency@@YAXPEAX@Z
msvcr120.dll ?_ScheduleTask@_CurrentScheduler@details@Concurrency@@SAXP6AXPEAX@Z0@Z
msvcr120.dll ??0invalid_operation@Concurrency@@QEAA@PEBD@Z
msvcr120.dll ??0critical_section@Concurrency@@QEAA@XZ
msvcr120.dll ??1critical_section@Concurrency@@QEAA@XZ
msvcr120.dll ??0event@Concurrency@@QEAA@XZ
msvcr120.dll ??1event@Concurrency@@QEAA@XZ
msvcr120.dll ?wait@event@Concurrency@@QEAA_KI@Z
msvcr120.dll ?set@event@Concurrency@@QEAAXXZ
msvcr120.dll ldexp
msvcr120.dll sprintf_s
msvcr120.dll strcspn
msvcr120.dll wcslen
msvcr120.dll _Strftime
msvcr120.dll _Wcsftime
msvcr120.dll strcmp
msvcr120.dll setlocale
msvcr120.dll _malloc_crt
msvcr120.dll _realloc_crt
msvcr120.dll ?_set_new_handler@@YAP6AH_K@ZP6AH0@Z@Z
msvcr120.dll fgetwc
msvcr120.dll fputwc
msvcr120.dll ungetwc
msvcr120.dll __uncaught_exception
msvcr120.dll _errno
msvcr120.dll memcmp
msvcr120.dll _wcsdup
msvcr120.dll ___lc_locale_name_func
msvcr120.dll ___lc_collate_cp_func
msvcr120.dll __crtCompareStringA
msvcr120.dll __crtLCMapStringA
msvcr120.dll ___lc_codepage_func
msvcr120.dll _ismbblead
msvcr120.dll remove
msvcr120.dll rename
msvcr120.dll _wremove
msvcr120.dll strcpy_s
msvcr120.dll wcscpy_s
msvcr120.dll _wgetcwd
msvcr120.dll _wchdir
msvcr120.dll _wmkdir
msvcr120.dll _wrmdir
msvcr120.dll _W_Gettnames
msvcr120.dll _getcwd
msvcr120.dll _chdir
msvcr120.dll _mkdir
msvcr120.dll _rmdir
msvcr120.dll __crtIsPackagedApp
msvcr120.dll __crtCreateSymbolicLinkW
msvcr120.dll __crtGetFileInformationByHandleEx
msvcr120.dll __crtSetFileInformationByHandle
msvcr120.dll _calloc_crt
msvcr120.dll ??0_Condition_variable@details@Concurrency@@QEAA@XZ
msvcr120.dll ??1_Condition_variable@details@Concurrency@@QEAA@XZ
msvcr120.dll ?wait@_Condition_variable@details@Concurrency@@QEAAXAEAVcritical_section@3@@Z
msvcr120.dll ?wait_for@_Condition_variable@details@Concurrency@@QEAA_NAEAVcritical_section@3@I@Z
msvcr120.dll ?notify_one@_Condition_variable@details@Concurrency@@QEAAXXZ
msvcr120.dll ?notify_all@_Condition_variable@details@Concurrency@@QEAAXXZ
msvcr120.dll __crtSleep
msvcr120.dll _beginthreadex
msvcr120.dll _endthreadex
msvcr120.dll ?lock@critical_section@Concurrency@@QEAAXXZ
msvcr120.dll ?try_lock@critical_section@Concurrency@@QEAA_NXZ
msvcr120.dll ?try_lock_for@critical_section@Concurrency@@QEAA_NI@Z
msvcr120.dll ?unlock@critical_section@Concurrency@@QEAAXXZ
msvcr120.dll ?terminate@@YAXXZ
msvcr120.dll __crtFlsAlloc
msvcr120.dll __crtFlsFree
msvcr120.dll __crtFlsGetValue
msvcr120.dll __crtFlsSetValue
msvcr120.dll calloc
msvcr120.dll ??0operation_timed_out@Concurrency@@QEAA@XZ
msvcr120.dll ?ScheduleTask@CurrentScheduler@Concurrency@@SAXP6AXPEAX@Z0@Z
msvcr120.dll ??0invalid_link_target@Concurrency@@QEAA@PEBD@Z
msvcr120.dll ??0message_not_found@Concurrency@@QEAA@XZ
msvcr120.dll ?_Trace_agents@Concurrency@@YAXW4Agents_EventType@1@_JZZ
msvcr120.dll ??0bad_target@Concurrency@@QEAA@XZ
msvcr120.dll ??1_Scoped_lock@_ReentrantPPLLock@details@Concurrency@@QEAA@XZ
msvcr120.dll ??0_Scoped_lock@_ReentrantPPLLock@details@Concurrency@@QEAA@AEAV123@@Z
msvcr120.dll ??0_ReentrantPPLLock@details@Concurrency@@QEAA@XZ
msvcr120.dll ??1_Scoped_lock@_NonReentrantPPLLock@details@Concurrency@@QEAA@XZ
msvcr120.dll ??0_Scoped_lock@_NonReentrantPPLLock@details@Concurrency@@QEAA@AEAV123@@Z
msvcr120.dll ??0_NonReentrantPPLLock@details@Concurrency@@QEAA@XZ
msvcr120.dll ?_Yield@_Context@details@Concurrency@@SAXXZ
msvcr120.dll ?_UnderlyingYield@details@Concurrency@@YAXXZ
msvcr120.dll ?_SpinOnce@?$_SpinWait@$00@details@Concurrency@@QEAA_NXZ
msvcr120.dll ?GetNumberOfVirtualProcessors@CurrentScheduler@Concurrency@@SAIXZ
msvcr120.dll ?IsCurrentTaskCollectionCanceling@Context@Concurrency@@SA_NXZ
msvcr120.dll ??1_SpinLock@details@Concurrency@@QEAA@XZ
msvcr120.dll ??0_SpinLock@details@Concurrency@@QEAA@AECJ@Z
msvcr120.dll ?Log2@details@Concurrency@@YAK_K@Z
msvcr120.dll _lock
msvcr120.dll _unlock
msvcr120.dll __pctype_func
msvcr120.dll isupper
msvcr120.dll __crtGetLocaleInfoEx
msvcr120.dll islower
msvcr120.dll __crtLCMapStringW
msvcr120.dll isspace
msvcr120.dll tolower
msvcr120.dll memchr
msvcr120.dll sqrt
msvcr120.dll isdigit
msvcr120.dll isxdigit
msvcr120.dll isalnum
msvcr120.dll __crtCompareStringW
msvcr120.dll __C_specific_handler
msvcr120.dll __dllonexit
msvcr120.dll _onexit
msvcr120.dll __CppXcptFilter
msvcr120.dll _amsg_exit
msvcr120.dll _initterm
msvcr120.dll _initterm_e
msvcr120.dll __crt_debugger_hook
msvcr120.dll __crtUnhandledException
msvcr120.dll __crtTerminateProcess
msvcr120.dll __crtCapturePreviousContext
msvcr120.dll ?_type_info_dtor_internal_method@type_info@@QEAAXXZ
msvcr120.dll __clean_type_info_names_internal
msvcr120.dll _W_Getmonths
msvcr120.dll _W_Getdays
msvcr120.dll _Gettnames
msvcr120.dll _Getmonths
msvcr120.dll _Getdays
msvcr120.dll localeconv
msvcr120.dll ??0bad_cast@std@@QEAA@PEBD@Z
msvcr120.dll ??_V@YAXPEAX@Z
msvcr120.dll ??1exception@std@@UEAA@XZ
msvcr120.dll ??0exception@std@@QEAA@AEBV01@@Z
msvcr120.dll ??0exception@std@@QEAA@AEBQEBDH@Z
msvcr120.dll ??0exception@std@@QEAA@AEBQEBD@Z
msvcr120.dll ??0exception@std@@QEAA@XZ
msvcr120.dll memmove
msvcr120.dll strlen
msvcr120.dll memcpy
msvcr120.dll malloc
msvcr120.dll free
msvcr120.dll ___mb_cur_max_func
msvcr120.dll _purecall
msvcr120.dll rand_s
msvcr120.dll fputs
msvcr120.dll fputc
msvcr120.dll __iob_func
msvcr120.dll abort
msvcr120.dll logf
msvcr120.dll log
msvcr120.dll __crtInitializeCriticalSectionEx
msvcr120.dll ??3@YAXPEAX@Z
msvcr120.dll ??2@YAPEAX_K@Z
msvcr120.dll memset
msvcr120.dll _wrename
kernel32.dll GetCurrentProcessId
kernel32.dll QueryPerformanceCounter
kernel32.dll IsProcessorFeaturePresent
kernel32.dll IsDebuggerPresent
kernel32.dll GetStringTypeW
kernel32.dll GetSystemTimeAsFileTime
kernel32.dll GetExitCodeThread
kernel32.dll GetCurrentThreadId
kernel32.dll GetCurrentThread
kernel32.dll GetCurrentProcess
kernel32.dll WaitForSingleObject
kernel32.dll DuplicateHandle
kernel32.dll AreFileApisANSI
kernel32.dll CreateHardLinkW
kernel32.dll CopyFileW
kernel32.dll GetLastError
kernel32.dll CloseHandle
kernel32.dll GetFileInformationByHandle
kernel32.dll GetFileAttributesExW
kernel32.dll GetDiskFreeSpaceExW
kernel32.dll FindNextFileW
kernel32.dll FindFirstFileExW
kernel32.dll FindClose
kernel32.dll CreateFileW
kernel32.dll WideCharToMultiByte
kernel32.dll MultiByteToWideChar
kernel32.dll DecodePointer
kernel32.dll EncodePointer
kernel32.dll DeleteCriticalSection
kernel32.dll LeaveCriticalSection
kernel32.dll EnterCriticalSection
kernel32.dll DisableThreadLibraryCalls
