msvcrt.dll malloc
msvcrt.dll _initterm
msvcrt.dll _except_handler4_common
msvcrt.dll free
msvcrt.dll _XcptFilter
msvcrt.dll memcpy
msvcrt.dll memcmp
msvcrt.dll _amsg_exit
msvcrt.dll memset
ntdll.dll RtlAllocateHeap
ntdll.dll RtlInitUnicodeString
ntdll.dll NtQueryAttributesFile
ntdll.dll NtQuerySystemInformation
ntdll.dll NtSetThreadExecutionState
ntdll.dll RtlLocalTimeToSystemTime
ntdll.dll RtlFreeHeap
kernel32.dll Sleep
kernel32.dll UnhandledExceptionFilter
kernel32.dll SetUnhandledExceptionFilter
kernel32.dll GetCurrentProcess
kernel32.dll TerminateProcess
kernel32.dll QueryPerformanceCounter
kernel32.dll GetCurrentProcessId
kernel32.dll GetCurrentThreadId
kernel32.dll GetSystemTimeAsFileTime
kernel32.dll GetTickCount
ulib.dll ?SetBit@BITVECTOR@@QAEXKK@Z
ulib.dll ?ResetBit@BITVECTOR@@QAEXKK@Z
ulib.dll ??0OBJECT@@IAE@XZ
ulib.dll ??1OBJECT@@UAE@XZ
ulib.dll ?ComputeCountSet@BITVECTOR@@ABEKXZ
ulib.dll ?Initialize@CLASS_DESCRIPTOR@@QAEEPBD@Z
ulib.dll ??0CLASS_DESCRIPTOR@@QAE@XZ
ulib.dll ?Stricmp@WSTRING@@SGHPAG0@Z
ulib.dll ??1HMEM@@UAE@XZ
ulib.dll ?QueryWSTR@WSTRING@@QBEPAGKKPAGKE@Z
ulib.dll ?FreeLibraryHandle@SYSTEM@@SGXPAX@Z
ulib.dll ?QueryLibraryEntryPoint@SYSTEM@@SGP6GHXZPBVWSTRING@@0PAPAX@Z
ulib.dll ?Initialize@WSTRING@@QAEEPBGK@Z
ulib.dll ?Strcat@WSTRING@@QAEEPBV1@@Z
ulib.dll ?Initialize@WSTRING@@QAEEPBV1@KK@Z
ulib.dll ?Initialize@WSTRING@@QAEEPBDK@Z
ulib.dll ??1DSTRING@@UAE@XZ
ulib.dll ??0DSTRING@@QAE@XZ
ulib.dll ?Display@MESSAGE@@QAAEPBDZZ
ulib.dll ??0HMEM@@QAE@XZ
ulib.dll ?QuerySTR@WSTRING@@QBEPADKKPADKE@Z
ulib.dll ?Initialize@HMEM@@QAEEXZ
ulib.dll ??0FSTRING@@QAE@XZ
ulib.dll ?DebugDump@OBJECT@@UBEXE@Z
ulib.dll ?Compare@OBJECT@@UBEJPBV1@@Z
ulib.dll ??1FSTRING@@UAE@XZ
ulib.dll ?Stricmp@WSTRING@@QBEJPBV1@@Z
ufat.dll ??0EA_SET@@QAE@XZ
ufat.dll ??1EA_SET@@UAE@XZ
ufat.dll ?QueryNthCluster@FAT@@QBEKKK@Z
ufat.dll ?QueryEaSetClusterNumber@EA_HEADER@@QBEGG@Z
ufat.dll ?Read@EA_SET@@UAEEXZ
ufat.dll ?GetEa@EA_SET@@QAEPAU_EA@@KPAJPAE@Z
ufat.dll ??0CLUSTER_CHAIN@@QAE@XZ
ufat.dll ??1CLUSTER_CHAIN@@UAE@XZ
ufat.dll ?Initialize@CLUSTER_CHAIN@@QAEEPAVMEM@@PAVLOG_IO_DP_DRIVE@@PAVFAT_SA@@PBVFAT@@KK@Z
ufat.dll ?Initialize@FAT_DIRENT@@QAEEPAX@Z
ufat.dll ?Initialize@EA_HEADER@@QAEEPAVMEM@@PAVLOG_IO_DP_DRIVE@@PAVFAT_SA@@PBVFAT@@KK@Z
ufat.dll ?Initialize@EA_SET@@QAEEPAVMEM@@PAVLOG_IO_DP_DRIVE@@PAVFAT_SA@@PBVFAT@@KK@Z
ufat.dll ?Initialize@FILEDIR@@QAEEPAVMEM@@PAVLOG_IO_DP_DRIVE@@PAVFAT_SA@@PBVFAT@@K@Z
ufat.dll ?QueryLongName@FATDIR@@QAEEJPAVWSTRING@@@Z
ufat.dll ?QueryName@FAT_DIRENT@@QBEEPAVWSTRING@@@Z
ufat.dll ?QueryLastAccessTime@FAT_DIRENT@@QBEEPAT_LARGE_INTEGER@@@Z
ufat.dll ?IsValidLastAccessTime@FAT_DIRENT@@QBEEXZ
ufat.dll ?QueryCreationTime@FAT_DIRENT@@QBEEPAT_LARGE_INTEGER@@@Z
ufat.dll ?IsValidCreationTime@FAT_DIRENT@@QBEEXZ
ufat.dll ?QueryLastWriteTime@FAT_DIRENT@@QBEEPAT_LARGE_INTEGER@@@Z
ufat.dll ??1FILEDIR@@UAE@XZ
ufat.dll ??0FILEDIR@@QAE@XZ
ufat.dll ?QueryCensusAndRelocate@FAT_SA@@QAEEPAU_CENSUS_REPORT@@PAVINTSTACK@@PAE@Z
ufat.dll ?QueryFreeSectors@REAL_FAT_SA@@QBEKXZ
ufat.dll ?SearchForDirEntry@FATDIR@@QAEPAXPBVWSTRING@@@Z
ufat.dll ?Initialize@FAT_DIRENT@@QAEEPAXE@Z
ufat.dll ??1FAT_DIRENT@@UAE@XZ
ufat.dll ??0FAT_DIRENT@@QAE@XZ
ufat.dll ??1EA_HEADER@@UAE@XZ
ufat.dll ??0EA_HEADER@@QAE@XZ
ufat.dll ?Read@CLUSTER_CHAIN@@UAEEXZ
ufat.dll ??0REAL_FAT_SA@@QAE@XZ
ufat.dll ??1REAL_FAT_SA@@UAE@XZ
ufat.dll ?Initialize@REAL_FAT_SA@@UAEEPAVLOG_IO_DP_DRIVE@@PAVMESSAGE@@E@Z
ufat.dll ?Read@REAL_FAT_SA@@UAEEPAVMESSAGE@@@Z
ufat.dll ?Index12@FAT@@ABEKK@Z
untfs.dll ??1NTFS_UPCASE_FILE@@UAE@XZ
untfs.dll ??0NTFS_LOG_FILE@@QAE@XZ
untfs.dll ??1NTFS_LOG_FILE@@UAE@XZ
untfs.dll ?CreateElementaryStructures@NTFS_SA@@QAEEPAVNTFS_BITMAP@@KKKKPBVNUMBER_SET@@EEEEEKPAVMESSAGE@@PAUBIOS_PARAMETER_BLOCK@@PBVWSTRING@@E@Z
untfs.dll ?Initialize@NTFS_MFT_FILE@@QAEEW4FIX_LEVEL@@PAVLOG_IO_DP_DRIVE@@VBIG_INT@@KK2PAVNTFS_BITMAP@@PAVNTFS_UPCASE_TABLE@@PAVNTFS_ATTRIBUTE@@@Z
untfs.dll ?Initialize@NTFS_UPCASE_FILE@@QAEEW4FIX_LEVEL@@PAVNTFS_MASTER_FILE_TABLE@@@Z
untfs.dll ?QueryAttribute@NTFS_FILE_RECORD_SEGMENT@@QAEEPAVNTFS_ATTRIBUTE@@PAEKPBVWSTRING@@@Z
untfs.dll ?Initialize@NTFS_UPCASE_TABLE@@QAEEPAVNTFS_ATTRIBUTE@@PA_K@Z
untfs.dll ?Flush@NTFS_MFT_FILE@@QAEEXZ
untfs.dll ?Initialize@NTFS_LOG_FILE@@QAEEW4FIX_LEVEL@@PAVNTFS_MASTER_FILE_TABLE@@@Z
untfs.dll ??0NTFS_BITMAP_FILE@@QAE@XZ
untfs.dll ??1NTFS_BITMAP_FILE@@UAE@XZ
untfs.dll ?IsFree@NTFS_BITMAP@@QBEEVBIG_INT@@0@Z
untfs.dll ?Initialize@NTFS_BITMAP_FILE@@QAEEW4FIX_LEVEL@@PAVNTFS_MASTER_FILE_TABLE@@@Z
untfs.dll ?Write@NTFS_BITMAP@@QAEEPAVNTFS_ATTRIBUTE@@PAV1@@Z
untfs.dll ?QuerySectorsInElementaryStructures@NTFS_SA@@SGKPAVDP_DRIVE@@KKKKE@Z
untfs.dll ?WriteRemainingBootCode@NTFS_SA@@QAEEXZ
untfs.dll ?Initialize@NTFS_ATTRIBUTE@@QAEEPAVLOG_IO_DP_DRIVE@@KPBVNTFS_EXTENT_LIST@@VBIG_INT@@2KPBVWSTRING@@G@Z
untfs.dll ?AddExtent@NTFS_EXTENT_LIST@@QAEEVBIG_INT@@00@Z
untfs.dll ?Initialize@NTFS_EXTENT_LIST@@QAEEVBIG_INT@@0@Z
untfs.dll ??1NTFS_EXTENT_LIST@@UAE@XZ
untfs.dll ??0NTFS_EXTENT_LIST@@QAE@XZ
untfs.dll ?MakeNonresident@NTFS_ATTRIBUTE@@UAEEPAVNTFS_BITMAP@@@Z
untfs.dll ?InsertEntry@NTFS_INDEX_TREE@@QAEEKPAXU_MFT_SEGMENT_REFERENCE@@E@Z
untfs.dll ?AddFileNameAttribute@NTFS_FILE_RECORD_SEGMENT@@QAEEPAU_FILE_NAME@@@Z
untfs.dll ?QueryDuplicatedInformation@NTFS_FILE_RECORD_SEGMENT@@QAEEPAU_DUPLICATED_INFORMATION@@@Z
untfs.dll ?AddSecurityDescriptor@NTFS_FILE_RECORD_SEGMENT@@QAEEW4_CANNED_SECURITY_TYPE@@PAVNTFS_BITMAP@@@Z
untfs.dll ?Create@NTFS_FILE_RECORD_SEGMENT@@QAEEPBU_STANDARD_INFORMATION@@G@Z
untfs.dll NtfsUpcaseCompare
untfs.dll ?Initialize@NTFS_INDEX_TREE@@QAEEKPAVLOG_IO_DP_DRIVE@@KPAVNTFS_BITMAP@@PAVNTFS_UPCASE_TABLE@@KKKPBVWSTRING@@@Z
untfs.dll ??0NTFS_UPCASE_FILE@@QAE@XZ
untfs.dll ??0NTFS_BITMAP@@QAE@XZ
untfs.dll ??1NTFS_BITMAP@@UAE@XZ
untfs.dll ??0NTFS_ATTRIBUTE@@QAE@XZ
untfs.dll ??1NTFS_ATTRIBUTE@@UAE@XZ
untfs.dll ?Initialize@NTFS_ATTRIBUTE@@QAEEPAVLOG_IO_DP_DRIVE@@KPBXKKPBVWSTRING@@G@Z
untfs.dll ?InsertIntoFile@NTFS_ATTRIBUTE@@UAEEPAVNTFS_FILE_RECORD_SEGMENT@@PAVNTFS_BITMAP@@@Z
untfs.dll ?IsAttributePresent@NTFS_FILE_RECORD_SEGMENT@@QAEEKPBVWSTRING@@E@Z
untfs.dll ?AllocateFileRecordSegment@NTFS_MASTER_FILE_TABLE@@QAEEPAVBIG_INT@@E@Z
untfs.dll ?Extend@NTFS_MASTER_FILE_TABLE@@QAEEK@Z
untfs.dll ??0NTFS_SA@@QAE@XZ
untfs.dll ??1NTFS_SA@@UAE@XZ
untfs.dll ??0NTFS_UPCASE_TABLE@@QAE@XZ
untfs.dll ??1NTFS_UPCASE_TABLE@@UAE@XZ
untfs.dll ??0NTFS_MFT_FILE@@QAE@XZ
untfs.dll ??1NTFS_MFT_FILE@@UAE@XZ
untfs.dll ?QueryDefaultClustersPerIndexBuffer@NTFS_SA@@SGKPBVDP_DRIVE@@K@Z
untfs.dll ?Initialize@NTFS_SA@@QAEEPAVLOG_IO_DP_DRIVE@@PAVMESSAGE@@VBIG_INT@@2KE@Z
untfs.dll ??0NTFS_FILE_RECORD_SEGMENT@@QAE@XZ
untfs.dll ??1NTFS_FILE_RECORD_SEGMENT@@UAE@XZ
untfs.dll ??0NTFS_INDEX_TREE@@QAE@XZ
untfs.dll ??1NTFS_INDEX_TREE@@UAE@XZ
untfs.dll ?Initialize@NTFS_FILE_RECORD_SEGMENT@@QAEEW4FIX_LEVEL@@VBIG_INT@@PAVNTFS_MFT_FILE@@@Z
untfs.dll ?Read@NTFS_FRS_STRUCTURE@@UAEEXZ
untfs.dll ?Initialize@NTFS_INDEX_TREE@@QAEEPAVLOG_IO_DP_DRIVE@@KPAVNTFS_BITMAP@@PAVNTFS_UPCASE_TABLE@@KPAVNTFS_FILE_RECORD_SEGMENT@@PBVWSTRING@@@Z
untfs.dll ?Save@NTFS_INDEX_TREE@@QAEEPAVNTFS_FILE_RECORD_SEGMENT@@@Z
untfs.dll ?Flush@NTFS_FILE_RECORD_SEGMENT@@QAEEPAVNTFS_BITMAP@@PAVNTFS_INDEX_TREE@@E@Z
untfs.dll ?Initialize@NTFS_BITMAP@@QAEEVBIG_INT@@EPAVLOG_IO_DP_DRIVE@@KE@Z
ifsutil.dll ??0READ_WRITE_CACHE@@QAE@XZ
ifsutil.dll ?Initialize@READ_WRITE_CACHE@@QAEEPAVIO_DP_DRIVE@@KE@Z
ifsutil.dll ?SetCache@IO_DP_DRIVE@@QAEXPAVDRIVE_CACHE@@@Z
ifsutil.dll RestoreThreadExecutionState
ifsutil.dll ??0LOG_IO_DP_DRIVE@@QAE@XZ
ifsutil.dll ?Initialize@LOG_IO_DP_DRIVE@@QAEEPBVWSTRING@@PAVMESSAGE@@E@Z
ifsutil.dll ?Lock@IO_DP_DRIVE@@QAEEXZ
ifsutil.dll ?DismountVolume@IFS_SYSTEM@@SGEPBVWSTRING@@@Z
ifsutil.dll ?Remove@NUMBER_SET@@QAEEVBIG_INT@@0@Z
ifsutil.dll ?Add@NUMBER_SET@@QAEEVBIG_INT@@0@Z
ifsutil.dll ??0NUMBER_SET@@QAE@XZ
ifsutil.dll ??1NUMBER_SET@@UAE@XZ
ifsutil.dll ??0INTSTACK@@QAE@XZ
ifsutil.dll ?Write@IO_DP_DRIVE@@QAEEVBIG_INT@@KPAX@Z
ifsutil.dll ?Push@INTSTACK@@QAEEVBIG_INT@@@Z
ifsutil.dll ?Initialize@INTSTACK@@QAEEXZ
ifsutil.dll ??1INTSTACK@@UAE@XZ
ifsutil.dll ?Initialize@NUMBER_SET@@QAEEXZ
