msvcrt.dll time
msvcrt.dll _lseek
msvcrt.dll _XcptFilter
msvcrt.dll _amsg_exit
msvcrt.dll free
msvcrt.dll _write
msvcrt.dll __CxxFrameHandler3
msvcrt.dll memcpy_s
msvcrt.dll _close
msvcrt.dll _initterm
msvcrt.dll wcstok
msvcrt.dll _lock
msvcrt.dll _unlock
msvcrt.dll __dllonexit
msvcrt.dll _onexit
msvcrt.dll _errno
msvcrt.dll malloc
msvcrt.dll memset
msvcrt.dll memcpy
msvcrt.dll _wtol
msvcrt.dll _read
msvcrt.dll _wremove
msvcrt.dll srand
msvcrt.dll _wopen
msvcrt.dll _get_osfhandle
msvcrt.dll __C_specific_handler
msvcrt.dll _wcsnicmp
msvcrt.dll wcstoul
msvcrt.dll _purecall
msvcrt.dll wcsstr
msvcrt.dll wcstok_s
msvcrt.dll _wcsicmp
msvcrt.dll _vsnwprintf
msvcrt.dll rand
msvcrt.dll wcscmp
ntdll.dll EtwEventWriteTransfer
ntdll.dll EtwEventSetInformation
ntdll.dll EtwEventRegister
ntdll.dll EtwEventUnregister
ntdll.dll NtClose
ntdll.dll NtQueryInformationToken
ntdll.dll NtOpenProcessToken
ntdll.dll NtOpenThreadToken
ntdll.dll WinSqmAddToStream
ntdll.dll EtwLogTraceEvent
ntdll.dll RtlCaptureContext
ntdll.dll RtlLookupFunctionEntry
ntdll.dll RtlVirtualUnwind
kernel32.dll CreateMutexExW
kernel32.dll InitOnceBeginInitialize
kernel32.dll OpenSemaphoreW
kernel32.dll WaitForSingleObjectEx
kernel32.dll ReleaseMutex
kernel32.dll ReleaseSemaphore
kernel32.dll IsDebuggerPresent
kernel32.dll DebugBreak
kernel32.dll GetModuleFileNameA
kernel32.dll GetModuleHandleExW
kernel32.dll LocalAlloc
kernel32.dll LoadLibraryExW
kernel32.dll CreateSemaphoreExW
kernel32.dll CreateActCtxW
kernel32.dll DeactivateActCtx
kernel32.dll ActivateActCtx
kernel32.dll CompareStringOrdinal
kernel32.dll GetLastError
kernel32.dll FreeLibrary
kernel32.dll LoadLibraryW
kernel32.dll GetSystemTimeAsFileTime
kernel32.dll SetEvent
kernel32.dll WaitForSingleObject
kernel32.dll CloseHandle
kernel32.dll DeleteCriticalSection
kernel32.dll EnterCriticalSection
kernel32.dll InitOnceComplete
kernel32.dll ResolveDelayLoadedAPI
kernel32.dll DelayLoadFailureHook
kernel32.dll ReleaseActCtx
kernel32.dll LeaveCriticalSection
kernel32.dll ExpandEnvironmentStringsW
kernel32.dll GetProcAddress
kernel32.dll CreateEventW
kernel32.dll CreateThread
kernel32.dll DisableThreadLibraryCalls
kernel32.dll FindNextFileW
kernel32.dll FindClose
kernel32.dll CreateFileW
kernel32.dll FileTimeToSystemTime
kernel32.dll SystemTimeToTzSpecificLocalTime
kernel32.dll GetDateFormatW
kernel32.dll GetTimeFormatW
kernel32.dll CompareFileTime
kernel32.dll GetProcessHeap
kernel32.dll HeapAlloc
kernel32.dll HeapFree
kernel32.dll CancelIoEx
kernel32.dll WaitForMultipleObjects
kernel32.dll CreateNamedPipeW
kernel32.dll LocalFree
kernel32.dll ConnectNamedPipe
kernel32.dll GetOverlappedResult
kernel32.dll ReadFile
kernel32.dll WriteFile
kernel32.dll FlushFileBuffers
kernel32.dll DisconnectNamedPipe
kernel32.dll CopyFileExW
kernel32.dll DeleteFileW
kernel32.dll FindResourceW
kernel32.dll TerminateProcess
kernel32.dll SetUnhandledExceptionFilter
kernel32.dll UnhandledExceptionFilter
kernel32.dll GetTickCount
kernel32.dll GetCurrentThreadId
kernel32.dll GetCurrentProcessId
kernel32.dll QueryPerformanceCounter
kernel32.dll Sleep
kernel32.dll FileTimeToDosDateTime
kernel32.dll GetTempPath2W
kernel32.dll GetTempFileNameW
kernel32.dll WideCharToMultiByte
kernel32.dll FileTimeToLocalFileTime
kernel32.dll GetFileInformationByHandle
kernel32.dll MultiByteToWideChar
kernel32.dll GetModuleFileNameW
kernel32.dll OutputDebugStringW
kernel32.dll FormatMessageW
kernel32.dll GetUserPreferredUILanguages
kernel32.dll GetModuleHandleW
kernel32.dll GetVersionExW
kernel32.dll RemoveDirectoryW
kernel32.dll SetLastError
kernel32.dll FindFirstFileExW
kernel32.dll FindFirstFileW
kernel32.dll InitializeCriticalSection
kernel32.dll GetUserDefaultUILanguage
kernel32.dll GetThreadUILanguage
kernel32.dll GetCurrentProcess
kernel32.dll GetCurrentThread
kernel32.dll GlobalFree
kernel32.dll GlobalUnlock
kernel32.dll GlobalLock
kernel32.dll GlobalAlloc
kernel32.dll SizeofResource
kernel32.dll LockResource
kernel32.dll LoadResource
advapi32.dll OpenProcessToken
advapi32.dll EventWriteTransfer
advapi32.dll EventRegister
advapi32.dll EventUnregister
advapi32.dll ConvertStringSecurityDescriptorToSecurityDescriptorW
advapi32.dll RegOpenKeyExW
advapi32.dll CheckTokenMembership
advapi32.dll CreateWellKnownSid
advapi32.dll RegSetValueExW
advapi32.dll RegCreateKeyExW
advapi32.dll RegQueryValueExW
advapi32.dll ConvertSidToStringSidW
advapi32.dll GetTokenInformation
advapi32.dll OpenThreadToken
advapi32.dll RegCloseKey
advapi32.dll RegLoadMUIStringW
shlwapi.dll SHStrDupW
shell32.dll SHParseDisplayName
shell32.dll SHBindToObject
shell32.dll ShellExecuteW
shell32.dll SHPathPrepareForWriteW
shell32.dll ShellExecuteExW
ole32.dll CoTaskMemFree
ole32.dll CoCreateInstance
ole32.dll CoInitialize
ole32.dll CoUninitialize
ole32.dll CreateStreamOnHGlobal
ole32.dll StringFromGUID2
oleaut32.dll SafeArrayDestroy
oleaut32.dll SafeArrayUnaccessData
oleaut32.dll SafeArrayCreateVector
oleaut32.dll SafeArrayAccessData
oleaut32.dll DispGetIDsOfNames
oleaut32.dll LoadTypeLib
oleaut32.dll SysAllocStringLen
oleaut32.dll VariantClear
oleaut32.dll VariantChangeType
oleaut32.dll VariantInit
oleaut32.dll SysAllocString
oleaut32.dll SysFreeString
rpcrt4.dll UuidCreate
gdi32.dll DeleteDC
gdi32.dll CreateDIBSection
gdi32.dll SelectObject
gdi32.dll CreateCompatibleDC
gdi32.dll DeleteObject
user32.dll DeleteMenu
user32.dll SetMenuItemInfoW
user32.dll CheckMenuRadioItem
user32.dll TrackPopupMenuEx
user32.dll DestroyMenu
user32.dll GetMenuItemCount
user32.dll GetSystemMetrics
user32.dll DestroyIcon
user32.dll PostMessageW
user32.dll SetFocus
user32.dll LoadCursorW
user32.dll SetCursor
user32.dll GetWindowLongW
user32.dll LoadImageW
user32.dll GetClientRect
user32.dll MapWindowPoints
user32.dll GetWindowLongPtrW
user32.dll GetSysColor
user32.dll GetFocus
user32.dll ReleaseDC
user32.dll EnableMenuItem
user32.dll SetMenuDefaultItem
user32.dll GetSubMenu
user32.dll LoadMenuW
user32.dll LoadStringW
user32.dll ShowWindow
user32.dll GetParent
user32.dll SendMessageW
user32.dll SetWindowLongPtrW
user32.dll GetDC
user32.dll IsIconic
user32.dll CreateWindowExW
user32.dll UpdateWindow
dui70.dll ?IsDescendent@XProvider@DirectUI@@UEAAJPEAVElement@2@PEA_N@Z
dui70.dll ?GetDesiredSize@XProvider@DirectUI@@UEAAJHHPEAUtagSIZE@@@Z
dui70.dll ?SetParameter@XProvider@DirectUI@@UEAAJAEBU_GUID@@PEAX@Z
dui70.dll ?AddRef@XProvider@DirectUI@@UEAAKXZ
dui70.dll ?SetEnabled@Element@DirectUI@@QEAAJ_N@Z
dui70.dll ?GetSelection@Selector@DirectUI@@QEAAPEAVElement@2@XZ
dui70.dll ?CreateXBaby@XProvider@DirectUI@@UEAAJPEAVIXElementCP@2@PEAUHWND__@@PEAVElement@2@PEAKPEAPEAUIXBaby@2@@Z
dui70.dll ?SetButtonClassAcceptsEnterKey@XProvider@DirectUI@@UEAAJ_N@Z
dui70.dll ?SelectionChange@Selector@DirectUI@@SA?AVUID@@XZ
dui70.dll ?SetSelected@Element@DirectUI@@QEAAJ_N@Z
dui70.dll ?OnNotify@HWNDHost@DirectUI@@UEAA_NI_K_JPEA_J@Z
dui70.dll ?OnInput@HWNDHost@DirectUI@@UEAAXPEAUInputEvent@2@@Z
dui70.dll ?OnPropertyChanged@HWNDHost@DirectUI@@UEAAXPEBUPropertyInfo@2@HPEAVValue@2@1@Z
dui70.dll ??1HWNDHost@DirectUI@@UEAA@XZ
dui70.dll ??0HWNDHost@DirectUI@@QEAA@XZ
dui70.dll ?GetClassInfoPtr@HWNDHost@DirectUI@@SAPEAUIClassInfo@2@XZ
dui70.dll ?Initialize@HWNDHost@DirectUI@@QEAAJIIPEAVElement@2@PEAK@Z
dui70.dll ?Register@HWNDHost@DirectUI@@SAJXZ
dui70.dll ??0Element@DirectUI@@QEAA@XZ
dui70.dll ?Initialize@Element@DirectUI@@QEAAJIPEAV12@PEAK@Z
dui70.dll ?OnPropertyChanged@Element@DirectUI@@UEAAXPEBUPropertyInfo@2@HPEAVValue@2@1@Z
dui70.dll ?OnInput@Element@DirectUI@@UEAAXPEAUInputEvent@2@@Z
dui70.dll ?OnDestroy@Element@DirectUI@@UEAAXXZ
dui70.dll ?OnEvent@Element@DirectUI@@UEAAXPEAUEvent@2@@Z
dui70.dll ?Paint@Element@DirectUI@@UEAAXPEAUHDC__@@PEBUtagRECT@@1PEAU4@2@Z
dui70.dll ?GetContentSize@Element@DirectUI@@UEAA?AUtagSIZE@@HHPEAVSurface@2@@Z
dui70.dll ?SetKeyFocus@Element@DirectUI@@UEAAXXZ
dui70.dll ?MessageCallback@Element@DirectUI@@UEAAIPEAUtagGMSG@@@Z
dui70.dll ?OnHosted@Element@DirectUI@@MEAAXPEAV12@@Z
dui70.dll ?OnUnHosted@Element@DirectUI@@MEAAXPEAV12@@Z
dui70.dll ?GetKeyFocused@Element@DirectUI@@UEAA_NXZ
dui70.dll ?GetAccessibleImpl@Element@DirectUI@@UEAAJPEAPEAUIAccessible@@@Z
dui70.dll ?DefaultAction@Element@DirectUI@@UEAAJXZ
dui70.dll ??1Element@DirectUI@@UEAA@XZ
dui70.dll ??1CCListView@DirectUI@@UEAA@XZ
dui70.dll ?AssertPIZeroRef@ClassInfoBase@DirectUI@@UEBAXXZ
dui70.dll ?GetChildren@ClassInfoBase@DirectUI@@UEBAHXZ
dui70.dll ?RemoveChild@ClassInfoBase@DirectUI@@UEAAXXZ
dui70.dll ?AddChild@ClassInfoBase@DirectUI@@UEAAXXZ
dui70.dll ?IsGlobal@ClassInfoBase@DirectUI@@UEBA_NXZ
dui70.dll ?GetModule@ClassInfoBase@DirectUI@@UEBAPEAUHINSTANCE__@@XZ
dui70.dll ?IsSubclassOf@ClassInfoBase@DirectUI@@UEBA_NPEAUIClassInfo@2@@Z
dui70.dll ?IsValidProperty@ClassInfoBase@DirectUI@@UEBA_NPEBUPropertyInfo@2@@Z
dui70.dll ?GetName@ClassInfoBase@DirectUI@@UEBAPEBGXZ
dui70.dll ?GetGlobalIndex@ClassInfoBase@DirectUI@@UEBAIXZ
dui70.dll ?GetPICount@ClassInfoBase@DirectUI@@UEBAIXZ
dui70.dll ?GetByClassIndex@ClassInfoBase@DirectUI@@UEAAPEBUPropertyInfo@2@I@Z
dui70.dll ?EnumPropertyInfo@ClassInfoBase@DirectUI@@UEAAPEBUPropertyInfo@2@I@Z
dui70.dll ?Release@ClassInfoBase@DirectUI@@UEAAHXZ
dui70.dll ?AddRef@ClassInfoBase@DirectUI@@UEAAXXZ
dui70.dll ?PostCreate@CCBase@DirectUI@@MEAAXPEAUHWND__@@@Z
dui70.dll ?OnReceivedDialogFocus@CCBase@DirectUI@@UEAA_NPEAUIDialogElement@2@@Z
dui70.dll ?OnLostDialogFocus@CCBase@DirectUI@@UEAA_NPEAUIDialogElement@2@@Z
dui70.dll ?OnCustomDraw@CCBase@DirectUI@@UEAA_NPEAUtagNMCUSTOMDRAWINFO@@PEA_J@Z
dui70.dll ?EraseBkgnd@HWNDHost@DirectUI@@MEAA_NPEAUHDC__@@PEA_J@Z
dui70.dll ?SetWindowDirection@HWNDHost@DirectUI@@UEAAXPEAUHWND__@@@Z
dui70.dll ?OnWindowStyleChanged@HWNDHost@DirectUI@@UEAAX_KPEBUtagSTYLESTRUCT@@@Z
dui70.dll ?OnCtrlThemeChanged@HWNDHost@DirectUI@@UEAA_NI_K_JPEA_J@Z
dui70.dll ?OnSinkThemeChanged@HWNDHost@DirectUI@@UEAA_NI_K_JPEA_J@Z
dui70.dll ?OnSysChar@HWNDHost@DirectUI@@UEAA_NG@Z
dui70.dll ?OnMessage@HWNDHost@DirectUI@@UEAA_NI_K_JPEA_J@Z
dui70.dll ?OnNotify@CCBase@DirectUI@@UEAA_NI_K_JPEA_J@Z
dui70.dll ?GetUiaFocusDelegate@Element@DirectUI@@UEAAPEAV12@XZ
dui70.dll ?HandleUiaEventListener@Element@DirectUI@@UEAAXPEAUEvent@2@@Z
dui70.dll ?HandleUiaPropertyChangingListener@Element@DirectUI@@UEAAXPEBUPropertyInfo@2@@Z
dui70.dll ?HandleUiaPropertyListener@Element@DirectUI@@UEAAXPEBUPropertyInfo@2@HPEAVValue@2@1@Z
dui70.dll ?HandleUiaDestroyListener@Element@DirectUI@@UEAAXXZ
dui70.dll ?GetElementProviderImpl@Element@DirectUI@@UEAAJPEAVInvokeHelper@2@PEAPEAVElementProvider@2@@Z
dui70.dll ?GetUIAElementProvider@Element@DirectUI@@UEAAJAEBU_GUID@@PEAPEAX@Z
dui70.dll ?DefaultAction@CCBase@DirectUI@@UEAAJXZ
dui70.dll ?GetAccessibleImpl@HWNDHost@DirectUI@@UEAAJPEAPEAUIAccessible@@@Z
dui70.dll ?GetClassInfoW@CCListView@DirectUI@@UEAAPEAUIClassInfo@2@XZ
dui70.dll ?SetDefaultButtonTracking@XProvider@DirectUI@@UEAAJ_N@Z
dui70.dll ?RemoveTooltip@Element@DirectUI@@MEAAXPEAV12@@Z
dui70.dll ?ActivateTooltip@Element@DirectUI@@MEAAXPEAV12@K@Z
dui70.dll ?UpdateTooltip@Element@DirectUI@@MEAAXPEAV12@@Z
dui70.dll ?OnUnHosted@HWNDHost@DirectUI@@MEAAXPEAVElement@2@@Z
dui70.dll ?OnHosted@HWNDHost@DirectUI@@MEAAXPEAVElement@2@@Z
dui70.dll ?_SelfLayoutUpdateDesiredSize@Element@DirectUI@@MEAA?AUtagSIZE@@HHPEAVSurface@2@@Z
dui70.dll ?_SelfLayoutDoLayout@Element@DirectUI@@MEAAXHH@Z
dui70.dll ?GetImmersiveFocusRectOffsets@Element@DirectUI@@UEAAXPEAUtagRECT@@@Z
dui70.dll ?QueryInterface@Element@DirectUI@@UEAAJAEBU_GUID@@PEAPEAX@Z
dui70.dll ?MessageCallback@HWNDHost@DirectUI@@UEAAIPEAUtagGMSG@@@Z
dui70.dll ?RemoveBehavior@Element@DirectUI@@UEAAJPEAUIDuiBehavior@@@Z
dui70.dll ?AddBehavior@Element@DirectUI@@UEAAJPEAUIDuiBehavior@@@Z
dui70.dll ?SetKeyFocus@HWNDHost@DirectUI@@UEAAXXZ
dui70.dll ?EnsureVisible@Element@DirectUI@@UEAA_NHHHH@Z
dui70.dll ?GetAdjacent@Element@DirectUI@@UEAAPEAV12@PEAV12@HPEBUNavReference@2@K@Z
dui70.dll ?Remove@Element@DirectUI@@UEAAJPEAPEAV12@I@Z
dui70.dll ?Insert@Element@DirectUI@@UEAAJPEAPEAV12@II@Z
dui70.dll ?Add@Element@DirectUI@@UEAAJPEAPEAV12@I@Z
dui70.dll ?Paint@HWNDHost@DirectUI@@UEAAXPEAUHDC__@@PEBUtagRECT@@1PEAU4@2@Z
dui70.dll ?SetHandleEnterKey@XProvider@DirectUI@@IEAAX_N@Z
dui70.dll ?CreateDUI@XProvider@DirectUI@@UEAAJPEAVIXElementCP@2@PEAPEAUHWND__@@@Z
dui70.dll ?GetRoot@XProvider@DirectUI@@IEAAPEAVElement@2@XZ
dui70.dll ?Initialize@XProvider@DirectUI@@QEAAJPEAVElement@2@PEAVIXProviderCP@2@@Z
dui70.dll ?Create@XResourceProvider@DirectUI@@SAJPEAUHINSTANCE__@@PEBG11PEAPEAV12@@Z
dui70.dll ?QueryInterface@XProvider@DirectUI@@UEAAJAEBU_GUID@@PEAPEAX@Z
dui70.dll ??1XProvider@DirectUI@@UEAA@XZ
dui70.dll ??0XProvider@DirectUI@@QEAA@XZ
dui70.dll ?GetStringNull@Value@DirectUI@@SAPEAV12@XZ
dui70.dll ?SetActive@Element@DirectUI@@QEAAJH@Z
dui70.dll ?GetValue@Element@DirectUI@@QEAAPEAVValue@2@PEBUPropertyInfo@2@HPEAUUpdateCache@2@@Z
dui70.dll ?GetUnset@Value@DirectUI@@SAPEAV12@XZ
dui70.dll ?GetAtomZero@Value@DirectUI@@SAPEAV12@XZ
dui70.dll ?Register@Element@DirectUI@@SAJXZ
dui70.dll ?GetClassInfoPtr@Element@DirectUI@@SAPEAUIClassInfo@2@XZ
dui70.dll InitProcessPriv
dui70.dll ?OnEvent@HWNDHost@DirectUI@@UEAAXPEAUEvent@2@@Z
dui70.dll ?OnDestroy@HWNDHost@DirectUI@@UEAAXXZ
dui70.dll ?OnMouseFocusMoved@Element@DirectUI@@UEAAXPEAV12@0@Z
dui70.dll ?OnKeyFocusMoved@Element@DirectUI@@UEAAXPEAV12@0@Z
dui70.dll ?OnInput@CCBase@DirectUI@@UEAAXPEAUInputEvent@2@@Z
dui70.dll ?OnGroupChanged@Element@DirectUI@@UEAAXH_N@Z
dui70.dll ?OnPropertyChanged@Element@DirectUI@@UEAAXPEAUPropertyInfo@2@HPEAVValue@2@1@Z
dui70.dll ?OnPropertyChanged@CCBase@DirectUI@@UEAAXPEBUPropertyInfo@2@HPEAVValue@2@1@Z
dui70.dll ?OnPropertyChanging@Element@DirectUI@@UEAA_NPEAUPropertyInfo@2@HPEAVValue@2@1@Z
dui70.dll ?OnPropertyChanging@Element@DirectUI@@UEAA_NPEBUPropertyInfo@2@HPEAVValue@2@1@Z
dui70.dll ?GetContentStringAsDisplayed@Element@DirectUI@@UEAAPEBGPEAPEAVValue@2@@Z
dui70.dll ?IsContentProtected@Element@DirectUI@@UEAA_NXZ
dui70.dll ?SetRegisteredDefaultButton@XProvider@DirectUI@@UEAAJPEAVElement@2@@Z
dui70.dll ?ClickDefaultButton@XProvider@DirectUI@@UEAAHXZ
dui70.dll ?ForceThemeChange@XProvider@DirectUI@@UEAAJ_K_J@Z
dui70.dll ?GetHostedElementID@XProvider@DirectUI@@UEAAJPEAG@Z
dui70.dll ?FindElementWithShortcutAndDoDefaultAction@XProvider@DirectUI@@UEAAHGH@Z
dui70.dll ?CanSetFocus@XProvider@DirectUI@@UEAAJPEA_N@Z
dui70.dll ?Navigate@XProvider@DirectUI@@UEAAJHPEA_N@Z
dui70.dll ?IsRTLReading@Element@DirectUI@@UEAA_NXZ
dui70.dll ??1ClassInfoBase@DirectUI@@UEAA@XZ
dui70.dll ??0ClassInfoBase@DirectUI@@QEAA@XZ
dui70.dll ??0CCListView@DirectUI@@QEAA@XZ
dui70.dll ?GetClassInfoPtr@HWNDElement@DirectUI@@SAPEAUIClassInfo@2@XZ
dui70.dll ?Initialize@ClassInfoBase@DirectUI@@QEAAJPEAUHINSTANCE__@@PEBG_NPEBQEBUPropertyInfo@2@I@Z
dui70.dll ?Register@ClassInfoBase@DirectUI@@QEAAJXZ
dui70.dll ?ClassExist@ClassInfoBase@DirectUI@@SA_NPEAPEAUIClassInfo@2@PEBQEBUPropertyInfo@2@IPEAU32@PEAUHINSTANCE__@@PEBG_N@Z
dui70.dll ??1CritSecLock@DirectUI@@QEAA@XZ
dui70.dll ?GetFactoryLock@Element@DirectUI@@SAPEAU_RTL_CRITICAL_SECTION@@XZ
dui70.dll ?Register@HWNDElement@DirectUI@@SAJXZ
dui70.dll ?OnAdjustWindowSize@HWNDHost@DirectUI@@UEAAHHHI@Z
dui70.dll ?GetHWND@HWNDHost@DirectUI@@UEAAPEAUHWND__@@XZ
dui70.dll ?SetWinStyle@CCBase@DirectUI@@QEAAJH@Z
dui70.dll ?Destroy@Element@DirectUI@@QEAAJ_N@Z
dui70.dll ?Initialize@CCListView@DirectUI@@QEAAJIPEAVElement@2@PEAK@Z
dui70.dll ?CreateHWND@CCBase@DirectUI@@UEAAPEAUHWND__@@PEAU3@@Z
dui70.dll ?SetAccDesc@Element@DirectUI@@QEAAJPEBG@Z
dui70.dll ?ContentProp@Element@DirectUI@@SAPEBUPropertyInfo@2@XZ
dui70.dll ?CreateGraphic@Value@DirectUI@@SAPEAV12@PEBGGGPEAUHINSTANCE__@@_N2@Z
dui70.dll ?SetID@Element@DirectUI@@QEAAJPEBG@Z
dui70.dll ?SetValue@Element@DirectUI@@QEAAJP6APEBUPropertyInfo@2@XZHPEAVValue@2@@Z
dui70.dll ?Release@Value@DirectUI@@QEAAXXZ
dui70.dll ?Create@DUIXmlParser@DirectUI@@SAJPEAPEAV12@P6APEAVValue@2@PEBGPEAX@Z2P6AX11H2@Z2@Z
dui70.dll ?SetXMLFromResource@DUIXmlParser@DirectUI@@QEAAJIPEAUHINSTANCE__@@0@Z
dui70.dll ?Destroy@DUIXmlParser@DirectUI@@QEAAXXZ
dui70.dll ?Click@Button@DirectUI@@SA?AVUID@@XZ
dui70.dll ?Insert@Element@DirectUI@@QEAAJPEAV12@I@Z
dui70.dll ?Add@Element@DirectUI@@QEAAJPEAV12@@Z
dui70.dll ?CreateElement@DUIXmlParser@DirectUI@@QEAAJPEBGPEAVElement@2@1PEAKPEAPEAV32@@Z
dui70.dll ?SetContentString@Element@DirectUI@@QEAAJPEBG@Z
dui70.dll ?RemoveLocalValue@Element@DirectUI@@QEAAJP6APEBUPropertyInfo@2@XZ@Z
dui70.dll ?HeightProp@Element@DirectUI@@SAPEBUPropertyInfo@2@XZ
dui70.dll ?SetHeight@Element@DirectUI@@QEAAJH@Z
dui70.dll ?SetVisible@Element@DirectUI@@QEAAJ_N@Z
dui70.dll StrToID
dui70.dll ?FindDescendent@Element@DirectUI@@QEAAPEAV12@G@Z
dui70.dll ?SetFocus@XProvider@DirectUI@@UEAAJPEAVElement@2@@Z
dui70.dll InitThread
dui70.dll UnInitProcessPriv
dui70.dll UnInitThread
dui70.dll ?Init@NavReference@DirectUI@@QEAAXPEAVElement@2@PEAUtagRECT@@@Z
dui70.dll ?GetKeyFocused@HWNDHost@DirectUI@@UEAA_NXZ
dui70.dll ?Remove@Element@DirectUI@@QEAAJPEAV12@@Z
dui70.dll ?GetChildren@Element@DirectUI@@QEAAPEAV?$DynamicArray@PEAVElement@DirectUI@@$0A@@2@PEAPEAVValue@2@@Z
uxtheme.dll SetWindowTheme
secur32.dll GetUserNameExW
wer.dll WerpSetDefaultUserConsent
