msvcrt.dll memcmp
msvcrt.dll _initterm
msvcrt.dll __CxxFrameHandler3
msvcrt.dll ??_V@YAXPAX@Z
msvcrt.dll _except_handler4_common
msvcrt.dll _onexit
msvcrt.dll __dllonexit
msvcrt.dll _unlock
msvcrt.dll _lock
msvcrt.dll ??1type_info@@UAE@XZ
msvcrt.dll memset
msvcrt.dll _amsg_exit
msvcrt.dll _XcptFilter
msvcrt.dll memmove
msvcrt.dll memcpy
msvcrt.dll _CxxThrowException
msvcrt.dll ?what@exception@@UBEPBDXZ
msvcrt.dll ??1exception@@UAE@XZ
msvcrt.dll ??0exception@@QAE@ABV0@@Z
msvcrt.dll ??0exception@@QAE@ABQBDH@Z
msvcrt.dll ??0exception@@QAE@ABQBD@Z
msvcrt.dll _purecall
msvcrt.dll wcschr
msvcrt.dll malloc
msvcrt.dll wcscpy_s
msvcrt.dll free
msvcrt.dll iswalpha
msvcrt.dll ?_set_se_translator@@YAP6AXIPAU_EXCEPTION_POINTERS@@@ZP6AXI0@Z@Z
msvcrt.dll _vsnprintf
msvcrt.dll _wcsicmp
msvcrt.dll _vsnwprintf
msvcrt.dll _wtol
msvcrt.dll wcsncmp
msvcrt.dll swscanf
msvcrt.dll _wtoi
msvcrt.dll memcpy_s
kernel32.dll TerminateProcess
kernel32.dll GetCurrentProcess
kernel32.dll SetUnhandledExceptionFilter
kernel32.dll UnhandledExceptionFilter
kernel32.dll GetTickCount
kernel32.dll GetSystemTimeAsFileTime
kernel32.dll QueryPerformanceCounter
kernel32.dll SleepConditionVariableSRW
kernel32.dll WakeAllConditionVariable
kernel32.dll AcquireSRWLockExclusive
kernel32.dll ReleaseSRWLockExclusive
kernel32.dll GetWindowsDirectoryW
kernel32.dll CreateFileW
kernel32.dll lstrlenW
kernel32.dll GetDriveTypeW
kernel32.dll lstrcmpiW
kernel32.dll FreeLibrary
kernel32.dll HeapAlloc
kernel32.dll GetProcessHeap
kernel32.dll HeapFree
kernel32.dll GetCurrentThread
kernel32.dll OutputDebugStringA
kernel32.dll GetCurrentProcessId
kernel32.dll IsDebuggerPresent
kernel32.dll EnterCriticalSection
kernel32.dll LeaveCriticalSection
kernel32.dll GetModuleHandleW
kernel32.dll GetThreadId
kernel32.dll WaitForSingleObject
kernel32.dll CloseHandle
kernel32.dll Sleep
kernel32.dll GetLastError
kernel32.dll GetCurrentThreadId
kernel32.dll SetEvent
kernel32.dll LoadLibraryW
kernel32.dll CreateEventW
kernel32.dll CreateThread
kernel32.dll WaitForMultipleObjects
kernel32.dll DeviceIoControl
user32.dll BringWindowToTop
user32.dll MessageBeep
user32.dll GetMessageW
user32.dll DispatchMessageW
user32.dll RegisterWindowMessageW
user32.dll PostThreadMessageW
user32.dll UpdateWindow
user32.dll TranslateMessage
user32.dll PostMessageW
user32.dll PeekMessageW
user32.dll LoadStringW
user32.dll LoadImageW
ole32.dll CoMarshalInterThreadInterfaceInStream
ole32.dll CoTaskMemFree
ole32.dll CoGetInterfaceAndReleaseStream
ole32.dll CoInitialize
ole32.dll CoUninitialize
ole32.dll CoCreateInstance
ole32.dll CoSetProxyBlanket
ole32.dll CoTaskMemAlloc
gdi32.dll DeleteObject
advapi32.dll EventRegister
advapi32.dll EventUnregister
advapi32.dll UnregisterTraceGuids
advapi32.dll RegisterTraceGuidsW
advapi32.dll GetTraceEnableFlags
advapi32.dll GetTraceEnableLevel
advapi32.dll GetTraceLoggerHandle
advapi32.dll TraceMessage
advapi32.dll EventSetInformation
advapi32.dll EventWriteTransfer
setupapi.dll SetupDiCreateDeviceInfoList
setupapi.dll SetupDiOpenDeviceInterfaceW
setupapi.dll SetupDiGetDeviceInterfaceDetailW
setupapi.dll SetupDiGetDeviceInstanceIdW
setupapi.dll SetupDiDestroyDeviceInfoList
setupapi.dll SetupDiGetClassDevsExW
setupapi.dll SetupDiEnumDeviceInterfaces
comctl32.dll ImageList_Create
comctl32.dll ImageList_AddMasked
dmdskmgr.dll ?GetComponentData@CDataCache@@QAEPAVCDMComponentData@@XZ
dmdskmgr.dll ?DeleteLists@CDataCache@@QAEXXZ
dmdskmgr.dll ?EmptyOcxViewData@CDMComponentData@@QAEXPAVCDMScopeNode@@@Z
dmdskmgr.dll ?ReloadData@CDMComponentData@@QAEXPAVCDMScopeNode@@@Z
dmdskmgr.dll ?IsPreLonghornVdsVersion@CDataCache@@QAEHXZ
dmdskmgr.dll ?GetObjectId@CDMNodeObj@@QAEXAA_J@Z
dmdskmgr.dll ??0CDataCache@@QAE@XZ
dmdskmgr.dll ?RefreshDiskView@CDMComponentData@@QAEXPAVCDMScopeNode@@@Z
dmdskmgr.dll ?DeleteRow@CDMComponentData@@QAEXPAVCDMScopeNode@@J@Z
dmdskmgr.dll ?RecalculateSpace@CDMNodeObj@@QAEXXZ
dmdskmgr.dll ?ChangeRow@CDMComponentData@@QAEXPAVCDMScopeNode@@J@Z
dmdskmgr.dll ?FindRegionPtrFromRegionId@CDataCache@@QAEH_JPAPAVCDMNodeObj@@@Z
dmdskmgr.dll ?AdjustRegionCountInLegendList@CDataCache@@QAEXW4_REGIONTYPE@@HPAVCTaskData@@@Z
dmdskmgr.dll ?AdjustVolumeCountInLegendList@CDataCache@@QAEXW4_VOLUMELAYOUT@@HPAVCTaskData@@@Z
dmdskmgr.dll ?GetVolumeInfo@CDMNodeObj@@QAEHAAUvolumeinfo@@@Z
dmdskmgr.dll ?AddRow@CDMComponentData@@QAEXPAVCDMScopeNode@@J@Z
dmdskmgr.dll ??1CDataCache@@UAE@XZ
dmdskmgr.dll ?SetDriveLetterInUse@CDataCache@@QAEXGH@Z
dmdskmgr.dll ?GetSizeMB@CDMNodeObj@@QAEXAA_J@Z
dmdskmgr.dll ?FindDiskPtrFromDiskId@CDataCache@@QAEH_JPAPAVCDMNodeObj@@@Z
dmdskmgr.dll ?GetPartitionStyle@CDMNodeObj@@QAE?AW4_PARTITIONSTYLE@@XZ
dmdskmgr.dll ?GetParentDiskPtr@CDMNodeObj@@QAEPAV1@XZ
dmdskmgr.dll ?GetRegionInfo@CDMNodeObj@@QAEHAAUregioninfoex@@@Z
dmdskmgr.dll ?GetParentVolumePtr@CDMNodeObj@@QAEPAV1@XZ
dmdskmgr.dll ?EnumDiskRegions@CDMNodeObj@@QAEXPAPAJAAJ@Z
dmdskmgr.dll ?AddFileSystemInfoToCache@CDataCache@@QAEXKPAUfilesysteminfo@@@Z
dmdskmgr.dll ?IsDiskEmpty@CDMNodeObj@@QAEHXZ
dmdskmgr.dll ?CreateRegionNodeObj@CDataCache@@QAEPAVCDMNodeObj@@PAV2@PAUregioninfoex@@@Z
dmdskmgr.dll ?GetDeviceType@CDMNodeObj@@QAEKXZ
dmdskmgr.dll ?DoRevertToNT4@CContextMenu@@QAEXJH@Z
dmdskmgr.dll ?FindDriveLetter@CDataCache@@QAEH_JAAG@Z
dmdskmgr.dll ?GetMMCWindow@CDMComponentData@@QAEPAUHWND__@@XZ
dmdskmgr.dll ?LoadData@CDMComponentData@@QAEXPAVCDMScopeNode@@J@Z
dmdskmgr.dll ?CreateNodeObjAndAddToMap@CDataCache@@QAEPAVCDMNodeObj@@HW4_NODEOBJ_TYPES@@PAV1@PAX_J@Z
dmdskmgr.dll ?SetUIState@CTaskData@@QAEXK@Z
dmdskmgr.dll ?GetDriveLetter@CDMNodeObj@@QAEXAAG@Z
dmdskmgr.dll ?IsConvertSuccess@CDMNodeObj@@QAEJH@Z
dmdskmgr.dll ?IsVolumeSimple@CDMNodeObj@@QAEHXZ
dmdskmgr.dll ?GetStartOffset@CDMNodeObj@@QAE_JXZ
dmdskmgr.dll ?IsVolumeArrived@CDMNodeObj@@QAEJ_JW4_LAYOUT_TYPES@@@Z
dmdskmgr.dll ?EnumFirstVolumeMember@CDMNodeObj@@QAEXAAJ0@Z
dmdskmgr.dll ?GetUnallocSpace@CDMNodeObj@@QAE_JH@Z
dmdskmgr.dll ?DeleteEncapsulateData@CDataCache@@QAEXPAUENCAPSULATE_DATA@@@Z
dmdskmgr.dll ?GetDiskSpec@CDMNodeObj@@QAEHAAUdiskspec@@@Z
dmdskmgr.dll ?OnlyContiguousExtendAllowed@CDMNodeObj@@QAEHXZ
dmdskmgr.dll ?GetUsableContiguousSpaceInMB@CDMNodeObj@@QAE_JXZ
dmdskmgr.dll ?GetDiskInfo@CDMNodeObj@@QAEHAAUdiskinfoex@@@Z
dmdskmgr.dll ?IsCurrSystemVolume@CDMNodeObj@@QAEHXZ
dmdskmgr.dll ?IsCurrBootVolume@CDMNodeObj@@QAEHXZ
dmdskmgr.dll ?GetFlags@CDMNodeObj@@QAEJXZ
dmdskmgr.dll ?GetRegionByOffset@CDMNodeObj@@QAEPAV1@_J@Z
dmutil.dll DisplayErrorRgszw
dmutil.dll SafeLoadVdsService
dmutil.dll ShowMessage
rpcrt4.dll UuidCreate
