msvcrt.dll __dllonexit
msvcrt.dll _unlock
msvcrt.dll _lock
msvcrt.dll ??1type_info@@UAE@XZ
msvcrt.dll ?terminate@@YAXXZ
msvcrt.dll _except_handler4_common
msvcrt.dll _initterm
msvcrt.dll memset
msvcrt.dll _onexit
msvcrt.dll _callnewh
msvcrt.dll malloc
msvcrt.dll free
msvcrt.dll _wcsicmp
msvcrt.dll wcstoul
msvcrt.dll _wtof
msvcrt.dll _ultow
msvcrt.dll _XcptFilter
msvcrt.dll _ftol2
msvcrt.dll _amsg_exit
msvcrt.dll memcpy
msvcrt.dll swprintf_s
msvcrt.dll wcsspn
msvcrt.dll wcstol
msvcrt.dll _vsnwprintf
msvcrt.dll __CxxFrameHandler3
msvcrt.dll floor
kernel32.dll GetTickCount
kernel32.dll GetSystemTimeAsFileTime
kernel32.dll GetCurrentProcessId
kernel32.dll QueryPerformanceCounter
kernel32.dll TerminateProcess
kernel32.dll GetCurrentProcess
kernel32.dll SetUnhandledExceptionFilter
kernel32.dll UnhandledExceptionFilter
kernel32.dll Sleep
kernel32.dll LocalAlloc
kernel32.dll GlobalFree
kernel32.dll FreeLibrary
kernel32.dll GetCurrentThreadId
kernel32.dll MoveFileW
kernel32.dll CreateDirectoryW
kernel32.dll FindNextFileW
kernel32.dll FindClose
kernel32.dll LocalFree
kernel32.dll FormatMessageW
kernel32.dll FindFirstFileExW
kernel32.dll QueryDosDeviceW
kernel32.dll lstrlenW
kernel32.dll OutputDebugStringA
kernel32.dll GetModuleFileNameW
kernel32.dll LoadLibraryW
kernel32.dll LoadLibraryA
kernel32.dll GetLastError
kernel32.dll GetProcAddress
kernel32.dll GetModuleHandleA
kernel32.dll SetLastError
kernel32.dll GetModuleHandleW
kernel32.dll ActivateActCtx
kernel32.dll DeactivateActCtx
kernel32.dll CreateActCtxW
kernel32.dll ReleaseActCtx
kernel32.dll LoadLibraryExW
user32.dll EnableWindow
user32.dll SystemParametersInfoW
user32.dll PostThreadMessageW
user32.dll GetFocus
user32.dll PostMessageW
user32.dll GetParent
user32.dll CopyRect
user32.dll FillRect
user32.dll GetSysColor
user32.dll DrawFocusRect
user32.dll ReleaseDC
user32.dll GetDC
user32.dll LoadImageW
user32.dll GetClientRect
user32.dll LoadBitmapW
user32.dll SendMessageW
gdi32.dll GetDeviceCaps
gdi32.dll ExtTextOutW
gdi32.dll GetWindowOrgEx
gdi32.dll GetTextExtentPoint32W
gdi32.dll DeleteObject
gdi32.dll CreateFontIndirectW
ole32.dll CoCreateInstance
ole32.dll CoTaskMemFree
dmdskmgr.dll ?GetShortName@CDMNodeObj@@QAEXAAVCString@@@Z
dmdskmgr.dll ?FindDriveLetter@CTaskData@@QAEX_JAAG@Z
dmdskmgr.dll ?IsLocalMachine@CTaskData@@QAEHXZ
dmdskmgr.dll ?HasNTFSwithDriveLetter@CTaskData@@QAEHXZ
dmdskmgr.dll ?GetDeviceType@CDMNodeObj@@QAEKXZ
dmdskmgr.dll ?GetParentDiskPtr@CDMNodeObj@@QAEPAV1@XZ
dmdskmgr.dll ?GetName@CDMNodeObj@@QAEXAAVCString@@@Z
dmdskmgr.dll CompareDiskNames
dmdskmgr.dll CookieSort
dmdskmgr.dll ?GetDiskInfo@CDMNodeObj@@QAEHAAUdiskinfoex@@@Z
dmdskmgr.dll ?GetDiskCookies@CTaskData@@QAEXAAKPAPAJHKH@Z
dmdskmgr.dll ?GetObjectId@CDMNodeObj@@QAEXAA_J@Z
dmdskmgr.dll namecmp
dmdskmgr.dll ?GetUnallocSpace@CDMNodeObj@@QAE_JH@Z
dmdskmgr.dll ?GetUsableContiguousSpaceInMB@CDMNodeObj@@QAE_JXZ
dmdskmgr.dll ?EnumFirstVolumeMember@CDMNodeObj@@QAEXAAJ0@Z
dmdskmgr.dll ?ContainsBootIniPartition@CDMNodeObj@@QAEHXZ
dmdskmgr.dll ?ContainsSystemPartition@CDMNodeObj@@QAEHXZ
dmdskmgr.dll ?GetDriveLetter@CDMNodeObj@@QAEXAAG@Z
dmdskmgr.dll ?GetFileSystemTypes@CTaskData@@QAEXAAKPAPAUifilesysteminfo@@@Z
dmdskmgr.dll ?GetFlags@CDMNodeObj@@QAEJXZ
dmdskmgr.dll ?IsNTServer@CTaskData@@QAEHXZ
dmdskmgr.dll ?GetServerName@CTaskData@@QAE?AVCString@@XZ
dmdskmgr.dll ?GetDeviceAttributes@CDMNodeObj@@QAEKXZ
dmdskmgr.dll ?GetDiskTypeName@CDMNodeObj@@QAEXAAVCString@@@Z
dmdskmgr.dll ?GetDiskStatus@CDMNodeObj@@QAEHAAVCString@@@Z
dmdskmgr.dll ?GetPartitionStyleString@CDMNodeObj@@QAEXAAVCString@@H@Z
dmdskmgr.dll ?EnumDiskRegions@CDMNodeObj@@QAEXPAPAJAAJ@Z
dmdskmgr.dll ?GetParentVolumePtr@CDMNodeObj@@QAEPAV1@XZ
dmdskmgr.dll ?GetFileSystemLabel@CDMNodeObj@@QAEXAAVCString@@@Z
dmdskmgr.dll ?GetSizeMB@CDMNodeObj@@QAEXAA_J@Z
dmdskmgr.dll ?EnumNTFSwithDriveLetter@CTaskData@@QAEXPAHPAPAG@Z
dmdskmgr.dll ?IsDiskEmpty@CDMNodeObj@@QAEHXZ
dmdskmgr.dll ?GetImageNum@CDMNodeObj@@QAEHXZ
dmdskmgr.dll ?IsMember@CDMNodeObj@@QAEHPAV1@@Z
dmdskmgr.dll ?GetRegionInfo@CDMNodeObj@@QAEHAAUregioninfoex@@@Z
dmdskmgr.dll ?GetVolumeInfo@CDMNodeObj@@QAEHAAUvolumeinfo@@@Z
dmdskmgr.dll ?IsFTVolume@CDMNodeObj@@QAEHXZ
dmdskmgr.dll ?GetPartitionStyle@CDMNodeObj@@QAE?AW4_PARTITIONSTYLE@@XZ
dmdskmgr.dll ?GetMaxPartitionCount@CDMNodeObj@@QAEKXZ
dmdskmgr.dll ?GetPrimaryPartitionCount@CDMNodeObj@@QAEKXZ
dmdskmgr.dll ?HasExtendedPartition@CDMNodeObj@@QAEHXZ
dmdskmgr.dll ?GetStorageType@CDMNodeObj@@QAE?AW4_STORAGE_TYPES@@XZ
dmdskmgr.dll ?IsFirstFreeRegion@CDMNodeObj@@QAEHXZ
dmdskmgr.dll ?GetLongName@CDMNodeObj@@QAEXAAVCString@@H@Z
dmdskmgr.dll ?GetDiskCookiesForCreateVolume@CTaskData@@QAEXAAKPAPAJ@Z
dmdskmgr.dll ?GetDriveLetters@CTaskData@@QAEXAAFPAPAGG@Z
dmdskmgr.dll ?GetDiskCookiesForExtendVolume@CTaskData@@QAEXJAAKPAPAJ@Z
dmdskmgr.dll ?SupportGpt@CTaskData@@QAEHXZ
dmdskmgr.dll ?GetDiskCookiesForAddMirror@CTaskData@@QAEXJAAKPAPAJ@Z
dmdskmgr.dll ?GetDiskInfoFromVolCookie@CTaskData@@QAEXJAAHAAKPAPAJKH@Z
dmdskmgr.dll ?IsPreLonghornVdsVersion@CTaskData@@QAEHXZ
dmdskmgr.dll ?GetFileSystemName@CDMNodeObj@@QAEXAAVCString@@@Z
dmdskmgr.dll ?GetVolumeFileSystemTypes@CDMNodeObj@@QAEJAAKPAPAUilhfilesysteminfo@@@Z
dmdskmgr.dll ?GetVolumeTotalSizeMB@CDMNodeObj@@QAE_JXZ
dmdskmgr.dll ?GetShrinkableSizeInMB@CDMNodeObj@@QAE_JXZ
dmdskmgr.dll ?IsUpgradeable@CDMNodeObj@@QAEHXZ
dmdskmgr.dll ?CanHaveGPT@CDMNodeObj@@QAEHXZ
dmdskmgr.dll ?GetIVolumeClientVersion@CTaskData@@QAEFXZ
dmdskmgr.dll ?GetSize@CDMNodeObj@@QAEXAA_JH@Z
dmdskmgr.dll ?IsEfi@CTaskData@@QAEHXZ
dmdskmgr.dll ?GetMaxAdjustedFreeSize@CDMNodeObj@@QAEXAA_J@Z
dmdskmgr.dll ?IsCurrSystemVolume@CDMNodeObj@@QAEHXZ
dmdskmgr.dll ?IsCurrBootVolume@CDMNodeObj@@QAEHXZ
dmdskmgr.dll ?FindRegionPtrFromRegionId@CTaskData@@QAEH_JPAPAVCDMNodeObj@@@Z
dmutil.dll ShowMessage
winbrand.dll BrandingFormatString
