msvcrt.dll swscanf_s
msvcrt.dll _vsnprintf
msvcrt.dll _purecall
msvcrt.dll _wtoi
msvcrt.dll _wcsicmp
msvcrt.dll time
msvcrt.dll free
msvcrt.dll malloc
msvcrt.dll _callnewh
msvcrt.dll __CxxFrameHandler3
msvcrt.dll _XcptFilter
msvcrt.dll _amsg_exit
msvcrt.dll _initterm
msvcrt.dll _vsnwprintf
msvcrt.dll _lock
msvcrt.dll _unlock
msvcrt.dll __dllonexit
msvcrt.dll _onexit
msvcrt.dll ??1type_info@@UAE@XZ
msvcrt.dll _except_handler4_common
msvcrt.dll memcpy
msvcrt.dll _CIexp
msvcrt.dll _CIlog
msvcrt.dll _CIlog10
msvcrt.dll _CIpow
msvcrt.dll _CIsqrt
msvcrt.dll _CxxThrowException
msvcrt.dll _ftol2_sse
msvcrt.dll memset
kernel32.dll GetTickCount
kernel32.dll GetSystemTimeAsFileTime
kernel32.dll GetCurrentThreadId
kernel32.dll ReadFile
kernel32.dll EnterCriticalSection
kernel32.dll WriteFile
kernel32.dll ExpandEnvironmentStringsW
kernel32.dll LeaveCriticalSection
kernel32.dll SetFilePointer
kernel32.dll SetEndOfFile
kernel32.dll CreateFileW
kernel32.dll CloseHandle
kernel32.dll GetModuleFileNameW
kernel32.dll InitializeCriticalSectionAndSpinCount
kernel32.dll InitializeCriticalSection
kernel32.dll DisableThreadLibraryCalls
kernel32.dll DeleteCriticalSection
kernel32.dll Sleep
kernel32.dll GetTimeZoneInformation
kernel32.dll LocalFileTimeToFileTime
kernel32.dll LocalFree
kernel32.dll lstrlenA
kernel32.dll MultiByteToWideChar
kernel32.dll GetLastError
kernel32.dll UnhandledExceptionFilter
kernel32.dll SetUnhandledExceptionFilter
kernel32.dll GetCurrentProcess
kernel32.dll TerminateProcess
kernel32.dll QueryPerformanceCounter
kernel32.dll GetCurrentProcessId
advapi32.dll RegisterEventSourceA
advapi32.dll RegCloseKey
advapi32.dll RegDeleteKeyA
advapi32.dll RegDeleteKeyW
advapi32.dll RegCreateKeyExA
advapi32.dll RegCreateKeyExW
advapi32.dll GetTraceLoggerHandle
advapi32.dll GetTraceEnableFlags
advapi32.dll RegSetValueExW
advapi32.dll RegSetValueExA
advapi32.dll GetTraceEnableLevel
advapi32.dll RegisterTraceGuidsW
advapi32.dll UnregisterTraceGuids
advapi32.dll DeregisterEventSource
advapi32.dll TraceMessage
advapi32.dll ReportEventW
oleaut32.dll SafeArrayCreate
oleaut32.dll VariantInit
oleaut32.dll VariantClear
oleaut32.dll SysStringLen
oleaut32.dll SafeArrayPutElement
oleaut32.dll SysAllocString
oleaut32.dll SafeArrayGetLBound
oleaut32.dll SafeArrayGetElement
oleaut32.dll SafeArrayGetUBound
oleaut32.dll SysAllocStringByteLen
oleaut32.dll SysStringByteLen
oleaut32.dll SafeArrayDestroy
oleaut32.dll SysFreeString
framedynos.dll ?GetLocalOffsetForDate@WBEMTime@@SGJPBU_FILETIME@@@Z
framedynos.dll ?GetDWORD@CInstance@@QBE_NPBGAAK@Z
framedynos.dll ?GetBuffer@CHString@@QAEPAGH@Z
framedynos.dll ?SetStatusObject@MethodContext@@QAE_NPAUIWbemClassObject@@@Z
framedynos.dll ?SetWORD@CInstance@@QAE_NPBGG@Z
framedynos.dll ?SetDWORD@CInstance@@QAE_NPBGK@Z
framedynos.dll ?Create@CWbemGlueFactory@@SGPAV1@XZ
framedynos.dll ?Destroy@CWbemGlueFactory@@QAEXXZ
framedynos.dll ?FrameworkLoginDLL@CWbemProviderGlue@@SGHPBG@Z
framedynos.dll ?FrameworkLogoffDLL@CWbemProviderGlue@@SGHPBG@Z
framedynos.dll ?IsEmpty@CHString@@QBEHXZ
framedynos.dll ??0WBEMTime@@QAE@QAG@Z
framedynos.dll ??0WBEMTime@@QAE@ABU_FILETIME@@@Z
framedynos.dll ?ReleaseBuffer@CHString@@QAEXH@Z
framedynos.dll ?ValidatePutInstanceFlags@Provider@@MAEJJ@Z
framedynos.dll ?ValidateDeletionFlags@Provider@@MAEJJ@Z
framedynos.dll ?ValidateQueryFlags@Provider@@MAEJJ@Z
framedynos.dll ?ValidateMethodFlags@Provider@@MAEJJ@Z
framedynos.dll ?ValidateGetObjFlags@Provider@@MAEJJ@Z
framedynos.dll ?ValidateEnumerationFlags@Provider@@MAEJJ@Z
framedynos.dll ?CreateNewInstance@Provider@@IAEPAVCInstance@@PAVMethodContext@@@Z
framedynos.dll ?Flush@Provider@@MAEXXZ
framedynos.dll ?GetObject@Provider@@MAEJPAVCInstance@@JAAVCFrameworkQuery@@@Z
framedynos.dll ??1Provider@@UAE@XZ
framedynos.dll ??0Provider@@QAE@PBG0@Z
framedynos.dll ??1CHString@@QAE@XZ
framedynos.dll ??0CHString@@QAE@XZ
framedynos.dll ??0CHString@@QAE@PBG@Z
framedynos.dll ?OnFinalRelease@CThreadBase@@MAEXXZ
framedynos.dll ?GetMethodContext@CInstance@@QBEPAVMethodContext@@XZ
framedynos.dll ?Commit@CInstance@@QAEJXZ
framedynos.dll ?IsNull@CInstance@@QBE_NPBG@Z
framedynos.dll ?GetCHString@CInstance@@QBE_NPBGAAVCHString@@@Z
framedynos.dll ?SetCHString@CInstance@@QAE_NPBG0@Z
framedynos.dll ?SetCHString@CInstance@@QAE_NPBGABVCHString@@@Z
framedynos.dll ?SetCHString@CInstance@@QAE_NPBGPBD@Z
framedynos.dll ?Release@CInstance@@QAEJXZ
framedynos.dll ?CompareNoCase@CHString@@QBEHPBG@Z
framedynos.dll ?SetVariant@CInstance@@QAE_NPBGABUtagVARIANT@@@Z
framedynos.dll ?Setbool@CInstance@@QAE_NPBG_N@Z
framedynos.dll ?GetNamespaceConnection@CWbemProviderGlue@@SGPAUIWbemServices@@PBG@Z
framedynos.dll ?Format@CHString@@QAAXPBGZZ
framedynos.dll ??4CHString@@QAEABV0@ABV0@@Z
framedynos.dll ??4CHString@@QAEABV0@PBD@Z
framedynos.dll ??0CHString@@QAE@PBD@Z
framedynos.dll ??H@YG?AVCHString@@ABV0@0@Z
framedynos.dll ?SetDateTime@CInstance@@QAE_NPBGABVWBEMTime@@@Z
api-ms-win-core-com-l1-1-0.dll StringFromGUID2
api-ms-win-core-com-l1-1-0.dll CoCreateInstance
api-ms-win-core-com-l1-1-0.dll CoUninitialize
api-ms-win-core-com-l1-1-0.dll CLSIDFromString
