api-ms-win-crt-runtime-l1-1-0.dll _initterm_e
api-ms-win-crt-runtime-l1-1-0.dll _initterm
api-ms-win-crt-private-l1-1-0.dll _o__initialize_narrow_environment
api-ms-win-crt-private-l1-1-0.dll _o__initialize_onexit_table
api-ms-win-crt-private-l1-1-0.dll _o__invalid_parameter_noinfo
api-ms-win-crt-private-l1-1-0.dll _o__invalid_parameter_noinfo_noreturn
api-ms-win-crt-private-l1-1-0.dll _o__purecall
api-ms-win-crt-private-l1-1-0.dll _o__register_onexit_function
api-ms-win-crt-private-l1-1-0.dll _o__seh_filter_dll
api-ms-win-crt-private-l1-1-0.dll memmove
api-ms-win-crt-private-l1-1-0.dll _o_ceil
api-ms-win-crt-private-l1-1-0.dll _o_free
api-ms-win-crt-private-l1-1-0.dll _o_malloc
api-ms-win-crt-private-l1-1-0.dll _o_realloc
api-ms-win-crt-private-l1-1-0.dll _o_terminate
api-ms-win-crt-private-l1-1-0.dll __current_exception
api-ms-win-crt-private-l1-1-0.dll __current_exception_context
api-ms-win-crt-private-l1-1-0.dll _except_handler4_common
api-ms-win-crt-private-l1-1-0.dll _CxxThrowException
api-ms-win-crt-private-l1-1-0.dll _o__execute_onexit_table
api-ms-win-crt-private-l1-1-0.dll _o__errno
api-ms-win-crt-private-l1-1-0.dll _o__dclass
api-ms-win-crt-private-l1-1-0.dll _o__crt_atexit
api-ms-win-crt-private-l1-1-0.dll _o__configure_narrow_argv
api-ms-win-crt-private-l1-1-0.dll _o__CIfmod
api-ms-win-crt-private-l1-1-0.dll _o___stdio_common_vswprintf
api-ms-win-crt-private-l1-1-0.dll _o___stdio_common_vsprintf_s
api-ms-win-crt-private-l1-1-0.dll _o___stdio_common_vsnprintf_s
api-ms-win-crt-private-l1-1-0.dll _o___std_type_info_destroy_list
api-ms-win-crt-private-l1-1-0.dll _o___std_exception_destroy
api-ms-win-crt-private-l1-1-0.dll _o___std_exception_copy
api-ms-win-crt-private-l1-1-0.dll _o__cexit
api-ms-win-crt-private-l1-1-0.dll _o__callnewh
api-ms-win-crt-private-l1-1-0.dll _o__fdclass
api-ms-win-crt-private-l1-1-0.dll __std_terminate
api-ms-win-crt-private-l1-1-0.dll __CxxFrameHandler3
api-ms-win-crt-private-l1-1-0.dll memcpy
api-ms-win-crt-string-l1-1-0.dll memset
api-ms-win-core-winrt-error-l1-1-0.dll SetRestrictedErrorInfo
api-ms-win-core-winrt-error-l1-1-0.dll RoOriginateErrorW
api-ms-win-core-winrt-error-l1-1-0.dll RoTransformError
api-ms-win-core-winrt-error-l1-1-0.dll RoOriginateError
api-ms-win-core-winrt-error-l1-1-0.dll GetRestrictedErrorInfo
api-ms-win-core-synch-l1-1-0.dll InitializeCriticalSection
api-ms-win-core-synch-l1-1-0.dll DeleteCriticalSection
api-ms-win-core-synch-l1-1-0.dll ReleaseSRWLockShared
api-ms-win-core-synch-l1-1-0.dll InitializeCriticalSectionEx
api-ms-win-core-synch-l1-1-0.dll CreateEventW
api-ms-win-core-synch-l1-1-0.dll AcquireSRWLockExclusive
api-ms-win-core-synch-l1-1-0.dll AcquireSRWLockShared
api-ms-win-core-synch-l1-1-0.dll ReleaseMutex
api-ms-win-core-synch-l1-1-0.dll SetEvent
api-ms-win-core-synch-l1-1-0.dll ReleaseSemaphore
api-ms-win-core-synch-l1-1-0.dll ReleaseSRWLockExclusive
api-ms-win-core-synch-l1-1-0.dll LeaveCriticalSection
api-ms-win-core-synch-l1-1-0.dll EnterCriticalSection
api-ms-win-core-synch-l1-1-0.dll InitializeSRWLock
api-ms-win-core-synch-l1-1-0.dll CreateSemaphoreExW
api-ms-win-core-synch-l1-1-0.dll CreateMutexExW
api-ms-win-core-synch-l1-1-0.dll WaitForSingleObject
api-ms-win-core-synch-l1-1-0.dll OpenSemaphoreW
api-ms-win-core-synch-l1-1-0.dll WaitForSingleObjectEx
api-ms-win-core-winrt-string-l1-1-0.dll WindowsCreateStringReference
api-ms-win-core-winrt-string-l1-1-0.dll WindowsDeleteString
api-ms-win-core-winrt-string-l1-1-0.dll WindowsCreateString
api-ms-win-core-winrt-string-l1-1-0.dll WindowsStringHasEmbeddedNull
api-ms-win-core-winrt-string-l1-1-0.dll WindowsIsStringEmpty
api-ms-win-core-winrt-string-l1-1-0.dll WindowsGetStringRawBuffer
api-ms-win-core-winrt-string-l1-1-0.dll WindowsDuplicateString
api-ms-win-core-util-l1-1-0.dll EncodePointer
api-ms-win-core-util-l1-1-0.dll DecodePointer
api-ms-win-eventing-provider-l1-1-0.dll EventWriteTransfer
api-ms-win-eventing-provider-l1-1-0.dll EventSetInformation
api-ms-win-eventing-provider-l1-1-0.dll EventUnregister
api-ms-win-eventing-provider-l1-1-0.dll EventRegister
api-ms-win-core-debug-l1-1-0.dll DebugBreak
api-ms-win-core-debug-l1-1-0.dll IsDebuggerPresent
api-ms-win-core-debug-l1-1-0.dll OutputDebugStringW
api-ms-win-core-libraryloader-l1-2-0.dll GetModuleHandleExW
api-ms-win-core-libraryloader-l1-2-0.dll LoadLibraryExW
api-ms-win-core-libraryloader-l1-2-0.dll GetProcAddress
api-ms-win-core-libraryloader-l1-2-0.dll GetModuleHandleW
api-ms-win-core-libraryloader-l1-2-0.dll DisableThreadLibraryCalls
api-ms-win-core-libraryloader-l1-2-0.dll LoadLibraryExA
api-ms-win-core-libraryloader-l1-2-0.dll FreeLibrary
api-ms-win-core-libraryloader-l1-2-0.dll GetModuleFileNameA
api-ms-win-core-synch-l1-2-0.dll InitOnceExecuteOnce
api-ms-win-core-synch-l1-2-0.dll WakeByAddressSingle
api-ms-win-core-synch-l1-2-0.dll WaitOnAddress
api-ms-win-core-com-l1-1-0.dll CoCreateFreeThreadedMarshaler
api-ms-win-core-com-l1-1-0.dll CoReleaseMarshalData
api-ms-win-core-com-l1-1-0.dll CoTaskMemAlloc
api-ms-win-core-com-l1-1-0.dll CoMarshalInterface
api-ms-win-core-com-l1-1-0.dll CreateStreamOnHGlobal
api-ms-win-core-com-l1-1-0.dll CoCreateGuid
api-ms-win-core-com-l1-1-0.dll CoCreateInstance
api-ms-win-core-errorhandling-l1-1-0.dll UnhandledExceptionFilter
api-ms-win-core-errorhandling-l1-1-0.dll SetUnhandledExceptionFilter
api-ms-win-core-errorhandling-l1-1-0.dll GetLastError
api-ms-win-core-errorhandling-l1-1-0.dll SetLastError
api-ms-win-core-errorhandling-l1-1-0.dll RaiseException
api-ms-win-core-handle-l1-1-0.dll CloseHandle
api-ms-win-core-processthreads-l1-1-0.dll GetCurrentProcessId
api-ms-win-core-processthreads-l1-1-0.dll GetCurrentThreadId
api-ms-win-core-processthreads-l1-1-0.dll GetCurrentProcess
api-ms-win-core-processthreads-l1-1-0.dll TerminateProcess
api-ms-win-core-processthreads-l1-1-0.dll OpenProcessToken
api-ms-win-core-localization-l1-2-0.dll FormatMessageW
api-ms-win-core-heap-l1-1-0.dll HeapAlloc
api-ms-win-core-heap-l1-1-0.dll GetProcessHeap
api-ms-win-core-heap-l1-1-0.dll HeapFree
api-ms-win-core-processthreads-l1-1-1.dll IsProcessorFeaturePresent
api-ms-win-core-processthreads-l1-1-1.dll OpenProcess
api-ms-win-core-profile-l1-1-0.dll QueryPerformanceCounter
api-ms-win-core-sysinfo-l1-1-0.dll GetSystemInfo
api-ms-win-core-sysinfo-l1-1-0.dll GetSystemDirectoryW
api-ms-win-core-sysinfo-l1-1-0.dll GetSystemTimeAsFileTime
api-ms-win-core-interlocked-l1-1-0.dll InitializeSListHead
moshostclient.dll MapsPackageClose
moshostclient.dll MapsPackageFree
moshostclient.dll MapsPackageGetPackages
moshostclient.dll MapsPackageAddMapPackageAsync
moshostclient.dll MapsPackageOpen
moshostclient.dll MapsPackageFindNearbyPackagesAsync
ztrace_maps.dll ZTraceReportPropagationNoThis
ztrace_maps.dll ZTraceHelper
ztrace_maps.dll ZTraceReportOriginationNoThis
ztrace_maps.dll ZTraceClose
ztrace_maps.dll ZTraceReportPropagation
ztrace_maps.dll ZTraceReportIgnore
ztrace_maps.dll ZTraceReportOrigination
ztrace_maps.dll ZTraceInit
ztrace_maps.dll ZTraceHelperNoThis
mapconfiguration.dll ConfigurationManager_Create
mapgeocoder.dll CreateMapGeocoderFactory
maprouter.dll ??0GeoCoordinates@ngeo@Microsoft@@QAE@NNM@Z
maprouter.dll MapRouter_DetachGuidanceStatusChangedListener
maprouter.dll ??1GeoCoordinates@ngeo@Microsoft@@UAE@XZ
maprouter.dll ?is_valid@GeoCoordinates@ngeo@Microsoft@@UBE_NXZ
maprouter.dll ?get_altitude@GeoCoordinates@ngeo@Microsoft@@UBEMXZ
maprouter.dll ?get_longitude@GeoCoordinates@ngeo@Microsoft@@UBENXZ
maprouter.dll ?get_latitude@GeoCoordinates@ngeo@Microsoft@@UBENXZ
maprouter.dll MapRouter_AttatchGuidanceStatusChangedListener
msvcp_win.dll ??1?$basic_iostream@GU?$char_traits@G@std@@@std@@UAE@XZ
msvcp_win.dll ??6?$basic_ostream@GU?$char_traits@G@std@@@std@@QAEAAV01@N@Z
msvcp_win.dll ?setstate@?$basic_ios@GU?$char_traits@G@std@@@std@@QAEXH_N@Z
msvcp_win.dll ??1?$basic_ios@GU?$char_traits@G@std@@@std@@UAE@XZ
msvcp_win.dll ?imbue@?$basic_streambuf@GU?$char_traits@G@std@@@std@@MAEXABVlocale@2@@Z
msvcp_win.dll ?setbuf@?$basic_streambuf@GU?$char_traits@G@std@@@std@@MAEPAV12@PAG_J@Z
msvcp_win.dll ?xsputn@?$basic_streambuf@GU?$char_traits@G@std@@@std@@MAE_JPBG_J@Z
msvcp_win.dll ?xsgetn@?$basic_streambuf@GU?$char_traits@G@std@@@std@@MAE_JPAG_J@Z
msvcp_win.dll ?uflow@?$basic_streambuf@GU?$char_traits@G@std@@@std@@MAEGXZ
msvcp_win.dll ?showmanyc@?$basic_streambuf@GU?$char_traits@G@std@@@std@@MAE_JXZ
msvcp_win.dll ?_Lock@?$basic_streambuf@GU?$char_traits@G@std@@@std@@UAEXXZ
msvcp_win.dll ?sputc@?$basic_streambuf@GU?$char_traits@G@std@@@std@@QAEGG@Z
msvcp_win.dll ?sync@?$basic_streambuf@GU?$char_traits@G@std@@@std@@MAEHXZ
msvcp_win.dll ??0?$basic_iostream@GU?$char_traits@G@std@@@std@@QAE@PAV?$basic_streambuf@GU?$char_traits@G@std@@@1@@Z
msvcp_win.dll ?flush@?$basic_ostream@GU?$char_traits@G@std@@@std@@QAEAAV12@XZ
msvcp_win.dll ??0?$basic_ios@GU?$char_traits@G@std@@@std@@IAE@XZ
msvcp_win.dll ?_Pninc@?$basic_streambuf@GU?$char_traits@G@std@@@std@@IAEPAGXZ
msvcp_win.dll ?gbump@?$basic_streambuf@GU?$char_traits@G@std@@@std@@IAEXH@Z
msvcp_win.dll ??0?$basic_streambuf@GU?$char_traits@G@std@@@std@@IAE@XZ
msvcp_win.dll ?sputn@?$basic_streambuf@GU?$char_traits@G@std@@@std@@QAE_JPBG_J@Z
msvcp_win.dll ?uncaught_exception@std@@YA_NXZ
msvcp_win.dll ?_Xbad_function_call@std@@YAXXZ
msvcp_win.dll ?_Xlength_error@std@@YAXPBD@Z
msvcp_win.dll ?_Xout_of_range@std@@YAXPBD@Z
msvcp_win.dll ?_Osfx@?$basic_ostream@GU?$char_traits@G@std@@@std@@QAEXXZ
msvcp_win.dll ??1?$basic_streambuf@GU?$char_traits@G@std@@@std@@UAE@XZ
msvcp_win.dll ?_Unlock@?$basic_streambuf@GU?$char_traits@G@std@@@std@@UAEXXZ
api-ms-win-crt-math-l1-1-0.dll _isnan
bcp47langs.dll GetUserLanguages
ext-ms-win-rtcore-ntuser-sysparams-l1-1-0.dll MonitorFromRect
ext-ms-win-rtcore-ntuser-sysparams-l1-1-0.dll GetMonitorInfoW
ext-ms-win-rtcore-ntuser-window-ext-l1-1-0.dll AllowSetForegroundWindow
api-ms-win-core-url-l1-1-0.dll UrlEscapeW
api-ms-win-core-winrt-error-l1-1-1.dll RoGetMatchingRestrictedErrorInfo
api-ms-win-core-winrt-error-l1-1-1.dll IsErrorPropagationEnabled
api-ms-win-core-winrt-error-l1-1-1.dll RoReportFailedDelegate
api-ms-win-core-winrt-l1-1-0.dll RoInitialize
api-ms-win-core-winrt-l1-1-0.dll RoUninitialize
api-ms-win-core-winrt-l1-1-0.dll RoActivateInstance
api-ms-win-core-winrt-l1-1-0.dll RoGetActivationFactory
api-ms-win-security-base-l1-1-0.dll GetTokenInformation
api-ms-win-core-com-l1-1-1.dll RoGetAgileReference
rpcrt4.dll UuidCreate
api-ms-win-core-path-l1-1-0.dll PathCchAppend
api-ms-win-core-file-l1-1-0.dll GetFileAttributesW
api-ms-win-core-registry-l1-1-0.dll RegGetValueW
api-ms-win-core-threadpool-legacy-l1-1-0.dll QueueUserWorkItem
dcomp.dll DCompositionCreateDevice3
ntdll.dll RtlIsMultiSessionSku
ntdll.dll RtlSubscribeWnfStateChangeNotification
ntdll.dll RtlUnsubscribeWnfNotificationWaitForCompletion
ntdll.dll RtlGetDeviceFamilyInfoEnum
mapcontrolcore.dll ?GetBoundingBox@RouteLeg@core@@UBEJPAVGeoRect@2@@Z
mapcontrolcore.dll ??1GeoRect@core@@UAE@XZ
mapcontrolcore.dll ??0GeoRect@core@@QAE@XZ
mapcontrolcore.dll ??1RouteLeg@core@@UAE@XZ
mapcontrolcore.dll ??0RouteLeg@core@@QAE@XZ
mapcontrolcore.dll ?GetTargetRoadName@RouteManeuver@core@@QBEJAAV?$basic_string@GU?$char_traits@G@std@@V?$allocator@G@2@@std@@@Z
mapcontrolcore.dll ?GetFreewayExitNumber@RouteManeuver@core@@QBEJAAV?$basic_string@GU?$char_traits@G@std@@V?$allocator@G@2@@std@@@Z
mapcontrolcore.dll ?GetTrafficCircleExitNumber@RouteManeuver@core@@QBEKXZ
mapcontrolcore.dll ?GetManeuverType@RouteManeuver@core@@QBE?AW4RouteManeuverType@2@XZ
mapcontrolcore.dll ?GetInstructionText@RouteManeuver@core@@QBEJAAV?$basic_string@GU?$char_traits@G@std@@V?$allocator@G@2@@std@@@Z
mapcontrolcore.dll ?GetDistanceInMetersToNextManeuver@RouteManeuver@core@@QBEKXZ
mapcontrolcore.dll ?GetStartCoordinates@RouteManeuver@core@@QBEJPAVGeoCoordinates@2@@Z
mapcontrolcore.dll ??1GeoCoordinates@core@@UAE@XZ
mapcontrolcore.dll ??0GeoCoordinates@core@@QAE@XZ
mapcontrolcore.dll ?GetManeuverNotice@RouteManeuver@core@@QBEJPAH@Z
mapcontrolcore.dll ?GetManeuverWarnings@RouteManeuver@core@@QBEABVIItineraryWarning@msnma@@K@Z
mapcontrolcore.dll ?GetManeuverWarningCount@RouteManeuver@core@@QBEKXZ
mapcontrolcore.dll ??1RouteManeuver@core@@UAE@XZ
mapcontrolcore.dll ??0RouteManeuver@core@@QAE@XZ
mapcontrolcore.dll ?GetDurationInSeconds@RouteLeg@core@@UBEKXZ
mapcontrolcore.dll ?GetManeuverCount@RouteLeg@core@@UBEKXZ
mapcontrolcore.dll ?GetManeuver@RouteLeg@core@@UBEJKPAVRouteManeuver@2@@Z
mapcontrolcore.dll ?GetTrafficCongestion@RouteLeg@core@@UBE?AW4TrafficCongestionType@IRoute@msnma@@XZ
mapcontrolcore.dll ?GetDurationWithoutTrafficInSeconds@RouteLeg@core@@UBEKXZ
mapcontrolcore.dll ??0Route@core@@QAE@XZ
mapcontrolcore.dll ??1Route@core@@UAE@XZ
mapcontrolcore.dll ?GetBoundingBox@Route@core@@UBEJPAVGeoRect@2@@Z
mapcontrolcore.dll ?GetLengthInMeters@Route@core@@UBEKXZ
mapcontrolcore.dll ?GetDurationInSeconds@Route@core@@UBEKXZ
mapcontrolcore.dll ?GetGeometryCoordinatesCount@Route@core@@UBEKXZ
mapcontrolcore.dll ?GetGeometryCoordinates@Route@core@@UBEJKPAVGeoCoordinates@2@@Z
mapcontrolcore.dll ?GetLegCount@Route@core@@UBEKXZ
mapcontrolcore.dll ?GetLeg@Route@core@@UBEJKPAVRouteLeg@2@@Z
mapcontrolcore.dll ?GetTrafficCongestion@Route@core@@UBE?AW4TrafficCongestionType@IRoute@msnma@@XZ
mapcontrolcore.dll ?GetDurationWithoutTrafficInSeconds@Route@core@@UBEKXZ
mapcontrolcore.dll ?Initialize@Route@core@@QAEJV?$shared_ptr@VIRoute@msnma@@@std@@@Z
mapcontrolcore.dll ?GetGeometryCoordinatesCount@RouteLeg@core@@UBEKXZ
mapcontrolcore.dll ?GetGeometryCoordinates@RouteLeg@core@@UBEJKPAVGeoCoordinates@2@@Z
mapcontrolcore.dll ?GetBackingObject@?$BackedType@V?$shared_ptr@VIManeuver@msnma@@@std@@@core@@QBE?AV?$shared_ptr@VIManeuver@msnma@@@std@@XZ
mapcontrolcore.dll ?GetBackingObject@?$BackedType@V?$shared_ptr@VIRoute@msnma@@@std@@@core@@QBE?AV?$shared_ptr@VIRoute@msnma@@@std@@XZ
mapcontrolcore.dll ?GetLimitNetworkUsage@MapsSettings@@SGJPA_N@Z
mapcontrolcore.dll ?GetBingAuthenticationKey@MapsSettings@@SGJPAV?$basic_string@GU?$char_traits@G@std@@V?$allocator@G@2@@std@@@Z
mapcontrolcore.dll ?RestrictedAPIAccessCheck@ApiAccessCheck@@SGJXZ
mapcontrolcore.dll ?GetLatitude@GeoCoordinates@core@@UBENXZ
mapcontrolcore.dll ?GetUserGeoRegionAsThreeLetterCode@MapsSettings@@SGJPAV?$basic_string@GU?$char_traits@G@std@@V?$allocator@G@2@@std@@@Z
mapcontrolcore.dll ?GetDataAttribution@MapsSettings@@SGJPAV?$basic_string@GU?$char_traits@G@std@@V?$allocator@G@2@@std@@@Z
mapcontrolcore.dll ?SetLimitNetworkUsage@MapsSettings@@SGJ_N@Z
mapcontrolcore.dll ?GetTopLeft@GeoRect@core@@QBEJPAVGeoCoordinates@2@@Z
mapcontrolcore.dll ?GetBottomRight@GeoRect@core@@QBEJPAVGeoCoordinates@2@@Z
mapcontrolcore.dll ?SetLatitude@GeoCoordinates@core@@UAEXN@Z
mapcontrolcore.dll ?SetLongitude@GeoCoordinates@core@@UAEXN@Z
mapcontrolcore.dll ?IsValid@GeoCoordinates@core@@UBE_NXZ
mapcontrolcore.dll ?c_DefaultDrivingRouteOptions@RouterAdapterCore@@2URouteOptions@engine@@B
mapcontrolcore.dll ?c_DefaultWalkingRouteOptions@RouterAdapterCore@@2URouteOptions@engine@@B
mapcontrolcore.dll ?CalculateRoute@RouterAdapterCore@@QAEJ$$QAV?$vector@URoutePoint@engine@@V?$allocator@URoutePoint@engine@@@std@@@std@@W4TravelMode@engine@@W4RouteOptimization@5@KIJPAURouteOptions@5@@Z
mapcontrolcore.dll ?Cancel@RouterAdapterCore@@QAEXXZ
mapcontrolcore.dll ?GetErrorCode@OperationAdapterCore@@QBEJXZ
mapcontrolcore.dll ?GetViolatedOptions@RouterAdapterCore@@QAEJPAH@Z
mapcontrolcore.dll ?GetRoute@RouterAdapterCore@@QAEJPAVRoute@core@@@Z
mapcontrolcore.dll ?GetAlternateRouteCount@RouterAdapterCore@@QAEJPAI@Z
mapcontrolcore.dll ?GetAlternateRouteViolatedOption@RouterAdapterCore@@QAEJIPAH@Z
mapcontrolcore.dll ?GetAlternateRoute@RouterAdapterCore@@QAEJIPAVRoute@core@@@Z
mapcontrolcore.dll ?GetConnectivityType@RouterAdapterCore@@QAEJPAW4ConnectivityType@engine@@@Z
mapcontrolcore.dll ?GetProvider@RouterAdapterCore@@QAEJPAW4Provider@engine@@@Z
mapcontrolcore.dll ??0RouterAdapterCore@@IAE@XZ
mapcontrolcore.dll ??1RouterAdapterCore@@MAE@XZ
mapcontrolcore.dll ?SetProgress@QueryAdapterCore@@MAEXK@Z
mapcontrolcore.dll ?GetResultSqmId@RouterAdapterCore@@UBEKXZ
mapcontrolcore.dll ?OnRouteProgress@RouterAdapterCore@@UAEXK@Z
mapcontrolcore.dll ?OnRouteDone@RouterAdapterCore@@UAEXABURouteResult@engine@@@Z
mapcontrolcore.dll ?Post@?$UIThreadCore@UIRouterUI@@@@UAEXPAV?$TDispatchItem@UIRouterUI@@@@@Z
mapcontrolcore.dll ?GetGenerationNumber@?$UIThreadCore@UIRouterUI@@@@UBEJXZ
mapcontrolcore.dll ?GetUserProfileLanguages@MapsSettings@@SGJPAPAUHSTRING__@@@Z
mapcontrolcore.dll ?GetUserGeoRegion@MapsSettings@@SGJPAPAUHSTRING__@@@Z
mapcontrolcore.dll IsUIThread
mapcontrolcore.dll ?_CoreUninitialize@RouterAdapterCore@@IAEXXZ
mapcontrolcore.dll ?_CoreInitialize@RouterAdapterCore@@IAEJHV?$unique_ptr@UIThreadSignal@@U?$destroy_delete@UIThreadSignal@@@@@std@@@Z
mapcontrolcore.dll ?GetInstanceId@OperationAdapterCore@@QBEHXZ
mapcontrolcore.dll ?ProcessDispatchQueue@?$UIThreadCore@UIRouterUI@@@@QAEXPAUIRouterUI@@@Z
mapcontrolcore.dll ?GetLocaleMapConfiguration@MapsSettings@@SGJPAPAUILocaleMapConfiguration@@@Z
mapcontrolcore.dll ?GetDefaultCenterFromTimezone@MapsSettings@@SGPBVGeoCoordinates@core@@XZ
mapcontrolcore.dll ?GetBingMapsKey@MapsSettings@@SGJPAV?$basic_string@GU?$char_traits@G@std@@V?$allocator@G@2@@std@@@Z
mapcontrolcore.dll ?SetBingMapsKey@MapsSettings@@SGJABV?$basic_string@GU?$char_traits@G@std@@V?$allocator@G@2@@std@@@Z
mapcontrolcore.dll ?IsChinaVariant@MapsSettings@@SG_NXZ
mapcontrolcore.dll ?IsWatermarkEnabled@MapsSettings@@SG_NXZ
mapcontrolcore.dll ?GetKeyValidationStatus@MapsSettings@@SGJPAH@Z
mapcontrolcore.dll ?SetBingAuthenticationKey@MapsSettings@@SGJABV?$basic_string@GU?$char_traits@G@std@@V?$allocator@G@2@@std@@@Z
mapcontrolcore.dll ?SetKeyValidationStatus@MapsSettings@@SGJH@Z
mapcontrolcore.dll ?RegisterListener@SuspendResumeDispatcher@@SGJPAVISuspendResumeListener@@PA_N@Z
mapcontrolcore.dll ?IsOldChinaRegKeySet@MapsSettings@@SG_NXZ
mapcontrolcore.dll ?GetLengthInMeters@RouteLeg@core@@UBEKXZ
mapcontrolcore.dll ?UnregisterListener@SuspendResumeDispatcher@@SGXPAVISuspendResumeListener@@@Z
mapcontrolcore.dll ?GetLongitude@GeoCoordinates@core@@UBENXZ
api-ms-win-core-apiquery-l1-1-0.dll ApiSetQueryApiSetPresence
api-ms-win-core-memory-l1-1-0.dll VirtualQuery
api-ms-win-core-memory-l1-1-0.dll VirtualProtect
