msvcp_win.dll ?gcount@?$basic_istream@DU?$char_traits@D@std@@@std@@QBE_JXZ
msvcp_win.dll ?read@?$basic_istream@DU?$char_traits@D@std@@@std@@QAEAAV12@PAD_J@Z
msvcp_win.dll ?write@?$basic_ostream@DU?$char_traits@D@std@@@std@@QAEAAV12@PBD_J@Z
msvcp_win.dll ?eof@ios_base@std@@QBE_NXZ
msvcp_win.dll ??0?$basic_iostream@GU?$char_traits@G@std@@@std@@QAE@PAV?$basic_streambuf@GU?$char_traits@G@std@@@1@@Z
msvcp_win.dll ??1?$basic_ios@GU?$char_traits@G@std@@@std@@UAE@XZ
msvcp_win.dll ?setp@?$basic_streambuf@GU?$char_traits@G@std@@@std@@IAEXPAG00@Z
msvcp_win.dll ?setg@?$basic_streambuf@GU?$char_traits@G@std@@@std@@IAEXPAG00@Z
msvcp_win.dll ?egptr@?$basic_streambuf@GU?$char_traits@G@std@@@std@@IBEPAGXZ
msvcp_win.dll ?eback@?$basic_streambuf@GU?$char_traits@G@std@@@std@@IBEPAGXZ
msvcp_win.dll ?setp@?$basic_streambuf@GU?$char_traits@G@std@@@std@@IAEXPAG0@Z
msvcp_win.dll ??0?$basic_streambuf@GU?$char_traits@G@std@@@std@@IAE@XZ
msvcp_win.dll ?imbue@?$basic_streambuf@GU?$char_traits@G@std@@@std@@MAEXABVlocale@2@@Z
msvcp_win.dll ?setbuf@?$basic_streambuf@GU?$char_traits@G@std@@@std@@MAEPAV12@PAG_J@Z
msvcp_win.dll ?xsputn@?$basic_streambuf@GU?$char_traits@G@std@@@std@@MAE_JPBG_J@Z
msvcp_win.dll ?fail@ios_base@std@@QBE_NXZ
msvcp_win.dll ?epptr@?$basic_streambuf@GU?$char_traits@G@std@@@std@@IBEPAGXZ
msvcp_win.dll ?xsgetn@?$basic_streambuf@GU?$char_traits@G@std@@@std@@MAE_JPAG_J@Z
msvcp_win.dll ?showmanyc@?$basic_streambuf@GU?$char_traits@G@std@@@std@@MAE_JXZ
msvcp_win.dll ?_Xout_of_range@std@@YAXPBD@Z
msvcp_win.dll ?_Lock@?$basic_streambuf@GU?$char_traits@G@std@@@std@@UAEXXZ
msvcp_win.dll ?_Unlock@?$basic_streambuf@GU?$char_traits@G@std@@@std@@UAEXXZ
msvcp_win.dll ?sync@?$basic_streambuf@GU?$char_traits@G@std@@@std@@MAEHXZ
msvcp_win.dll ?uflow@?$basic_streambuf@GU?$char_traits@G@std@@@std@@MAEGXZ
msvcp_win.dll ?sbumpc@?$basic_streambuf@GU?$char_traits@G@std@@@std@@QAEGXZ
msvcp_win.dll ?sgetc@?$basic_streambuf@GU?$char_traits@G@std@@@std@@QAEGXZ
msvcp_win.dll ?snextc@?$basic_streambuf@GU?$char_traits@G@std@@@std@@QAEGXZ
msvcp_win.dll ?rdbuf@?$basic_ios@GU?$char_traits@G@std@@@std@@QBEPAV?$basic_streambuf@GU?$char_traits@G@std@@@2@XZ
msvcp_win.dll ?_Ipfx@?$basic_istream@GU?$char_traits@G@std@@@std@@QAE_N_N@Z
msvcp_win.dll ?setstate@?$basic_ios@GU?$char_traits@G@std@@@std@@QAEXH_N@Z
msvcp_win.dll ?_Xlength_error@std@@YAXPBD@Z
msvcp_win.dll ??0?$basic_ios@GU?$char_traits@G@std@@@std@@IAE@XZ
msvcp_win.dll ?_Xbad_alloc@std@@YAXXZ
msvcp_win.dll ??1?$basic_iostream@GU?$char_traits@G@std@@@std@@UAE@XZ
msvcp_win.dll ??1?$basic_streambuf@GU?$char_traits@G@std@@@std@@UAE@XZ
msvcp_win.dll ?_Pninc@?$basic_streambuf@GU?$char_traits@G@std@@@std@@IAEPAGXZ
msvcp_win.dll ?gbump@?$basic_streambuf@GU?$char_traits@G@std@@@std@@IAEXH@Z
msvcp_win.dll ?pptr@?$basic_streambuf@GU?$char_traits@G@std@@@std@@IBEPAGXZ
msvcp_win.dll ?gptr@?$basic_streambuf@GU?$char_traits@G@std@@@std@@IBEPAGXZ
msvcp_win.dll ??Bios_base@std@@QBE_NXZ
api-ms-win-crt-runtime-l1-1-0.dll _initterm_e
api-ms-win-crt-runtime-l1-1-0.dll _initterm
api-ms-win-crt-private-l1-1-0.dll _o__initialize_narrow_environment
api-ms-win-crt-private-l1-1-0.dll _o__initialize_onexit_table
api-ms-win-crt-private-l1-1-0.dll _o__invalid_parameter_noinfo
api-ms-win-crt-private-l1-1-0.dll _o__invalid_parameter_noinfo_noreturn
api-ms-win-crt-private-l1-1-0.dll _o__purecall
api-ms-win-crt-private-l1-1-0.dll _o__register_onexit_function
api-ms-win-crt-private-l1-1-0.dll _o__seh_filter_dll
api-ms-win-crt-private-l1-1-0.dll _o__stricmp
api-ms-win-crt-private-l1-1-0.dll memmove
api-ms-win-crt-private-l1-1-0.dll _o__wcsicmp
api-ms-win-crt-private-l1-1-0.dll _o__wcsnicmp
api-ms-win-crt-private-l1-1-0.dll _o_free
api-ms-win-crt-private-l1-1-0.dll _o_malloc
api-ms-win-crt-private-l1-1-0.dll _o_terminate
api-ms-win-crt-private-l1-1-0.dll __current_exception
api-ms-win-crt-private-l1-1-0.dll __current_exception_context
api-ms-win-crt-private-l1-1-0.dll _except_handler4_common
api-ms-win-crt-private-l1-1-0.dll _CxxThrowException
api-ms-win-crt-private-l1-1-0.dll _o__configure_narrow_argv
api-ms-win-crt-private-l1-1-0.dll _o__execute_onexit_table
api-ms-win-crt-private-l1-1-0.dll _o__errno
api-ms-win-crt-private-l1-1-0.dll _o___stdio_common_vswprintf
api-ms-win-crt-private-l1-1-0.dll _o___stdio_common_vsnprintf_s
api-ms-win-crt-private-l1-1-0.dll _o___std_type_info_destroy_list
api-ms-win-crt-private-l1-1-0.dll _o___std_exception_destroy
api-ms-win-crt-private-l1-1-0.dll _o___std_exception_copy
api-ms-win-crt-private-l1-1-0.dll __std_type_info_compare
api-ms-win-crt-private-l1-1-0.dll __std_terminate
api-ms-win-crt-private-l1-1-0.dll __CxxFrameHandler3
api-ms-win-crt-private-l1-1-0.dll _o__cexit
api-ms-win-crt-private-l1-1-0.dll _o__callnewh
api-ms-win-crt-private-l1-1-0.dll _o__crt_atexit
api-ms-win-crt-private-l1-1-0.dll memcpy
api-ms-win-crt-private-l1-1-0.dll memcmp
api-ms-win-crt-string-l1-1-0.dll memset
api-ms-win-crt-string-l1-1-0.dll wcsncmp
api-ms-win-core-winrt-l1-1-0.dll RoActivateInstance
api-ms-win-core-winrt-l1-1-0.dll RoGetActivationFactory
api-ms-win-core-winrt-string-l1-1-0.dll WindowsDeleteString
api-ms-win-core-winrt-string-l1-1-0.dll WindowsGetStringRawBuffer
api-ms-win-core-winrt-string-l1-1-0.dll WindowsCreateStringReference
api-ms-win-core-libraryloader-l1-2-0.dll LoadResource
api-ms-win-core-libraryloader-l1-2-0.dll GetModuleFileNameA
api-ms-win-core-libraryloader-l1-2-0.dll GetModuleHandleW
api-ms-win-core-libraryloader-l1-2-0.dll LoadLibraryExW
api-ms-win-core-libraryloader-l1-2-0.dll FreeLibrary
api-ms-win-core-libraryloader-l1-2-0.dll GetModuleHandleExA
api-ms-win-core-libraryloader-l1-2-0.dll GetModuleHandleExW
api-ms-win-core-libraryloader-l1-2-0.dll FindResourceExW
api-ms-win-core-libraryloader-l1-2-0.dll LoadStringW
api-ms-win-core-libraryloader-l1-2-0.dll FreeLibraryAndExitThread
api-ms-win-core-libraryloader-l1-2-0.dll GetProcAddress
api-ms-win-core-libraryloader-l1-2-0.dll DisableThreadLibraryCalls
api-ms-win-core-synch-l1-1-0.dll OpenSemaphoreW
api-ms-win-core-synch-l1-1-0.dll WaitForSingleObjectEx
api-ms-win-core-synch-l1-1-0.dll WaitForSingleObject
api-ms-win-core-synch-l1-1-0.dll CreateSemaphoreExW
api-ms-win-core-synch-l1-1-0.dll ReleaseSemaphore
api-ms-win-core-synch-l1-1-0.dll CreateEventW
api-ms-win-core-synch-l1-1-0.dll ReleaseMutex
api-ms-win-core-synch-l1-1-0.dll SetWaitableTimer
api-ms-win-core-synch-l1-1-0.dll CreateWaitableTimerExW
api-ms-win-core-synch-l1-1-0.dll InitializeCriticalSection
api-ms-win-core-synch-l1-1-0.dll DeleteCriticalSection
api-ms-win-core-synch-l1-1-0.dll EnterCriticalSection
api-ms-win-core-synch-l1-1-0.dll SetEvent
api-ms-win-core-synch-l1-1-0.dll LeaveCriticalSection
api-ms-win-core-synch-l1-1-0.dll CreateMutexExW
api-ms-win-core-synch-l1-1-0.dll CreateEventExW
api-ms-win-core-synch-l1-1-0.dll InitializeCriticalSectionEx
api-ms-win-core-heap-l1-1-0.dll HeapAlloc
api-ms-win-core-heap-l1-1-0.dll GetProcessHeap
api-ms-win-core-heap-l1-1-0.dll HeapFree
api-ms-win-core-errorhandling-l1-1-0.dll GetLastError
api-ms-win-core-errorhandling-l1-1-0.dll SetLastError
api-ms-win-core-errorhandling-l1-1-0.dll SetUnhandledExceptionFilter
api-ms-win-core-errorhandling-l1-1-0.dll UnhandledExceptionFilter
api-ms-win-core-errorhandling-l1-1-0.dll RaiseException
api-ms-win-core-processthreads-l1-1-0.dll GetCurrentProcessId
api-ms-win-core-processthreads-l1-1-0.dll TerminateProcess
api-ms-win-core-processthreads-l1-1-0.dll GetCurrentProcess
api-ms-win-core-processthreads-l1-1-0.dll CreateThread
api-ms-win-core-processthreads-l1-1-0.dll GetCurrentThreadId
api-ms-win-core-localization-l1-2-0.dll GetUserPreferredUILanguages
api-ms-win-core-localization-l1-2-0.dll GetLocaleInfoEx
api-ms-win-core-localization-l1-2-0.dll GetLocaleInfoW
api-ms-win-core-localization-l1-2-0.dll FormatMessageW
api-ms-win-core-debug-l1-1-0.dll OutputDebugStringW
api-ms-win-core-debug-l1-1-0.dll IsDebuggerPresent
api-ms-win-core-debug-l1-1-0.dll DebugBreak
api-ms-win-core-handle-l1-1-0.dll CloseHandle
api-ms-win-core-string-l1-1-0.dll CompareStringOrdinal
api-ms-win-core-com-l1-1-0.dll CoTaskMemFree
api-ms-win-core-com-l1-1-0.dll CoGetCallContext
api-ms-win-core-com-l1-1-0.dll CoTaskMemAlloc
api-ms-win-eventing-provider-l1-1-0.dll EventUnregister
api-ms-win-eventing-provider-l1-1-0.dll EventRegister
api-ms-win-eventing-provider-l1-1-0.dll EventWriteTransfer
api-ms-win-eventing-provider-l1-1-0.dll EventSetInformation
api-ms-win-core-timezone-l1-1-0.dll GetTimeZoneInformation
api-ms-win-core-winrt-error-l1-1-0.dll RoFailFastWithErrorContext
api-ms-win-core-winrt-error-l1-1-0.dll GetRestrictedErrorInfo
api-ms-win-core-winrt-error-l1-1-0.dll RoOriginateError
api-ms-win-core-synch-l1-2-1.dll WaitForMultipleObjects
api-ms-win-core-threadpool-l1-2-0.dll WaitForThreadpoolTimerCallbacks
api-ms-win-core-threadpool-l1-2-0.dll CreateThreadpoolTimer
api-ms-win-core-threadpool-l1-2-0.dll CloseThreadpoolTimer
api-ms-win-core-threadpool-l1-2-0.dll SetThreadpoolTimer
api-ms-win-core-synch-l1-2-0.dll Sleep
api-ms-win-core-winrt-error-l1-1-1.dll RoReportUnhandledError
api-ms-win-core-sysinfo-l1-1-0.dll GetVersionExW
api-ms-win-core-sysinfo-l1-1-0.dll GetTickCount64
api-ms-win-core-sysinfo-l1-1-0.dll GetSystemTimeAsFileTime
api-ms-win-core-heap-l2-1-0.dll LocalFree
api-ms-win-core-processthreads-l1-1-1.dll IsProcessorFeaturePresent
api-ms-win-core-profile-l1-1-0.dll QueryPerformanceCounter
api-ms-win-core-interlocked-l1-1-0.dll InitializeSListHead
ntdll.dll RtlSubscribeWnfStateChangeNotification
ntdll.dll RtlUnsubscribeWnfNotificationWaitForCompletion
ntdll.dll RtlQueryWnfStateData
moshostclient.dll MosHostFree
moshostclient.dll MosHostClose
moshostclient.dll MosGetCopyrightString
moshostclient.dll MosHostOpen
ztrace_maps.dll ZTraceReportPropagationNoThis
ztrace_maps.dll ZTraceReportOriginationNoThis
ztrace_maps.dll ZTraceHelperNoThis
ztrace_maps.dll ZTraceHelper
ztrace_maps.dll ZTraceReportOrigination
ztrace_maps.dll ZTraceReportIgnoreNoThis
ztrace_maps.dll ZTraceClose
ztrace_maps.dll ZTraceInit
ztrace_maps.dll ZTraceReportPropagation
ztrace_maps.dll ZTraceReportIgnore
maprouter.dll ??0GeoRect@ngeo@Microsoft@@QAE@XZ
maprouter.dll ??0GeoCoordinates@ngeo@Microsoft@@QAE@XZ
maprouter.dll ??8ngeo@Microsoft@@YG_NABVGeoCoordinates@01@0@Z
maprouter.dll ?number_of_points@GeoPolyline@ngeo@Microsoft@@QBEIXZ
maprouter.dll ??0GeoCoordinates@ngeo@Microsoft@@QAE@NNM@Z
maprouter.dll ??1DynamicPenalty@ngeo@Microsoft@@QAE@XZ
maprouter.dll ??0IRouterEngineListener@nmacore@Microsoft@@QAE@XZ
maprouter.dll ??1RouteWaypoint@ngeo@Microsoft@@UAE@XZ
maprouter.dll ?on_end@RouterEngine@nmacore@Microsoft@@UAEXW4ErrorCode@errorcodes@msngeo@@ABV?$vector@V?$bitset@$08@std@@V?$allocator@V?$bitset@$08@std@@@2@@std@@@Z
maprouter.dll ?on_result@RouterEngine@nmacore@Microsoft@@UAEXABV?$vector@VRoute@ngeo@Microsoft@@V?$allocator@VRoute@ngeo@Microsoft@@@std@@@std@@@Z
maprouter.dll ?on_progress@RouterEngine@nmacore@Microsoft@@UAEXI@Z
maprouter.dll ?getPollInterval@RouterEngine@nmacore@Microsoft@@MAEHXZ
maprouter.dll ?resumeEngine@RouterEngine@nmacore@Microsoft@@UAE_NXZ
maprouter.dll ?suspendEngine@BaseEngine@nmacore@Microsoft@@UAE_NXZ
maprouter.dll ?stop@RouterEngine@nmacore@Microsoft@@UAEXXZ
maprouter.dll ?start@BaseEngine@nmacore@Microsoft@@UAEXXZ
maprouter.dll ?poll@RouterEngine@nmacore@Microsoft@@MAEXXZ
maprouter.dll ?set_latitude@GeoCoordinates@ngeo@Microsoft@@QAEXN@Z
maprouter.dll ?getEngineId@RouterEngine@nmacore@Microsoft@@MBE?AW4TEngineID@BaseEngine@23@XZ
maprouter.dll ?getAlternativeRoutes@RouterEngine@nmacore@Microsoft@@QBEABV?$vector@U?$pair@VRoute@nmacore@Microsoft@@H@std@@V?$allocator@U?$pair@VRoute@nmacore@Microsoft@@H@std@@@2@@std@@XZ
maprouter.dll ?set_longitude@GeoCoordinates@ngeo@Microsoft@@QAEXN@Z
maprouter.dll ?getViolatedOptions@RouterEngine@nmacore@Microsoft@@QBEHXZ
maprouter.dll ?cancel@RouterEngine@nmacore@Microsoft@@QAEXXZ
maprouter.dll ??0DynamicPenalty@ngeo@Microsoft@@QAE@XZ
maprouter.dll ?set_altitude@GeoCoordinates@ngeo@Microsoft@@QAEXM@Z
maprouter.dll ?calculate@RouterEngine@nmacore@Microsoft@@QAE?AW4TErrorCode@@ABVRoutePlan@ngeo@3@ABVDynamicPenalty@63@@Z
maprouter.dll ?setFallbackMode@RouterEngine@nmacore@Microsoft@@QAEXW4TFallbackMode@123@@Z
maprouter.dll ?setBingMapsKey@RouterEngine@nmacore@Microsoft@@SGXABV?$basic_string@GU?$char_traits@G@std@@V?$allocator@G@2@@std@@@Z
maprouter.dll ?setUseTraffic@RouterEngine@nmacore@Microsoft@@QAEX_N@Z
maprouter.dll ?routeOptions@RouteOptions@nmacore@Microsoft@@QBEABV1ngeo@3@XZ
maprouter.dll ?set_route_options@RoutePlan@ngeo@Microsoft@@QAEXABVRouteOptions@23@@Z
maprouter.dll ?setStartDirection@RouteOptions@nmacore@Microsoft@@QAEXI@Z
maprouter.dll ?setRouteDepartureTime@RouteOptions@nmacore@Microsoft@@QAEX_J@Z
maprouter.dll ?setRouteAlternativesCount@RouteOptions@nmacore@Microsoft@@QAEXI@Z
maprouter.dll ?setAllowParks@RouteOptions@nmacore@Microsoft@@QAEX_N@Z
maprouter.dll ?setAllowRailFerries@RouteOptions@nmacore@Microsoft@@QAEX_N@Z
maprouter.dll ?setAllowDirtRoads@RouteOptions@nmacore@Microsoft@@QAEX_N@Z
maprouter.dll ?setAllowTunnels@RouteOptions@nmacore@Microsoft@@QAEX_N@Z
maprouter.dll ?setAllowBoatFerries@RouteOptions@nmacore@Microsoft@@QAEX_N@Z
maprouter.dll ?setAllowTollRoads@RouteOptions@nmacore@Microsoft@@QAEX_N@Z
maprouter.dll ?setAllowHighways@RouteOptions@nmacore@Microsoft@@QAEX_N@Z
maprouter.dll ?setRouteType@RouteOptions@nmacore@Microsoft@@QAEXW4TRouteType@123@@Z
maprouter.dll ?setRouteMode@RouteOptions@nmacore@Microsoft@@QAEXW4TRouteMode@123@@Z
maprouter.dll ?insert_stopover@RoutePlan@ngeo@Microsoft@@QAE?AW4ErrorCode@errorcodes@msngeo@@ABVRouteWaypoint@23@I@Z
maprouter.dll ??1Location@ngeo@Microsoft@@UAE@XZ
maprouter.dll ??0GeoRect@ngeo@Microsoft@@QAE@ABVGeoCoordinates@12@0@Z
maprouter.dll ??0GeoRect@ngeo@Microsoft@@QAE@NNNN@Z
maprouter.dll ??1LocationInfo@ngeo@Microsoft@@QAE@XZ
maprouter.dll ??0LocationInfo@ngeo@Microsoft@@QAE@XZ
maprouter.dll ??0Location@ngeo@Microsoft@@QAE@ABVGeoCoordinates@12@ABVLocationInfo@12@@Z
maprouter.dll ??0RouteWaypoint@ngeo@Microsoft@@QAE@ABVLocation@12@W4Type@012@@Z
maprouter.dll ??1RouteOptions@nmacore@Microsoft@@QAE@XZ
maprouter.dll ??0RouteOptions@nmacore@Microsoft@@QAE@XZ
maprouter.dll ??1RoutePlan@ngeo@Microsoft@@QAE@XZ
maprouter.dll ??0RoutePlan@ngeo@Microsoft@@QAE@XZ
maprouter.dll ??1RouterEngine@nmacore@Microsoft@@UAE@XZ
maprouter.dll ?setListener@RouterEngine@nmacore@Microsoft@@QAEXPAVIRouterEngineListener@23@@Z
maprouter.dll ??0RouterEngine@nmacore@Microsoft@@QAE@XZ
maprouter.dll ?createRoutingGridLoader@Runtime@nmacore@Microsoft@@UBE?AV?$PresentSharedPtr@$$CBVRoutingGridLoader@smart5@Microsoft@@@Core@@ABV?$PresentSharedPtr@$$CBVIGridLoader@MapControl@@@5@@Z
maprouter.dll ?set_online@MapModel@ngeo@Microsoft@@QAE?AW4ErrorCode@errorcodes@msngeo@@_N@Z
maprouter.dll ?getMapModel@Runtime@nmacore@Microsoft@@QAEAAVMapModel@ngeo@3@XZ
maprouter.dll ?is_online@MapModel@ngeo@Microsoft@@QBE_NXZ
maprouter.dll ?resume@Runtime@nmacore@Microsoft@@QAE?AW4TErrorCode@@XZ
maprouter.dll ?suspend@Runtime@nmacore@Microsoft@@QAE?AW4TErrorCode@@XZ
maprouter.dll ?setTimerSource@Runtime@nmacore@Microsoft@@QAEXABV?$shared_ptr@VITimerSource@msnma@@@std@@@Z
maprouter.dll ?doInit@Runtime@nmacore@Microsoft@@QAE?AW4TErrorCode@@ABV?$basic_string@GU?$char_traits@G@std@@V?$allocator@G@2@@std@@0@Z
maprouter.dll ??1Runtime@nmacore@Microsoft@@UAE@XZ
maprouter.dll ??0Runtime@nmacore@Microsoft@@QAE@XZ
maprouter.dll ?deserialize@Route@nmacore@Microsoft@@SGIAAVIInStream@msnma@@PAPAV123@@Z
maprouter.dll ??AGeoPolyline@ngeo@Microsoft@@QBEABVGeoCoordinates@12@I@Z
maprouter.dll ?get_top_left@GeoRect@ngeo@Microsoft@@QBEABVGeoCoordinates@23@XZ
maprouter.dll ?push_back@GeoPolyline@ngeo@Microsoft@@QAEXABVGeoCoordinates@23@@Z
maprouter.dll ?reserve@GeoPolyline@ngeo@Microsoft@@QAEXI@Z
maprouter.dll ??0GeoPolyline@ngeo@Microsoft@@QAE@XZ
maprouter.dll ??0GeoCoordinates@ngeo@Microsoft@@QAE@ABVIGeoCoordinates@msngeo@@@Z
maprouter.dll ??0GeoRect@ngeo@Microsoft@@QAE@ABVIGeoRect@msngeo@@@Z
maprouter.dll ??1ItineraryWarning@nmacore@Microsoft@@UAE@XZ
maprouter.dll ??0ItineraryWarning@nmacore@Microsoft@@QAE@XZ
maprouter.dll ?is_valid@GeoCoordinates@ngeo@Microsoft@@UBE_NXZ
maprouter.dll ?get_altitude@GeoCoordinates@ngeo@Microsoft@@UBEMXZ
maprouter.dll ?get_longitude@GeoCoordinates@ngeo@Microsoft@@UBENXZ
maprouter.dll ?get_latitude@GeoCoordinates@ngeo@Microsoft@@UBENXZ
maprouter.dll ??1ITimerSource@msnma@@UAE@XZ
maprouter.dll ??0ITimerSource@msnma@@QAE@XZ
maprouter.dll ??0GeoCoordinates@ngeo@Microsoft@@QAE@ABV012@@Z
maprouter.dll ??0GeoCoordinates@ngeo@Microsoft@@QAE@$$QAV012@@Z
maprouter.dll ??1GeoCoordinates@ngeo@Microsoft@@UAE@XZ
maprouter.dll ??4GeoCoordinates@ngeo@Microsoft@@QAEAAV012@ABV012@@Z
maprouter.dll ??4GeoCoordinates@ngeo@Microsoft@@QAEAAV012@$$QAV012@@Z
maprouter.dll ??0GeoRect@ngeo@Microsoft@@QAE@ABV012@@Z
maprouter.dll ??0GeoRect@ngeo@Microsoft@@QAE@$$QAV012@@Z
maprouter.dll ??1GeoRect@ngeo@Microsoft@@UAE@XZ
maprouter.dll ??4GeoRect@ngeo@Microsoft@@QAEAAV012@ABV012@@Z
maprouter.dll ??4GeoRect@ngeo@Microsoft@@QAEAAV012@$$QAV012@@Z
maprouter.dll ??0GeoPolyline@ngeo@Microsoft@@QAE@ABV012@@Z
maprouter.dll ??1GeoPolyline@ngeo@Microsoft@@UAE@XZ
maprouter.dll ??4GeoPolyline@ngeo@Microsoft@@QAEAAV012@ABV012@@Z
maprouter.dll ?get_center@GeoRect@ngeo@Microsoft@@QBE?AVGeoCoordinates@23@XZ
maprouter.dll ?get_bottom_right@GeoRect@ngeo@Microsoft@@QBEABVGeoCoordinates@23@XZ
mapconfiguration.dll ConfigurationManager_Create
mapconfiguration.dll ConfigurationManager_GetLocaleMapConfiguration
api-ms-win-core-delayload-l1-1-1.dll ResolveDelayLoadedAPI
api-ms-win-core-delayload-l1-1-0.dll DelayLoadFailureHook
bcp47langs.dll GetUserLanguages
api-ms-win-appmodel-runtime-l1-1-0.dll GetPackageFamilyName
api-ms-win-core-processenvironment-l1-1-0.dll SearchPathW
api-ms-win-core-registry-l1-1-0.dll RegCloseKey
api-ms-win-core-registry-l1-1-0.dll RegQueryValueExW
api-ms-win-core-registry-l1-1-0.dll RegOpenKeyExW
api-ms-win-core-registry-l1-1-0.dll RegGetValueW
api-ms-win-core-file-l1-1-0.dll CreateFileW
api-ms-win-core-memory-l1-1-0.dll CreateFileMappingW
api-ms-win-core-memory-l1-1-0.dll UnmapViewOfFile
api-ms-win-core-memory-l1-1-0.dll MapViewOfFile
api-ms-win-core-localization-l1-2-2.dll LCIDToLocaleName
api-ms-win-core-localization-obsolete-l1-2-0.dll GetUserDefaultUILanguage
api-ms-win-core-localization-obsolete-l1-2-0.dll GetSystemDefaultUILanguage
api-ms-win-stateseparation-helpers-l1-1-0.dll GetPersistedRegistryLocationW
