msvcrt.dll _stricmp
msvcrt.dll _ultoa_s
msvcrt.dll strncpy_s
msvcrt.dll _beginthreadex
msvcrt.dll _endthreadex
msvcrt.dll _XcptFilter
msvcrt.dll _amsg_exit
msvcrt.dll _initterm
msvcrt.dll ?terminate@@YAXXZ
msvcrt.dll _lock
msvcrt.dll free
msvcrt.dll malloc
msvcrt.dll _wcsicmp
msvcrt.dll wcsncmp
msvcrt.dll _vsnwprintf
msvcrt.dll _purecall
msvcrt.dll _unlock
msvcrt.dll __dllonexit
msvcrt.dll _onexit
msvcrt.dll memcpy
msvcrt.dll _ftol2_sse
msvcrt.dll _CxxThrowException
msvcrt.dll realloc
msvcrt.dll _except_handler4_common
msvcrt.dll __CxxFrameHandler3
msvcrt.dll ??1type_info@@UAE@XZ
msvcrt.dll memset
ntdll.dll towupper
ntdll.dll wcschr
ntdll.dll towlower
ntdll.dll bsearch
ntdll.dll wcsstr
ntdll.dll _wtoi
ntdll.dll _itow_s
ntdll.dll _ltow_s
ntdll.dll _wcsnicmp
msdatl3.dll ?OLEDBGetCharTypeW@@YAHKGPAG@Z
msdatl3.dll ?ReplaceAt@CWString@@QAEXHHPBGH@Z
msdatl3.dll ??0CWString@@QAE@ABV0@@Z
msdatl3.dll ?ConcatInPlace@CWString@@QAEXHPBG@Z
msdatl3.dll ??YCWString@@QAEABV0@PBG@Z
msdatl3.dll ??4CWString@@QAEABV0@PBG@Z
msdatl3.dll ??4CWString@@QAEABV0@ABV0@@Z
msdatl3.dll ?SetPropertyInError@CUtlProps2@@QAEXKK@Z
msdatl3.dll ?Empty@CWString@@QAEXXZ
msdatl3.dll ?GetPropertiesArgChk@CUtlProps2@@QAEJKQBUtagDBPROPIDSET@@PAKPAPAUtagDBPROPSET@@@Z
msdatl3.dll ?GetProperties@CUtlProps2@@QAEJKQBUtagDBPROPIDSET@@PAKPAPAUtagDBPROPSET@@@Z
msdatl3.dll ?SetPropertiesArgChk@CUtlProps2@@SAJKQBUtagDBPROPSET@@@Z
msdatl3.dll ?SetProperties@CUtlProps2@@QAEJKQBUtagDBPROPSET@@H@Z
msdatl3.dll ??0CSlotListShort@@QAE@XZ
msdatl3.dll ?CreateVLHeap@@YAJPAPAUIVLHeap@@@Z
msdatl3.dll ??1CSlotListShort@@UAE@XZ
msdatl3.dll ?FInit@CSlotListShort@@UAEHKPAPAVISlotList@@PAPAVIHashTbl@@K@Z
msdatl3.dll ?GetNextSlots@CSlotListShort@@UAGJKKPAK@Z
msdatl3.dll ?ReleaseSlots@CSlotListShort@@UAGKKK@Z
msdatl3.dll ?NoBusySlots@CSlotListShort@@UAGJXZ
msdatl3.dll ?GetRowBuff@CSlotListShort@@UAIPAUtagRowBuff@@K@Z
msdatl3.dll ?IsValidSlot@CSlotListShort@@UAGJK@Z
msdatl3.dll ?RecordInternalUse@CSlotListShort@@UAGXXZ
msdatl3.dll ?NextBusySlot@CSlotListShort@@UAGJPAK@Z
msdatl3.dll ?CountOfBusySlots@CSlotListShort@@UAGKXZ
msdatl3.dll ?SLSlotCapacity@CSlotListShort@@UAGKXZ
msdatl3.dll ?SetCombinedPassThrough@CUtlProps2@@UAEJPBUtagDBPROPSET@@K@Z
msdatl3.dll ?LoadResourceDLL@@YAJPAG0PAXPAPAX@Z
msdatl3.dll ??0CWString@@QAE@PBD@Z
msdatl3.dll ??0CWString@@QAE@PBE@Z
msdatl3.dll ?CompareDBIDs@@YAJPBUtagDBID@@0@Z
msdatl3.dll ?FillDefaultValues@CUtlProps2@@QAEJK@Z
msdatl3.dll ??YCWString@@QAEABV0@ABV0@@Z
msdatl3.dll ?SetPropValue@CUtlProps2@@QAEJPBU_GUID@@KPAUtagVARIANT@@@Z
msdatl3.dll ?GetBuffer@CWString@@QAEPAGH@Z
msdatl3.dll ??4CWString@@QAEABV0@PBE@Z
msdatl3.dll ?Mid@CWString@@QBE?AV1@HH@Z
msdatl3.dll ??4CWString@@QAEABV0@PBD@Z
msdatl3.dll ?FInit@CUtlPropInfo@@QAEJXZ
msdatl3.dll ??0CUtlPropInfo@@QAE@XZ
msdatl3.dll ??1CUtlPropInfo@@UAE@XZ
msdatl3.dll ??1CWString@@QAE@XZ
msdatl3.dll ??YCWString@@QAEABV0@G@Z
msdatl3.dll ??0CWString@@QAE@PBG@Z
msdatl3.dll ??0CWString@@QAE@XZ
msdatl3.dll ??0CUtlProps2@@QAE@K@Z
msdatl3.dll ?GetUPropValIndex@CUtlProps2@@MAEKKK@Z
msdatl3.dll ?GetIndexofPropSet@CUtlProps2@@UAEJPBU_GUID@@PAK@Z
msdatl3.dll ?GetIndexofPropIdinPropSet@CUtlProps2@@UAEJKKPAK@Z
msdatl3.dll ?SetPassThrough@CUtlProps2@@UAEJPBUtagDBPROPSET@@@Z
msdatl3.dll ?ConflictsWithCurrent@CUtlProps2@@UAEHKKABUtagVARIANT@@@Z
msdatl3.dll ?FIsValidColId@CUtlProps2@@UAEHPAUtagDBPROP@@@Z
msdatl3.dll ?SecureSetValue@CUtlProps2@@UAEJKKPAUtagVARIANT@@0@Z
msdatl3.dll ?SecureGetValue@CUtlProps2@@UAEJKKPAUtagVARIANT@@0@Z
msdatl3.dll ?SetValString@CUtlProps2@@UAEJKKPBG@Z
msdatl3.dll ?FInit@CUtlProps2@@UAEJPAV1@@Z
msdatl3.dll ?ResetBusySlotIteration@CSlotListShort@@UAGXXZ
msdatl3.dll ?DeleteFromExtBuffer@CExtBuffer@@QAGXK@Z
msdatl3.dll ?InsertIntoExtBuffer@CExtBuffer@@QAGJPAXAAK@Z
msdatl3.dll ?SetSlot@CBitArray@@QAGJK@Z
msdatl3.dll ?FInit@CBitArray@@QAGJK@Z
msdatl3.dll ??0CBitArray@@QAE@XZ
msdatl3.dll ?FInit@CExtBuffer@@QAEHKPAXKK@Z
msdatl3.dll ??0CExtBuffer@@QAE@XZ
msdatl3.dll ??1CBitArray@@QAE@XZ
msdatl3.dll ??1CExtBuffer@@QAE@XZ
msdatl3.dll ??1CUtlProps2@@UAE@XZ
msdatl3.dll ?GetPropertyInfo@CUtlPropInfo@@QAEJKQBUtagDBPROPIDSET@@PAKPAPAUtagDBPROPINFOSET@@PAPAG@Z
msdart.dll FXMemDetach
msdart.dll FXMemAttach
msdart.dll MpGetHeapHandle
msdart.dll MPInitializeCriticalSection
msdart.dll UMSEnterCSWraper
msdart.dll MPInitializeCriticalSectionAndSpinCount
msdart.dll MPDeleteCriticalSection
msdart.dll MpHeapAlloc
msdart.dll MpHeapFree
kernel32.dll GetFullPathNameA
kernel32.dll GetCurrentProcessId
kernel32.dll IsDBCSLeadByte
kernel32.dll HeapDestroy
kernel32.dll CompareStringW
kernel32.dll GetUserDefaultLCID
kernel32.dll GetTickCount
kernel32.dll GetSystemTimeAsFileTime
kernel32.dll QueryPerformanceCounter
kernel32.dll SleepConditionVariableSRW
kernel32.dll WakeAllConditionVariable
kernel32.dll AcquireSRWLockExclusive
kernel32.dll ReleaseSRWLockExclusive
kernel32.dll TerminateProcess
kernel32.dll GetCurrentProcess
kernel32.dll SetUnhandledExceptionFilter
kernel32.dll UnhandledExceptionFilter
kernel32.dll CloseHandle
kernel32.dll CreateEventA
kernel32.dll ResetEvent
kernel32.dll WaitForSingleObject
kernel32.dll SetEvent
kernel32.dll GetCurrentThreadId
kernel32.dll WideCharToMultiByte
kernel32.dll OutputDebugStringA
kernel32.dll GetModuleFileNameA
kernel32.dll GetProcAddress
kernel32.dll LoadLibraryExA
kernel32.dll LoadLibraryExW
kernel32.dll DisableThreadLibraryCalls
kernel32.dll FreeLibrary
kernel32.dll Sleep
kernel32.dll GetSystemInfo
kernel32.dll VirtualQuery
kernel32.dll VirtualAlloc
kernel32.dll VirtualProtect
kernel32.dll MultiByteToWideChar
kernel32.dll LeaveCriticalSection
kernel32.dll GetLastError
kernel32.dll SearchPathA
kernel32.dll GetDriveTypeA
user32.dll SetWindowLongW
user32.dll SetCursor
user32.dll DialogBoxParamW
user32.dll GetCursor
user32.dll EndDialog
user32.dll GetWindowLongW
user32.dll TranslateMessage
user32.dll SetWindowTextW
user32.dll GetDlgItemTextW
user32.dll SetDlgItemTextW
user32.dll LoadStringW
user32.dll MsgWaitForMultipleObjects
user32.dll PeekMessageW
user32.dll DispatchMessageW
user32.dll CharUpperBuffW
advapi32.dll RegOpenKeyExA
advapi32.dll RegCloseKey
advapi32.dll RegQueryValueExA
advapi32.dll RegGetValueA
ole32.dll CoCreateInstance
ole32.dll CoGetMalloc
ole32.dll CoGetClassObject
oleaut32.dll SysFreeString
oleaut32.dll VariantCopy
oleaut32.dll GetErrorInfo
oleaut32.dll VarBstrFromR8
oleaut32.dll VarBstrFromR4
oleaut32.dll VariantClear
oleaut32.dll SysAllocString
oleaut32.dll VariantInit
oleaut32.dll SetErrorInfo
