msvcrt.dll _ftol2
msvcrt.dll _ftol2_sse
msvcrt.dll floor
msvcrt.dll memcmp
msvcrt.dll memcpy
msvcrt.dll _CxxThrowException
msvcrt.dll wcschr
msvcrt.dll ??1type_info@@UAE@XZ
msvcrt.dll _vsnprintf_s
msvcrt.dll ??0exception@@QAE@XZ
msvcrt.dll ??0exception@@QAE@ABV0@@Z
msvcrt.dll ??1exception@@UAE@XZ
msvcrt.dll __CxxFrameHandler3
msvcrt.dll _get_errno
msvcrt.dll _set_errno
msvcrt.dll wcstod
msvcrt.dll wcsncpy_s
msvcrt.dll _wcsicmp
msvcrt.dll memmove_s
msvcrt.dll memcpy_s
msvcrt.dll _purecall
msvcrt.dll free
msvcrt.dll malloc
msvcrt.dll _callnewh
msvcrt.dll wcscpy_s
msvcrt.dll _XcptFilter
msvcrt.dll _amsg_exit
msvcrt.dll _initterm
msvcrt.dll _lock
msvcrt.dll _unlock
msvcrt.dll __dllonexit
msvcrt.dll _onexit
msvcrt.dll _except_handler4_common
msvcrt.dll _errno
msvcrt.dll realloc
msvcrt.dll memmove
msvcrt.dll _vsnwprintf
msvcrt.dll memset
api-ms-win-core-libraryloader-l1-2-0.dll GetModuleHandleExW
api-ms-win-core-libraryloader-l1-2-0.dll DisableThreadLibraryCalls
api-ms-win-core-libraryloader-l1-2-0.dll GetModuleHandleW
api-ms-win-core-libraryloader-l1-2-0.dll GetModuleFileNameA
api-ms-win-core-libraryloader-l1-2-0.dll LoadStringW
api-ms-win-core-libraryloader-l1-2-0.dll GetProcAddress
api-ms-win-core-synch-l1-1-0.dll InitializeCriticalSection
api-ms-win-core-synch-l1-1-0.dll DeleteCriticalSection
api-ms-win-core-synch-l1-1-0.dll ReleaseSemaphore
api-ms-win-core-synch-l1-1-0.dll LeaveCriticalSection
api-ms-win-core-synch-l1-1-0.dll EnterCriticalSection
api-ms-win-core-synch-l1-1-0.dll ReleaseMutex
api-ms-win-core-synch-l1-1-0.dll OpenSemaphoreW
api-ms-win-core-synch-l1-1-0.dll CreateMutexExW
api-ms-win-core-synch-l1-1-0.dll WaitForSingleObject
api-ms-win-core-synch-l1-1-0.dll CreateSemaphoreExW
api-ms-win-core-synch-l1-1-0.dll WaitForSingleObjectEx
api-ms-win-core-heap-l1-1-0.dll HeapAlloc
api-ms-win-core-heap-l1-1-0.dll HeapFree
api-ms-win-core-heap-l1-1-0.dll GetProcessHeap
api-ms-win-core-errorhandling-l1-1-0.dll RaiseException
api-ms-win-core-errorhandling-l1-1-0.dll SetLastError
api-ms-win-core-errorhandling-l1-1-0.dll SetUnhandledExceptionFilter
api-ms-win-core-errorhandling-l1-1-0.dll UnhandledExceptionFilter
api-ms-win-core-errorhandling-l1-1-0.dll GetLastError
api-ms-win-core-processthreads-l1-1-0.dll GetCurrentProcessId
api-ms-win-core-processthreads-l1-1-0.dll OpenProcessToken
api-ms-win-core-processthreads-l1-1-0.dll TerminateProcess
api-ms-win-core-processthreads-l1-1-0.dll GetCurrentProcess
api-ms-win-core-processthreads-l1-1-0.dll GetCurrentThreadId
api-ms-win-core-localization-l1-2-0.dll FormatMessageW
api-ms-win-core-debug-l1-1-0.dll OutputDebugStringW
api-ms-win-core-debug-l1-1-0.dll OutputDebugStringA
api-ms-win-core-debug-l1-1-0.dll IsDebuggerPresent
api-ms-win-core-debug-l1-1-0.dll DebugBreak
api-ms-win-core-handle-l1-1-0.dll CloseHandle
api-ms-win-eventing-provider-l1-1-0.dll EventWriteTransfer
api-ms-win-eventing-provider-l1-1-0.dll EventSetInformation
api-ms-win-eventing-provider-l1-1-0.dll EventUnregister
api-ms-win-eventing-provider-l1-1-0.dll EventRegister
api-ms-win-eventing-provider-l1-1-0.dll EventActivityIdControl
api-ms-win-core-synch-l1-2-0.dll InitOnceBeginInitialize
api-ms-win-core-synch-l1-2-0.dll InitOnceComplete
api-ms-win-core-synch-l1-2-0.dll Sleep
api-ms-win-core-synch-l1-2-0.dll WakeAllConditionVariable
api-ms-win-core-synch-l1-2-0.dll SleepConditionVariableSRW
api-ms-win-core-profile-l1-1-0.dll QueryPerformanceCounter
api-ms-win-core-sysinfo-l1-1-0.dll GetTickCount
api-ms-win-core-sysinfo-l1-1-0.dll GetSystemTimeAsFileTime
user32.dll ShowWindow
user32.dll SetLayeredWindowAttributes
user32.dll MsgWaitForMultipleObjectsEx
user32.dll PostQuitMessage
user32.dll TranslateMessage
user32.dll SetCursor
user32.dll DispatchMessageW
user32.dll GetSysColor
user32.dll GetGUIThreadInfo
user32.dll SetWindowPos
user32.dll SendMessageW
user32.dll ClientToScreen
user32.dll OffsetRect
user32.dll ScreenToClient
user32.dll LoadCursorW
user32.dll RealGetWindowClassW
user32.dll GetClassInfoExW
user32.dll GetWindowThreadProcessId
user32.dll CopyIcon
user32.dll SetCursorPos
user32.dll GetCursorPos
user32.dll IntersectRect
user32.dll SetTimer
user32.dll CopyRect
user32.dll IsWindowVisible
user32.dll PeekMessageW
user32.dll MsgWaitForMultipleObjects
user32.dll LoadImageW
user32.dll GetSystemMetrics
user32.dll SetCoalescableTimer
user32.dll EqualRect
user32.dll GetParent
user32.dll GetAncestor
user32.dll PtInRect
user32.dll SystemParametersInfoW
user32.dll DefWindowProcW
user32.dll CreateWindowExW
user32.dll RegisterClassExW
user32.dll GetWindowLongW
user32.dll IsRectEmpty
user32.dll UnregisterClassW
user32.dll SetWindowLongW
user32.dll SetRectEmpty
user32.dll KillTimer
user32.dll PostMessageW
user32.dll GetWindowRect
user32.dll DestroyIcon
user32.dll DestroyWindow
user32.dll MonitorFromPoint
user32.dll GetMonitorInfoW
user32.dll SetRect
user32.dll MonitorFromWindow
user32.dll InflateRect
user32.dll UnionRect
user32.dll OpenInputDesktop
user32.dll GetThreadDesktop
user32.dll GetUserObjectInformationW
user32.dll SetThreadDesktop
user32.dll CloseDesktop
user32.dll LogicalToPhysicalPointForPerMonitorDPI
user32.dll SetThreadDpiAwarenessContext
user32.dll GetMessageW
user32.dll RegisterTouchWindow
user32.dll UpdateWindow
user32.dll GetDC
user32.dll IsWindow
user32.dll SetWindowRgn
user32.dll GetClientRect
user32.dll NotifyWinEvent
user32.dll GetForegroundWindow
dui70.dll ?get_ProviderOptions@ElementProvider@DirectUI@@UAGJPAW4ProviderOptions@@@Z
dui70.dll ?EventFromEventId@Schema@DirectUI@@SG?AW4Event@12@H@Z
dui70.dll ?WantEvent@EventManager@DirectUI@@SG_NW4Event@Schema@2@@Z
dui70.dll ?FWantAnyEvent@EventManager@DirectUI@@SG_NPAVElement@2@@Z
dui70.dll ?SetContentAlign@Element@DirectUI@@QAEJH@Z
dui70.dll ?SetMargin@Element@DirectUI@@QAEJHHHH@Z
dui70.dll ?GetMargin@Element@DirectUI@@QAEPBUtagRECT@@PAPAVValue@2@@Z
dui70.dll ?SetBorderThickness@Element@DirectUI@@QAEJHHHH@Z
dui70.dll ?GetBorderThickness@Element@DirectUI@@QAEPBUtagRECT@@PAPAVValue@2@@Z
dui70.dll ?GetFontSize@Element@DirectUI@@QAEHXZ
dui70.dll ?_PostEvent@Element@DirectUI@@AAEXPAUEvent@2@H@Z
dui70.dll ?GetMinSize@Element@DirectUI@@QAEPBUtagSIZE@@PAPAVValue@2@@Z
dui70.dll ?SetClass@Element@DirectUI@@QAEJPBG@Z
dui70.dll ?SetMinSize@Element@DirectUI@@QAEJHH@Z
dui70.dll ?SetActivityOccuring@ModernProgressRing@DirectUI@@QAEJ_N@Z
dui70.dll ?SetFontColorRuns@RichText@DirectUI@@QAEJPBG@Z
dui70.dll ?SetFontSizeRuns@RichText@DirectUI@@QAEJPBG@Z
dui70.dll ?SetTypographyRuns@RichText@DirectUI@@QAEJPBG@Z
dui70.dll ?SetLocale@RichText@DirectUI@@QAEJPBG@Z
dui70.dll ?GetXOffset@BaseScrollViewer@DirectUI@@QAEHXZ
dui70.dll ?SetXOffset@BaseScrollViewer@DirectUI@@QAEJH@Z
dui70.dll ?SetXScrollable@BaseScrollViewer@DirectUI@@QAEJ_N@Z
dui70.dll ?GetSnapPointCollectionX@TouchScrollViewer@DirectUI@@QAEPAV?$DynamicArray@N$0A@@2@PAPAVValue@2@@Z
dui70.dll ?SetSnapPointCollectionX@TouchScrollViewer@DirectUI@@QAEJPBNH@Z
dui70.dll ?MouseFocusedProp@Element@DirectUI@@SGPBUPropertyInfo@2@XZ
dui70.dll ?GetBoolTrue@Value@DirectUI@@SGPAV12@XZ
dui70.dll ?GetBoolFalse@Value@DirectUI@@SGPAV12@XZ
dui70.dll ?UpdateContentSize@TouchScrollViewer@DirectUI@@SG?AVUID@@XZ
dui70.dll ?ResetManipulations@TouchScrollViewer@DirectUI@@QAEJXZ
dui70.dll ?RemoveAll@Element@DirectUI@@QAEJXZ
dui70.dll ?GetPressed@TouchButton@DirectUI@@QAE_NXZ
dui70.dll ?GetVisibleRect@TouchScrollViewer@DirectUI@@QAEXPAUtagRECT@@@Z
dui70.dll ?WindowDpiChanged@HWNDElement@DirectUI@@SG?AVUID@@XZ
dui70.dll ?ManipulationDelta@TouchScrollViewer@DirectUI@@SG?AVUID@@XZ
dui70.dll ?GetValue@Element@DirectUI@@QAEPAVValue@2@PBUPropertyInfo@2@HPAUUpdateCache@2@@Z
dui70.dll ?TypographyRunsProp@RichText@DirectUI@@SGPBUPropertyInfo@2@XZ
dui70.dll ?DirectionProp@Element@DirectUI@@SGPBUPropertyInfo@2@XZ
dui70.dll ?SelectedProp@Element@DirectUI@@SGPBUPropertyInfo@2@XZ
dui70.dll ?IDProp@Element@DirectUI@@SGPBUPropertyInfo@2@XZ
dui70.dll ?FontFaceProp@Element@DirectUI@@SGPBUPropertyInfo@2@XZ
dui70.dll ?CreateString@Value@DirectUI@@SGPAV12@PBGPAUHINSTANCE__@@@Z
dui70.dll ?CreateRect@Value@DirectUI@@SGPAV12@HHHHW4DynamicScaleValue@@@Z
dui70.dll ?LayoutPosProp@Element@DirectUI@@SGPBUPropertyInfo@2@XZ
dui70.dll ?VisibleProp@Element@DirectUI@@SGPBUPropertyInfo@2@XZ
dui70.dll ?CreateBool@Value@DirectUI@@SGPAV12@_N@Z
dui70.dll ?AccValueProp@Element@DirectUI@@SGPBUPropertyInfo@2@XZ
dui70.dll ?ClassProp@Element@DirectUI@@SGPBUPropertyInfo@2@XZ
dui70.dll ?FontQualityProp@Element@DirectUI@@SGPBUPropertyInfo@2@XZ
dui70.dll ?FontStyleProp@Element@DirectUI@@SGPBUPropertyInfo@2@XZ
dui70.dll ?FontWeightProp@Element@DirectUI@@SGPBUPropertyInfo@2@XZ
dui70.dll ?FontSizeProp@Element@DirectUI@@SGPBUPropertyInfo@2@XZ
dui70.dll ?PaddingProp@Element@DirectUI@@SGPBUPropertyInfo@2@XZ
dui70.dll ?ZoomToRect@TouchScrollViewer@DirectUI@@QAEJPBUtagRECT@@_N@Z
dui70.dll ?SetXOffset@Viewer@DirectUI@@QAEJH@Z
dui70.dll ?RemoveLocalValue@Element@DirectUI@@QAEJP6GPBUPropertyInfo@2@XZ@Z
dui70.dll ?CreateGraphic@Value@DirectUI@@SGPAV12@PAUHBITMAP__@@EI_N11@Z
dui70.dll ?CreateAtom@Value@DirectUI@@SGPAV12@PBG@Z
dui70.dll ?SelectionPattern@Schema@DirectUI@@2HA
dui70.dll ?GetLocation@Element@DirectUI@@QAEPBUtagPOINT@@PAPAVValue@2@@Z
dui70.dll ?SetAccState@Element@DirectUI@@QAEJH@Z
dui70.dll ?GetAccState@Element@DirectUI@@QAEHXZ
dui70.dll ?Host@NativeHWNDHost@DirectUI@@QAEXPAVElement@2@@Z
dui70.dll ?EndDefer@Element@DirectUI@@QAEXK@Z
dui70.dll ?Click@TouchButton@DirectUI@@SG?AVUID@@XZ
dui70.dll ?ContextMenuRequested@ContextMenuBehavior@DirectUI@@SG?AVUID@@XZ
dui70.dll ?MouseWithinProp@Element@DirectUI@@SGPBUPropertyInfo@2@XZ
dui70.dll InitProcessPriv
dui70.dll InitThread
dui70.dll ?Init@Schema@DirectUI@@SGJXZ
dui70.dll RegisterPVLBehaviorFactory
dui70.dll StartMessagePump
dui70.dll UnInitThread
dui70.dll UnInitProcessPriv
dui70.dll ?RemoveListener@Element@DirectUI@@QAEXPAUIElementListener@2@@Z
dui70.dll ?AddListener@Element@DirectUI@@QAEJPAUIElementListener@2@@Z
dui70.dll ??0NativeHWNDHost@DirectUI@@QAE@XZ
dui70.dll ??1NativeHWNDHost@DirectUI@@UAE@XZ
dui70.dll ?Initialize@NativeHWNDHost@DirectUI@@QAEJPBGPAUHWND__@@PAUHICON__@@HHHHHHI@Z
dui70.dll ?ShowWindow@NativeHWNDHost@DirectUI@@QAEXH@Z
dui70.dll ?HideWindow@NativeHWNDHost@DirectUI@@QAEXXZ
dui70.dll ?DestroyWindow@NativeHWNDHost@DirectUI@@QAEXXZ
dui70.dll ?CreateHostWindow@NativeHWNDHost@DirectUI@@UAEPAUHWND__@@KPBG0KHHHHPAU3@PAUHMENU__@@PAUHINSTANCE__@@PAX@Z
dui70.dll ?Release@Value@DirectUI@@QAEXXZ
dui70.dll ?Destroy@Element@DirectUI@@QAEJ_N@Z
dui70.dll ?SetAccessible@Element@DirectUI@@QAEJ_N@Z
dui70.dll ?SetValue@Element@DirectUI@@QAEJP6GPBUPropertyInfo@2@XZHPAVValue@2@@Z
dui70.dll ?Create@FillLayout@DirectUI@@SGJPAPAVLayout@2@@Z
dui70.dll ?SetLayout@Element@DirectUI@@QAEJPAVLayout@2@@Z
dui70.dll ?StartDefer@Element@DirectUI@@QAEXPAK@Z
dui70.dll ?Create@Element@DirectUI@@SGJIPAV12@PAKPAPAV12@@Z
dui70.dll ?Add@Element@DirectUI@@QAEJPAV12@@Z
dui70.dll ?FindDescendent@Element@DirectUI@@QAEPAV12@G@Z
dui70.dll StrToID
dui70.dll ?Destroy@Layout@DirectUI@@QAEXXZ
dui70.dll ?SetVisible@Element@DirectUI@@QAEJ_N@Z
dui70.dll ?EnableUiaEvents@Element@DirectUI@@QAEX_N@Z
dui70.dll UiaOnToolTip
dui70.dll ?ContentProp@Element@DirectUI@@SGPBUPropertyInfo@2@XZ
dui70.dll ?CreateGraphic@Value@DirectUI@@SGPAV12@PAUHICON__@@_N11@Z
dui70.dll ?SetAccName@Element@DirectUI@@QAEJPBG@Z
dui70.dll ?Initialize@TouchHWNDElement@DirectUI@@QAEJPAUHWND__@@_NIPAVElement@2@PAK@Z
dui70.dll ?Create@DUIXmlParser@DirectUI@@SGJPAPAV12@P6GPAVValue@2@PBGPAX@Z2P6GX11H2@Z2@Z
dui70.dll ?SetXMLFromResource@DUIXmlParser@DirectUI@@QAEJIPAUHINSTANCE__@@0@Z
dui70.dll ?Destroy@DUIXmlParser@DirectUI@@QAEXXZ
dui70.dll ?EnableDesignMode@DUIXmlParser@DirectUI@@QAEXXZ
dui70.dll ?CreateElement@DUIXmlParser@DirectUI@@QAEJPBGPAVElement@2@1PAKPAPAV32@@Z
dui70.dll ?WndProc@TouchHWNDElement@DirectUI@@UAEJPAUHWND__@@IIJ@Z
dui70.dll ?PressedProp@TouchButton@DirectUI@@SGPBUPropertyInfo@2@XZ
dui70.dll ?CreateInstance@CSafeElementProxy@@SGJPAVElement@DirectUI@@PAPAV1@@Z
dui70.dll ??1TouchHWNDElement@DirectUI@@UAE@XZ
dui70.dll ?Detach@CSafeElementProxy@@QAEXXZ
dui70.dll ??0TouchHWNDElement@DirectUI@@QAE@XZ
dui70.dll ?Register@TouchHWNDElement@DirectUI@@SGJXZ
dui70.dll ?GetFactoryLock@Element@DirectUI@@SGPAU_RTL_CRITICAL_SECTION@@XZ
dui70.dll ??1CritSecLock@DirectUI@@QAE@XZ
dui70.dll ?ClassExist@ClassInfoBase@DirectUI@@SG_NPAPAUIClassInfo@2@PBQBUPropertyInfo@2@IPAU32@PAUHINSTANCE__@@PBG_N@Z
dui70.dll ?Register@ClassInfoBase@DirectUI@@QAEJXZ
dui70.dll ?Initialize@ClassInfoBase@DirectUI@@QAEJPAUHINSTANCE__@@PBG_NPBQBUPropertyInfo@2@I@Z
dui70.dll ?GetClassInfoPtr@TouchHWNDElement@DirectUI@@SGPAUIClassInfo@2@XZ
dui70.dll ??0ClassInfoBase@DirectUI@@QAE@XZ
dui70.dll ??1ClassInfoBase@DirectUI@@UAE@XZ
dui70.dll ?IsRTLReading@Element@DirectUI@@UAE_NXZ
dui70.dll ?IsContentProtected@Element@DirectUI@@UAE_NXZ
dui70.dll ?GetContentStringAsDisplayed@Element@DirectUI@@UAEPBGPAPAVValue@2@@Z
dui70.dll ?OnPropertyChanging@Element@DirectUI@@UAE_NPBUPropertyInfo@2@HPAVValue@2@1@Z
dui70.dll ?OnPropertyChanging@Element@DirectUI@@UAE_NPAUPropertyInfo@2@HPAVValue@2@1@Z
dui70.dll ?OnPropertyChanged@TouchHWNDElement@DirectUI@@UAEXPBUPropertyInfo@2@HPAVValue@2@1@Z
dui70.dll ?OnPropertyChanged@Element@DirectUI@@UAEXPAUPropertyInfo@2@HPAVValue@2@1@Z
dui70.dll ?OnGroupChanged@HWNDElement@DirectUI@@UAEXH_N@Z
dui70.dll ?OnInput@TouchHWNDElement@DirectUI@@UAEXPAUInputEvent@2@@Z
dui70.dll ?OnKeyFocusMoved@TouchHWNDElement@DirectUI@@UAEXPAVElement@2@0@Z
dui70.dll ?OnMouseFocusMoved@Element@DirectUI@@UAEXPAV12@0@Z
dui70.dll ?OnDestroy@TouchHWNDElement@DirectUI@@UAEXXZ
dui70.dll ?OnEvent@TouchHWNDElement@DirectUI@@UAEXPAUEvent@2@@Z
dui70.dll ?Paint@Element@DirectUI@@UAEXPAUHDC__@@PBUtagRECT@@1PAU4@2@Z
dui70.dll ?GetContentSize@Element@DirectUI@@UAE?AUtagSIZE@@HHPAVSurface@2@@Z
dui70.dll ?Add@Element@DirectUI@@UAEJPAPAV12@I@Z
dui70.dll ?Insert@Element@DirectUI@@UAEJPAPAV12@II@Z
dui70.dll ?Remove@Element@DirectUI@@UAEJPAPAV12@I@Z
dui70.dll ?GetAdjacent@Element@DirectUI@@UAEPAV12@PAV12@HPBUNavReference@2@K@Z
dui70.dll ?EnsureVisible@Element@DirectUI@@UAE_NHHHH@Z
dui70.dll ?SetKeyFocus@Element@DirectUI@@UAEXXZ
dui70.dll ?AddBehavior@Element@DirectUI@@UAEJPAUIDuiBehavior@@@Z
dui70.dll ?RemoveBehavior@Element@DirectUI@@UAEJPAUIDuiBehavior@@@Z
dui70.dll ?MessageCallback@TouchHWNDElement@DirectUI@@UAEIPAUtagGMSG@@@Z
dui70.dll ?QueryInterface@Element@DirectUI@@UAGJABU_GUID@@PAPAX@Z
dui70.dll ?GetImmersiveFocusRectOffsets@Element@DirectUI@@UAEXPAUtagRECT@@@Z
dui70.dll ?_SelfLayoutDoLayout@Element@DirectUI@@MAEXHH@Z
dui70.dll ?_SelfLayoutUpdateDesiredSize@Element@DirectUI@@MAE?AUtagSIZE@@HHPAVSurface@2@@Z
dui70.dll ?OnHosted@Element@DirectUI@@MAEXPAV12@@Z
dui70.dll ?OnUnHosted@Element@DirectUI@@MAEXPAV12@@Z
dui70.dll ?UpdateTooltip@TouchHWNDElement@DirectUI@@UAEXPAVElement@2@@Z
dui70.dll ?ActivateTooltip@TouchHWNDElement@DirectUI@@UAEXPAVElement@2@K@Z
dui70.dll ?RemoveTooltip@TouchHWNDElement@DirectUI@@UAEXPAVElement@2@@Z
dui70.dll ?GetKeyFocused@Element@DirectUI@@UAE_NXZ
dui70.dll ?GetAccessibleImpl@HWNDElement@DirectUI@@UAEJPAPAUIAccessible@@@Z
dui70.dll ?DefaultAction@Element@DirectUI@@UAEJXZ
dui70.dll ?GetUIAElementProvider@Element@DirectUI@@UAEJABU_GUID@@PAPAX@Z
dui70.dll ?GetElementProviderImpl@Element@DirectUI@@UAEJPAVInvokeHelper@2@PAPAVElementProvider@2@@Z
dui70.dll ?HandleUiaDestroyListener@Element@DirectUI@@UAEXXZ
dui70.dll ?HandleUiaPropertyListener@Element@DirectUI@@UAEXPBUPropertyInfo@2@HPAVValue@2@1@Z
dui70.dll ?HandleUiaPropertyChangingListener@Element@DirectUI@@UAEXPBUPropertyInfo@2@@Z
dui70.dll ?HandleUiaEventListener@Element@DirectUI@@UAEXPAUEvent@2@@Z
dui70.dll ?GetUiaFocusDelegate@Element@DirectUI@@UAEPAV12@XZ
dui70.dll ?GetHWND@HWNDElement@DirectUI@@UAEPAUHWND__@@XZ
dui70.dll ?OnThemeChanged@HWNDElement@DirectUI@@UAEXPAUThemeChangedEvent@2@@Z
dui70.dll ?OnImmersiveColorSchemeChanged@HWNDElement@DirectUI@@UAEXXZ
dui70.dll ?OnNoChildWithShortcutFound@HWNDElement@DirectUI@@UAEXPAUKeyboardEvent@2@@Z
dui70.dll ?OnGetDlgCode@HWNDElement@DirectUI@@UAEXPAUtagMSG@@PAJ@Z
dui70.dll ?OnWmThemeChanged@HWNDElement@DirectUI@@UAEXIJ@Z
dui70.dll ?OnWmSettingChanged@HWNDElement@DirectUI@@UAEXIJ@Z
dui70.dll ?OnCompositionChanged@HWNDElement@DirectUI@@UAEXXZ
dui70.dll ?CanSetFocus@HWNDElement@DirectUI@@UAE_NXZ
dui70.dll ?IsMSAAEnabled@TouchHWNDElement@DirectUI@@UAE_NXZ
dui70.dll ?_OnUIStateChanged@TouchHWNDElement@DirectUI@@MAEXGG@Z
dui70.dll ?GetClassInfoW@TouchHWNDElement@DirectUI@@UAEPAUIClassInfo@2@XZ
dui70.dll ?CreateStyleParser@HWNDElement@DirectUI@@UAEJPAPAVDUIXmlParser@2@@Z
dui70.dll ?GetWindowClassNameAndStyle@HWNDElement@DirectUI@@UAEXPAPBGPAI@Z
dui70.dll ?AddRef@ClassInfoBase@DirectUI@@UAEXXZ
dui70.dll ?Release@ClassInfoBase@DirectUI@@UAEHXZ
dui70.dll ?EnumPropertyInfo@ClassInfoBase@DirectUI@@UAEPBUPropertyInfo@2@I@Z
dui70.dll ?GetByClassIndex@ClassInfoBase@DirectUI@@UAEPBUPropertyInfo@2@I@Z
dui70.dll ?GetPICount@ClassInfoBase@DirectUI@@UBEIXZ
dui70.dll ?GetGlobalIndex@ClassInfoBase@DirectUI@@UBEIXZ
dui70.dll ?GetName@ClassInfoBase@DirectUI@@UBEPBGXZ
dui70.dll ?IsValidProperty@ClassInfoBase@DirectUI@@UBE_NPBUPropertyInfo@2@@Z
dui70.dll ?IsSubclassOf@ClassInfoBase@DirectUI@@UBE_NPAUIClassInfo@2@@Z
dui70.dll ?GetModule@ClassInfoBase@DirectUI@@UBEPAUHINSTANCE__@@XZ
dui70.dll ?IsGlobal@ClassInfoBase@DirectUI@@UBE_NXZ
dui70.dll ?AddChild@ClassInfoBase@DirectUI@@UAEXXZ
dui70.dll ?RemoveChild@ClassInfoBase@DirectUI@@UAEXXZ
dui70.dll ?GetChildren@ClassInfoBase@DirectUI@@UBEHXZ
dui70.dll ?AssertPIZeroRef@ClassInfoBase@DirectUI@@UBEXXZ
dui70.dll GetScaleFactor
dui70.dll ?DestroyAll@Element@DirectUI@@QAEJ_N@Z
dui70.dll ?SyncDestroyWindow@NativeHWNDHost@DirectUI@@QAEXXZ
dui70.dll ?SetAlpha@Element@DirectUI@@QAEJH@Z
dui70.dll ?SetAccRole@Element@DirectUI@@QAEJH@Z
dui70.dll ?SetActive@Element@DirectUI@@QAEJH@Z
dui70.dll ?SetEnabled@Element@DirectUI@@QAEJ_N@Z
dui70.dll ?SetSelected@Element@DirectUI@@QAEJ_N@Z
dui70.dll ?GetElementScaleFactor@Element@DirectUI@@QAEMXZ
dui70.dll ?SetLayoutPos@Element@DirectUI@@QAEJH@Z
dui70.dll ?CreateInt@Value@DirectUI@@SGPAV12@HW4DynamicScaleValue@@@Z
dui70.dll ?GetExtent@Element@DirectUI@@QAEPBUtagSIZE@@PAPAVValue@2@@Z
dui70.dll ?SetWidth@Element@DirectUI@@QAEJH@Z
dui70.dll ?WidthProp@Element@DirectUI@@SGPBUPropertyInfo@2@XZ
dui70.dll ?SetValue@Element@DirectUI@@QAEJPBUPropertyInfo@2@HPAVValue@2@@Z
dui70.dll ?HeightProp@Element@DirectUI@@SGPBUPropertyInfo@2@XZ
dui70.dll ?SetFont@Element@DirectUI@@QAEJPBG@Z
dui70.dll ?SetColorFontPaletteIndex@RichText@DirectUI@@QAEJH@Z
dui70.dll ?ColorFontPaletteIndexProp@RichText@DirectUI@@SGPBUPropertyInfo@2@XZ
dui70.dll ?RemoveLocalValue@Element@DirectUI@@QAEJPBUPropertyInfo@2@@Z
dui70.dll ?SetDirection@Element@DirectUI@@QAEJH@Z
dui70.dll ?GetWidth@Element@DirectUI@@QAEHXZ
dui70.dll ?ExtentProp@Element@DirectUI@@SGPBUPropertyInfo@2@XZ
dui70.dll ?SetHeight@Element@DirectUI@@QAEJH@Z
dui70.dll ?Initialize@NativeHWNDHost@DirectUI@@QAEJPBG0PAUHWND__@@PAUHICON__@@HHHHHHPAUHINSTANCE__@@I@Z
dui70.dll ?Destroy@NativeHWNDHost@DirectUI@@QAEXXZ
dui70.dll ?SetPadding@Element@DirectUI@@QAEJHHHH@Z
dui70.dll ??0Element@DirectUI@@QAE@XZ
dui70.dll ??1Element@DirectUI@@UAE@XZ
dui70.dll ?MultipleClick@TouchButton@DirectUI@@SG?AVUID@@XZ
dui70.dll ?OnEvent@Element@DirectUI@@UAEXPAUEvent@2@@Z
dui70.dll ?SetContentString@Element@DirectUI@@QAEJPBG@Z
dui70.dll ?Register@Element@DirectUI@@SGJXZ
dui70.dll ?Initialize@Element@DirectUI@@QAEJIPAV12@PAK@Z
dui70.dll ?GetClassInfoPtr@Element@DirectUI@@SGPAUIClassInfo@2@XZ
dui70.dll ?OnPropertyChanged@Element@DirectUI@@UAEXPBUPropertyInfo@2@HPAVValue@2@1@Z
dui70.dll ?OnGroupChanged@Element@DirectUI@@UAEXH_N@Z
dui70.dll ?OnInput@Element@DirectUI@@UAEXPAUInputEvent@2@@Z
dui70.dll ?OnKeyFocusMoved@Element@DirectUI@@UAEXPAV12@0@Z
dui70.dll ?OnDestroy@Element@DirectUI@@UAEXXZ
dui70.dll ?MessageCallback@Element@DirectUI@@UAEIPAUtagGMSG@@@Z
dui70.dll ?UpdateTooltip@Element@DirectUI@@MAEXPAV12@@Z
dui70.dll ?ActivateTooltip@Element@DirectUI@@MAEXPAV12@K@Z
dui70.dll ?RemoveTooltip@Element@DirectUI@@MAEXPAV12@@Z
dui70.dll ?GetAccessibleImpl@Element@DirectUI@@UAEJPAPAUIAccessible@@@Z
dui70.dll ??0TouchButton@DirectUI@@QAE@XZ
dui70.dll ??1TouchButton@DirectUI@@UAE@XZ
dui70.dll ?GetChildren@Element@DirectUI@@QAEPAV?$DynamicArray@PAVElement@DirectUI@@$0A@@2@PAPAVValue@2@@Z
dui70.dll ?SetAccDesc@Element@DirectUI@@QAEJPBG@Z
dui70.dll ?AccDescProp@Element@DirectUI@@SGPBUPropertyInfo@2@XZ
dui70.dll ?AccNameProp@Element@DirectUI@@SGPBUPropertyInfo@2@XZ
dui70.dll ?Remove@Element@DirectUI@@QAEJPAV12@@Z
dui70.dll ?SetYOffset@BaseScrollViewer@DirectUI@@QAEJH@Z
dui70.dll ?BorderThicknessProp@Element@DirectUI@@SGPBUPropertyInfo@2@XZ
dui70.dll ?FireEvent@Element@DirectUI@@QAEXPAUEvent@2@_N1@Z
dui70.dll ?GetYOffset@BaseScrollViewer@DirectUI@@QAEHXZ
dui70.dll ?SetX@Element@DirectUI@@QAEJH@Z
dui70.dll ?SetY@Element@DirectUI@@QAEJH@Z
dui70.dll ?YProp@Element@DirectUI@@SGPBUPropertyInfo@2@XZ
dui70.dll ?GetRoot@Element@DirectUI@@QAEPAV12@XZ
dui70.dll ?OnPropertyChanged@TouchButton@DirectUI@@UAEXPBUPropertyInfo@2@HPAVValue@2@1@Z
dui70.dll ?OnEvent@TouchButton@DirectUI@@UAEXPAUEvent@2@@Z
dui70.dll ?Register@TouchButton@DirectUI@@SGJXZ
dui70.dll ?Initialize@TouchButton@DirectUI@@QAEJIPAVElement@2@PAK@Z
dui70.dll ?GetClassInfoPtr@TouchButton@DirectUI@@SGPAUIClassInfo@2@XZ
dui70.dll ?GetClassInfoPtr@TouchHyperLink@DirectUI@@SGPAUIClassInfo@2@XZ
dui70.dll ?GetClassInfoPtr@HWNDElement@DirectUI@@SGPAUIClassInfo@2@XZ
dui70.dll ?OnInput@TouchButton@DirectUI@@UAEXPAUInputEvent@2@@Z
dui70.dll ?Paint@RichText@DirectUI@@UAEXPAUHDC__@@PBUtagRECT@@1PAU4@2@Z
dui70.dll ?GetContentSize@RichText@DirectUI@@UAE?AUtagSIZE@@HHPAVSurface@2@@Z
dui70.dll ?GetImmersiveFocusRectOffsets@TouchButton@DirectUI@@UAEXPAUtagRECT@@@Z
dui70.dll ?OnHosted@TouchButton@DirectUI@@UAEXPAVElement@2@@Z
dui70.dll ?OnUnHosted@TouchButton@DirectUI@@UAEXPAVElement@2@@Z
dui70.dll ?DefaultAction@TouchButton@DirectUI@@UAEJXZ
dui70.dll ?GetForegroundColorRef@TouchButton@DirectUI@@UAEJPAK@Z
dui70.dll ?FireClickEvent@TouchButton@DirectUI@@UAEXIIW4ClickDevice@12@PAUtagPOINT@@@Z
dui70.dll ?FireRightClickEvent@TouchButton@DirectUI@@UAEXIPAUtagPOINT@@@Z
dui70.dll ?TooltipTimerStarting@TouchHWNDElement@DirectUI@@SG?AVUID@@XZ
dui70.dll ?GetValue@Element@DirectUI@@QAEPAVValue@2@P6GPBUPropertyInfo@2@XZHPAUUpdateCache@2@@Z
dui70.dll ?PatternFromPatternId@Schema@DirectUI@@SG?AW4Pattern@12@H@Z
dui70.dll ?DoInvoke@ElementProvider@DirectUI@@IAAJHZZ
dui70.dll ?Init@ElementProvider@DirectUI@@MAEJPAVElement@2@PAVInvokeHelper@2@@Z
dui70.dll ?Release@ElementProvider@DirectUI@@UAGKXZ
dui70.dll ??1ElementProvider@DirectUI@@UAE@XZ
dui70.dll ?GetProperty@ElementProxy@DirectUI@@IAEJPAUtagVARIANT@@H@Z
dui70.dll ?DoMethod@ElementProxy@DirectUI@@UAEJHPAD@Z
dui70.dll ?Init@ElementProxy@DirectUI@@MAEXPAVElement@2@@Z
dui70.dll ?IsPatternSupported@ElementProxy@DirectUI@@IAEJW4Pattern@Schema@2@PA_N@Z
dui70.dll ?CreatePatternProvider@Schema@DirectUI@@SGJW4Pattern@12@PAVElementProvider@2@PAPAUIUnknown@@@Z
dui70.dll ??0ElementProvider@DirectUI@@QAE@XZ
dui70.dll ?GetElement@ElementProvider@DirectUI@@UAEPDVElement@2@XZ
dui70.dll ?TossElement@ElementProvider@DirectUI@@UAEXXZ
dui70.dll ?QueryInterface@ElementProvider@DirectUI@@UAGJABU_GUID@@PAPAX@Z
dui70.dll ?AddRef@ElementProvider@DirectUI@@UAGKXZ
dui70.dll NotifyAccessibilityEvent
dui70.dll ?GetPropertyValue@ElementProvider@DirectUI@@UAGJHPAUtagVARIANT@@@Z
dui70.dll ?get_HostRawElementProvider@ElementProvider@DirectUI@@UAGJPAPAUIRawElementProviderSimple@@@Z
dui70.dll ?ShowContextMenu@ElementProvider@DirectUI@@UAGJXZ
dui70.dll ?Navigate@ElementProvider@DirectUI@@UAGJW4NavigateDirection@@PAPAUIRawElementProviderFragment@@@Z
dui70.dll ?GetRuntimeId@ElementProvider@DirectUI@@UAGJPAPAUtagSAFEARRAY@@@Z
dui70.dll ?get_BoundingRectangle@ElementProvider@DirectUI@@UAGJPAUUiaRect@@@Z
dui70.dll ?GetEmbeddedFragmentRoots@ElementProvider@DirectUI@@UAGJPAPAUtagSAFEARRAY@@@Z
dui70.dll ?SetFocus@ElementProvider@DirectUI@@UAGJXZ
dui70.dll ?get_FragmentRoot@ElementProvider@DirectUI@@UAGJPAPAUIRawElementProviderFragmentRoot@@@Z
dui70.dll ?AdviseEventAdded@ElementProvider@DirectUI@@UAGJHPAUtagSAFEARRAY@@@Z
dui70.dll ?AdviseEventRemoved@ElementProvider@DirectUI@@UAGJHPAUtagSAFEARRAY@@@Z
dui70.dll ?SetAccValue@Element@DirectUI@@QAEJPBG@Z
dui70.dll ?GetPadding@Element@DirectUI@@QAEPBUtagRECT@@PAPAVValue@2@@Z
dui70.dll ?GetContentString@Element@DirectUI@@QAEPBGPAPAVValue@2@@Z
dui70.dll ?SelectionItemPattern@Schema@DirectUI@@2HA
dui70.dll ?Release@RefcountBase@DirectUI@@QAEJXZ
dui70.dll ?AddRef@RefcountBase@DirectUI@@QAEJXZ
dui70.dll ?DoInvokeArgs@ElementProvider@DirectUI@@QAEJHP6GPAVProviderProxy@2@PAVElement@2@@ZPAD@Z
dui70.dll ??1RefcountBase@DirectUI@@UAE@XZ
dui70.dll ?TossPatternProvider@ElementProvider@DirectUI@@QAEXW4Pattern@Schema@2@@Z
dui70.dll ?Init@ProviderProxy@DirectUI@@MAEXPAVElement@2@@Z
dui70.dll ?GetInvokeHelper@InvokeManager@DirectUI@@SGJPAPAVInvokeHelper@2@@Z
dui70.dll ??0RefcountBase@DirectUI@@QAE@XZ
dui70.dll ?Find@ElementProviderManager@DirectUI@@SGPAVElementProvider@2@PAVElement@2@@Z
dui70.dll ?Create@HWNDElementProvider@DirectUI@@SGJPAVHWNDElement@2@PAVInvokeHelper@2@PAPAV12@@Z
dui70.dll ?Create@ElementProvider@DirectUI@@SGJPAVElement@2@PAVInvokeHelper@2@PAPAV12@@Z
dui70.dll ?GetStringNull@Value@DirectUI@@SGPAV12@XZ
dui70.dll ?GetIntZero@Value@DirectUI@@SGPAV12@XZ
dui70.dll ?ManipulationStarted@TouchScrollViewer@DirectUI@@SG?AVUID@@XZ
dui70.dll ?ManipulationCompleted@TouchScrollViewer@DirectUI@@SG?AVUID@@XZ
dui70.dll ?YOffsetProp@BaseScrollViewer@DirectUI@@SGPBUPropertyInfo@2@XZ
dui70.dll ?SetID@Element@DirectUI@@QAEJPBG@Z
dui70.dll ?GetHeight@Element@DirectUI@@QAEHXZ
dui70.dll ?SetYScrollable@BaseScrollViewer@DirectUI@@QAEJ_N@Z
dui70.dll ?GetVScrollbar@TouchScrollViewer@DirectUI@@QAEJPAPAVElement@2@@Z
kernel32.dll HeapReAlloc
kernel32.dll OpenMutexW
kernel32.dll RegQueryValueExW
kernel32.dll CompareStringOrdinal
kernel32.dll LCIDToLocaleName
kernel32.dll MulDiv
kernel32.dll TryEnterCriticalSection
kernel32.dll GetSystemDirectoryW
kernel32.dll GetModuleFileNameW
kernel32.dll FindStringOrdinal
kernel32.dll OpenProcess
kernel32.dll RegOpenKeyExW
kernel32.dll WaitForMultipleObjectsEx
kernel32.dll FreeLibraryAndExitThread
kernel32.dll SetEvent
kernel32.dll CreateThread
kernel32.dll ResetEvent
kernel32.dll CreateEventW
kernel32.dll InitializeCriticalSectionAndSpinCount
kernel32.dll CreateThreadpoolTimer
kernel32.dll CreateThreadpoolWait
kernel32.dll RegNotifyChangeKeyValue
kernel32.dll CreateEventExW
kernel32.dll RegCreateKeyExW
kernel32.dll RegGetValueW
kernel32.dll LoadLibraryExW
kernel32.dll FindResourceExW
kernel32.dll LoadResource
kernel32.dll LockResource
kernel32.dll SizeofResource
kernel32.dll InitializeCriticalSectionEx
kernel32.dll WaitForThreadpoolTimerCallbacks
kernel32.dll CloseThreadpoolTimer
kernel32.dll SetThreadpoolTimer
kernel32.dll ReleaseSRWLockShared
kernel32.dll AcquireSRWLockShared
kernel32.dll AcquireSRWLockExclusive
kernel32.dll ReleaseSRWLockExclusive
kernel32.dll SetThreadpoolWait
kernel32.dll WaitForThreadpoolWaitCallbacks
kernel32.dll CloseThreadpoolWait
kernel32.dll RegCloseKey
kernel32.dll FreeLibrary
api-ms-win-security-base-l1-1-0.dll IsValidSid
api-ms-win-security-base-l1-1-0.dll GetTokenInformation
api-ms-win-security-base-l1-1-0.dll GetSidSubAuthorityCount
api-ms-win-security-base-l1-1-0.dll GetSidSubAuthority
api-ms-win-core-delayload-l1-1-1.dll ResolveDelayLoadedAPI
api-ms-win-core-delayload-l1-1-0.dll DelayLoadFailureHook
ntdll.dll RtlUnsubscribeWnfStateChangeNotification
ntdll.dll RtlSubscribeWnfStateChangeNotification
ntdll.dll RtlQueryWnfStateData
ntdll.dll RtlCompareUnicodeString
ntdll.dll RtlNtStatusToDosErrorNoTeb
ntdll.dll RtlAllocateHeap
ntdll.dll RtlInitUnicodeString
ntdll.dll NtQueryInformationToken
ntdll.dll RtlFreeHeap
ntdll.dll EtwEventWriteTransfer
ntdll.dll RtlNtStatusToDosError
ntdll.dll NtQuerySecurityAttributesToken
ntdll.dll RtlPublishWnfStateData
imm32.dll ImmDisableLegacyIME
imm32.dll ImmDisableIME
