msvcrt.dll ??0exception@@QEAA@XZ
msvcrt.dll ??0exception@@QEAA@AEBV0@@Z
msvcrt.dll __dllonexit
msvcrt.dll _onexit
msvcrt.dll ??1exception@@UEAA@XZ
msvcrt.dll __CxxFrameHandler3
msvcrt.dll _vsnprintf_s
msvcrt.dll memset
msvcrt.dll _unlock
msvcrt.dll __C_specific_handler
msvcrt.dll wcscspn
msvcrt.dll _lock
msvcrt.dll _purecall
msvcrt.dll _vsnwprintf
msvcrt.dll ??1type_info@@UEAA@XZ
msvcrt.dll memmove
msvcrt.dll memcpy
msvcrt.dll memcmp
msvcrt.dll floorf
msvcrt.dll _CxxThrowException
msvcrt.dll wcstoul
msvcrt.dll wcschr
msvcrt.dll wcsstr
msvcrt.dll _vsnprintf
msvcrt.dll wcsrchr
msvcrt.dll wcscpy_s
msvcrt.dll _wcsnicmp
msvcrt.dll wcsncpy_s
msvcrt.dll _callnewh
msvcrt.dll wcstombs
msvcrt.dll _wcsicmp
msvcrt.dll free
msvcrt.dll _XcptFilter
msvcrt.dll _amsg_exit
msvcrt.dll malloc
msvcrt.dll _initterm
msvcrt.dll ?terminate@@YAXXZ
msvcrt.dll memcpy_s
msvcrt.dll __CxxFrameHandler4
msvcrt.dll memmove_s
shcore.dll SHEnumKeyExW
shcore.dll SHDeleteKeyW
shcore.dll IUnknown_Set
shcore.dll SHStrDupW
shell32.dll SHExtractIconsW
shell32.dll SHGetFolderPathEx
shlwapi.dll StrDupW
shlwapi.dll PathFileExistsW
uxtheme.dll IsCompositionActive
api-ms-win-core-libraryloader-l1-2-0.dll SizeofResource
api-ms-win-core-libraryloader-l1-2-0.dll LockResource
api-ms-win-core-libraryloader-l1-2-0.dll LoadStringW
api-ms-win-core-libraryloader-l1-2-0.dll GetModuleHandleExW
api-ms-win-core-libraryloader-l1-2-0.dll LoadLibraryExW
api-ms-win-core-libraryloader-l1-2-0.dll LoadResource
api-ms-win-core-libraryloader-l1-2-0.dll FreeLibrary
api-ms-win-core-libraryloader-l1-2-0.dll GetProcAddress
api-ms-win-core-libraryloader-l1-2-0.dll GetModuleFileNameA
api-ms-win-core-libraryloader-l1-2-0.dll GetModuleFileNameW
api-ms-win-core-libraryloader-l1-2-0.dll DisableThreadLibraryCalls
api-ms-win-core-libraryloader-l1-2-0.dll FindResourceExW
api-ms-win-core-libraryloader-l1-2-0.dll GetModuleHandleW
api-ms-win-core-synch-l1-1-0.dll ReleaseSemaphore
api-ms-win-core-synch-l1-1-0.dll EnterCriticalSection
api-ms-win-core-synch-l1-1-0.dll InitializeCriticalSectionEx
api-ms-win-core-synch-l1-1-0.dll LeaveCriticalSection
api-ms-win-core-synch-l1-1-0.dll WaitForSingleObject
api-ms-win-core-synch-l1-1-0.dll CreateSemaphoreExW
api-ms-win-core-synch-l1-1-0.dll ReleaseMutex
api-ms-win-core-synch-l1-1-0.dll ReleaseSRWLockExclusive
api-ms-win-core-synch-l1-1-0.dll InitializeCriticalSection
api-ms-win-core-synch-l1-1-0.dll AcquireSRWLockExclusive
api-ms-win-core-synch-l1-1-0.dll WaitForSingleObjectEx
api-ms-win-core-synch-l1-1-0.dll OpenSemaphoreW
api-ms-win-core-synch-l1-1-0.dll CreateEventExW
api-ms-win-core-synch-l1-1-0.dll ReleaseSRWLockShared
api-ms-win-core-synch-l1-1-0.dll InitializeSRWLock
api-ms-win-core-synch-l1-1-0.dll CreateMutexExW
api-ms-win-core-synch-l1-1-0.dll AcquireSRWLockShared
api-ms-win-core-synch-l1-1-0.dll DeleteCriticalSection
api-ms-win-core-synch-l1-1-0.dll CreateEventW
api-ms-win-core-synch-l1-1-0.dll WaitForMultipleObjectsEx
api-ms-win-core-synch-l1-1-0.dll SetEvent
api-ms-win-core-synch-l1-1-0.dll OpenEventW
api-ms-win-core-heap-l1-1-0.dll GetProcessHeap
api-ms-win-core-heap-l1-1-0.dll HeapFree
api-ms-win-core-heap-l1-1-0.dll HeapAlloc
api-ms-win-core-heap-l1-1-0.dll HeapReAlloc
api-ms-win-core-errorhandling-l1-1-0.dll UnhandledExceptionFilter
api-ms-win-core-errorhandling-l1-1-0.dll RaiseException
api-ms-win-core-errorhandling-l1-1-0.dll SetUnhandledExceptionFilter
api-ms-win-core-errorhandling-l1-1-0.dll GetLastError
api-ms-win-core-errorhandling-l1-1-0.dll SetLastError
api-ms-win-core-threadpool-l1-2-0.dll CloseThreadpoolTimer
api-ms-win-core-threadpool-l1-2-0.dll CreateThreadpoolTimer
api-ms-win-core-threadpool-l1-2-0.dll WaitForThreadpoolTimerCallbacks
api-ms-win-core-threadpool-l1-2-0.dll SetThreadpoolTimer
api-ms-win-core-processthreads-l1-1-0.dll GetExitCodeProcess
api-ms-win-core-processthreads-l1-1-0.dll CreateProcessW
api-ms-win-core-processthreads-l1-1-0.dll TerminateProcess
api-ms-win-core-processthreads-l1-1-0.dll GetCurrentProcessId
api-ms-win-core-processthreads-l1-1-0.dll GetCurrentThreadId
api-ms-win-core-processthreads-l1-1-0.dll GetCurrentProcess
api-ms-win-core-localization-l1-2-0.dll GetLocaleInfoEx
api-ms-win-core-localization-l1-2-0.dll GetLocaleInfoW
api-ms-win-core-localization-l1-2-0.dll FormatMessageW
api-ms-win-core-localization-l1-2-0.dll GetFileMUIPath
api-ms-win-core-localization-l1-2-0.dll GetThreadUILanguage
api-ms-win-core-localization-l1-2-0.dll SetThreadUILanguage
api-ms-win-core-localization-l1-2-0.dll GetUILanguageInfo
api-ms-win-core-debug-l1-1-0.dll OutputDebugStringA
api-ms-win-core-debug-l1-1-0.dll DebugBreak
api-ms-win-core-debug-l1-1-0.dll IsDebuggerPresent
api-ms-win-core-debug-l1-1-0.dll OutputDebugStringW
api-ms-win-core-handle-l1-1-0.dll CloseHandle
api-ms-win-core-com-l1-1-0.dll CoTaskMemAlloc
api-ms-win-core-com-l1-1-0.dll CoWaitForMultipleHandles
api-ms-win-core-com-l1-1-0.dll CoTaskMemRealloc
api-ms-win-core-com-l1-1-0.dll CoCreateInstance
api-ms-win-core-com-l1-1-0.dll CoTaskMemFree
api-ms-win-core-com-l1-1-0.dll CoGetMalloc
api-ms-win-core-com-l1-1-0.dll CLSIDFromString
api-ms-win-core-com-l1-1-0.dll CoGetApartmentType
api-ms-win-core-sysinfo-l1-1-0.dll GetSystemTimeAsFileTime
api-ms-win-core-sysinfo-l1-1-0.dll GetSystemDirectoryW
api-ms-win-core-sysinfo-l1-1-0.dll GetTickCount64
api-ms-win-core-sysinfo-l1-1-0.dll GetTickCount
api-ms-win-eventing-provider-l1-1-0.dll EventWriteTransfer
api-ms-win-eventing-provider-l1-1-0.dll EventSetInformation
api-ms-win-eventing-provider-l1-1-0.dll EventActivityIdControl
api-ms-win-eventing-provider-l1-1-0.dll EventUnregister
api-ms-win-eventing-provider-l1-1-0.dll EventRegister
api-ms-win-core-registry-l1-1-0.dll RegGetValueW
api-ms-win-core-registry-l1-1-0.dll RegQueryInfoKeyW
api-ms-win-core-registry-l1-1-0.dll RegQueryValueExW
api-ms-win-core-registry-l1-1-0.dll RegCloseKey
api-ms-win-core-registry-l1-1-0.dll RegSetValueExW
api-ms-win-core-registry-l1-1-0.dll RegOpenKeyExW
api-ms-win-core-registry-l1-1-0.dll RegCreateKeyExW
api-ms-win-core-synch-l1-2-0.dll InitOnceComplete
api-ms-win-core-synch-l1-2-0.dll SleepConditionVariableSRW
api-ms-win-core-synch-l1-2-0.dll WakeAllConditionVariable
api-ms-win-core-synch-l1-2-0.dll InitOnceBeginInitialize
api-ms-win-core-synch-l1-2-0.dll Sleep
api-ms-win-core-libraryloader-l1-2-1.dll FindResourceW
api-ms-win-core-libraryloader-l1-2-1.dll LoadLibraryW
api-ms-win-core-file-l1-1-0.dll FindNextFileW
api-ms-win-core-file-l1-1-0.dll CreateFileW
api-ms-win-core-file-l1-1-0.dll FindFirstFileW
api-ms-win-core-file-l1-1-0.dll GetDriveTypeW
api-ms-win-core-file-l1-1-0.dll FindClose
api-ms-win-core-file-l1-1-0.dll ReadFile
api-ms-win-core-file-l1-1-0.dll GetLogicalDrives
api-ms-win-core-string-l1-1-0.dll CompareStringOrdinal
api-ms-win-core-string-l1-1-0.dll CompareStringW
api-ms-win-core-processenvironment-l1-1-0.dll ExpandEnvironmentStringsW
api-ms-win-core-heap-l2-1-0.dll LocalAlloc
api-ms-win-core-heap-l2-1-0.dll LocalFree
api-ms-win-core-rtlsupport-l1-1-0.dll RtlLookupFunctionEntry
api-ms-win-core-rtlsupport-l1-1-0.dll RtlCaptureContext
api-ms-win-core-rtlsupport-l1-1-0.dll RtlVirtualUnwind
api-ms-win-core-profile-l1-1-0.dll QueryPerformanceCounter
api-ms-win-core-path-l1-1-0.dll PathCchCombine
api-ms-win-core-path-l1-1-0.dll PathCchAppend
oleaut32.dll SysAllocString
oleaut32.dll SysFreeString
gdi32.dll GetObjectW
gdi32.dll GetDeviceCaps
gdi32.dll SelectObject
gdi32.dll GetTextMetricsW
gdi32.dll DeleteObject
gdi32.dll CreateFontIndirectW
gdi32.dll RemoveFontMemResourceEx
gdi32.dll CreateSolidBrush
gdi32.dll SetStretchBltMode
gdi32.dll SetBkColor
gdi32.dll SetBkMode
gdi32.dll SetTextColor
gdi32.dll GetTextExtentPoint32W
gdi32.dll DeleteDC
gdi32.dll StretchBlt
gdi32.dll CreateCompatibleDC
gdi32.dll CreateCompatibleBitmap
gdi32.dll BitBlt
gdi32.dll SetBrushOrgEx
gdi32.dll SetWorldTransform
gdi32.dll SetTextAlign
gdi32.dll SetMapMode
gdi32.dll TextOutW
gdi32.dll GetTextAlign
gdi32.dll SetLayout
gdi32.dll SetGraphicsMode
gdi32.dll CreateDIBitmap
gdi32.dll AddFontMemResourceEx
gdi32.dll GdiAlphaBlend
gdi32.dll CreateDIBSection
gdi32.dll SetTextCharacterExtra
gdi32.dll GetStockObject
kernel32.dll DeactivateActCtx
kernel32.dll ActivateActCtx
kernel32.dll FindActCtxSectionStringW
kernel32.dll CreateActCtxW
kernel32.dll QueryActCtxW
kernel32.dll MulDiv
kernel32.dll GetFileAttributesW
kernel32.dll CreateDirectoryW
kernel32.dll GetFullPathNameW
kernel32.dll CreateThread
kernel32.dll GetSystemDefaultUILanguage
kernel32.dll CreateMutexW
kernel32.dll GetExitCodeThread
kernel32.dll OpenMutexW
ntdll.dll EtwTraceMessage
ntdll.dll WinSqmStartSession
ntdll.dll RtlQueryWnfStateData
ntdll.dll RtlSubscribeWnfStateChangeNotification
ntdll.dll RtlUnsubscribeWnfStateChangeNotification
ntdll.dll NtQuerySystemInformation
ntdll.dll RtlFreeHeap
ntdll.dll RtlAllocateHeap
ntdll.dll WinSqmAddToStream
ntdll.dll WinSqmSetDWORD
ntdll.dll WinSqmEndSession
ole32.dll CoInitializeEx
ole32.dll CoUninitialize
uiautomationcore.dll UiaRaiseAutomationEvent
user32.dll GetMessageW
user32.dll SetDisplayAutoRotationPreferences
user32.dll RegisterHotKey
user32.dll UpdateWindow
user32.dll GetParent
user32.dll GetWindowRect
user32.dll SetTimer
user32.dll KillTimer
user32.dll LoadImageW
user32.dll GetDC
user32.dll ReleaseDC
user32.dll PostThreadMessageW
user32.dll DestroyIcon
user32.dll MapWindowPoints
user32.dll RegisterWindowMessageW
user32.dll GetActiveWindow
user32.dll EnumDisplaySettingsW
user32.dll DispatchMessageW
user32.dll DestroyWindow
user32.dll SetWindowCompositionAttribute
user32.dll GetWindowLongPtrW
user32.dll DefWindowProcW
user32.dll SendInput
user32.dll ClientToScreen
user32.dll RegisterClassExW
user32.dll SetRectEmpty
user32.dll GetForegroundWindow
user32.dll CharUpperW
user32.dll GetWindowTextW
user32.dll EndPaint
user32.dll BeginPaint
user32.dll InvalidateRect
user32.dll DrawTextW
user32.dll GetClientRect
user32.dll SetPropW
user32.dll SetFocus
user32.dll SetWindowPos
user32.dll RealGetWindowClassW
user32.dll GetSysColor
user32.dll SystemParametersInfoW
user32.dll RemovePropW
user32.dll FindWindowW
user32.dll ShowWindow
user32.dll RegisterShellHookWindow
user32.dll GetSystemMetrics
user32.dll MsgWaitForMultipleObjectsEx
user32.dll GetAncestor
user32.dll GetKeyState
user32.dll PeekMessageW
user32.dll PostQuitMessage
user32.dll LoadBitmapW
user32.dll FillRect
user32.dll TranslateMessage
user32.dll SetCursor
user32.dll SetRect
user32.dll LoadCursorW
user32.dll GetMonitorInfoW
user32.dll GetWindowLongW
user32.dll FindWindowExW
user32.dll IsWindowVisible
user32.dll GetPropW
user32.dll CreateWindowExW
user32.dll NotifyWinEvent
user32.dll IsWindowEnabled
user32.dll GetDisplayAutoRotationPreferences
user32.dll SendMessageW
user32.dll SetWindowTextW
user32.dll SetClassLongPtrW
user32.dll SetThreadDesktop
user32.dll PostMessageW
user32.dll MonitorFromWindow
user32.dll SetSysColors
dui70.dll ?EventFromEventId@Schema@DirectUI@@SA?AW4Event@12@H@Z
dui70.dll ?WantEvent@EventManager@DirectUI@@SA_NW4Event@Schema@2@@Z
dui70.dll ?FWantAnyEvent@EventManager@DirectUI@@SA_NPEAVElement@2@@Z
dui70.dll ?GetPadding@Element@DirectUI@@QEAAPEBUtagRECT@@PEAPEAVValue@2@@Z
dui70.dll ?GetFontSize@Element@DirectUI@@QEAAHXZ
dui70.dll ?SetFontFace@Element@DirectUI@@QEAAJPEBG@Z
dui70.dll ?SetFontSize@Element@DirectUI@@QEAAJH@Z
dui70.dll ?SetVerticalScript@RichText@DirectUI@@QEAAJ_N@Z
dui70.dll ?HeightProp@Element@DirectUI@@SAPEBUPropertyInfo@2@XZ
dui70.dll ?PaddingProp@Element@DirectUI@@SAPEBUPropertyInfo@2@XZ
dui70.dll ?FontFaceProp@Element@DirectUI@@SAPEBUPropertyInfo@2@XZ
dui70.dll ?FontSizeProp@Element@DirectUI@@SAPEBUPropertyInfo@2@XZ
dui70.dll ?FireRightClickEvent@TouchButton@DirectUI@@UEAAXIPEAUtagPOINT@@@Z
dui70.dll ?FireClickEvent@TouchButton@DirectUI@@UEAAXIIW4ClickDevice@12@PEAUtagPOINT@@@Z
dui70.dll ?GetForegroundColorRef@TouchButton@DirectUI@@UEAAJPEAK@Z
dui70.dll ?DefaultAction@TouchButton@DirectUI@@UEAAJXZ
dui70.dll ?OnUnHosted@TouchButton@DirectUI@@UEAAXPEAVElement@2@@Z
dui70.dll ?OnHosted@TouchButton@DirectUI@@UEAAXPEAVElement@2@@Z
dui70.dll ?OnEvent@TouchButton@DirectUI@@UEAAXPEAUEvent@2@@Z
dui70.dll ?OnInput@TouchButton@DirectUI@@UEAAXPEAUInputEvent@2@@Z
dui70.dll ?Initialize@TouchButton@DirectUI@@QEAAJIPEAVElement@2@PEAK@Z
dui70.dll ?Register@TouchButton@DirectUI@@SAJXZ
dui70.dll ?OnPropertyChanged@TouchButton@DirectUI@@UEAAXPEBUPropertyInfo@2@HPEAVValue@2@1@Z
dui70.dll ?DirectionProp@Element@DirectUI@@SAPEBUPropertyInfo@2@XZ
dui70.dll ?MouseWithinProp@Element@DirectUI@@SAPEBUPropertyInfo@2@XZ
dui70.dll ?GetPressed@TouchButton@DirectUI@@QEAA_NXZ
dui70.dll ?SetFontColorRuns@RichText@DirectUI@@QEAAJPEBG@Z
dui70.dll ?SetOverhang@Element@DirectUI@@QEAAJ_N@Z
dui70.dll ?SetFont@Element@DirectUI@@QEAAJPEBG@Z
dui70.dll ?SetDisableAccTextExtend@RichText@DirectUI@@QEAAJ_N@Z
dui70.dll ??1TouchButton@DirectUI@@UEAA@XZ
dui70.dll ??0TouchButton@DirectUI@@QEAA@XZ
dui70.dll ?SetPromptWithCaret@TouchEdit2@DirectUI@@QEAAJ_N@Z
dui70.dll ?SetPromptText@TouchEdit2@DirectUI@@QEAAJPEBG@Z
dui70.dll ?SetMaxLength@TouchEditBase@DirectUI@@QEAAJH@Z
dui70.dll ?SetEncodedContentString@Element@DirectUI@@QEAAJPEBG@Z
dui70.dll ?DestroyAll@Element@DirectUI@@QEAAJ_N@Z
dui70.dll ?SetActive@Element@DirectUI@@QEAAJH@Z
dui70.dll ?Create@TouchCommandButton@DirectUI@@SAJPEAVElement@2@PEAKPEAPEAV32@@Z
dui70.dll ?SetSelection@TouchSelect@DirectUI@@QEAAJPEAVElement@2@@Z
dui70.dll ?AddString@TouchSelect@DirectUI@@QEAAJPEBGPEAPEAVElement@2@@Z
dui70.dll ?GetClassInfoPtr@TouchSelect@DirectUI@@SAPEAUIClassInfo@2@XZ
dui70.dll ?RemoveItem@TouchSelect@DirectUI@@QEAAJH@Z
dui70.dll ?SetSelectionIndex@TouchSelect@DirectUI@@QEAAJH@Z
dui70.dll ?SetItemData@TouchSelect@DirectUI@@QEAAJHPEAUIUnknown@@@Z
dui70.dll ?GetItemCount@TouchSelect@DirectUI@@QEAAKXZ
dui70.dll ?AddString@TouchSelect@DirectUI@@QEAAJPEBG@Z
dui70.dll ?RemoveAll@TouchSelect@DirectUI@@QEAAXXZ
dui70.dll ?SelectionChange@TouchSelect@DirectUI@@SA?AVUID@@XZ
dui70.dll ?GetSelectionIndex@TouchSelect@DirectUI@@QEAAHXZ
dui70.dll ?GetItemData@TouchSelect@DirectUI@@QEAAJHPEAPEAUIUnknown@@@Z
dui70.dll ?SetSelected@Element@DirectUI@@QEAAJ_N@Z
dui70.dll ?RemoveAll@Element@DirectUI@@QEAAJXZ
dui70.dll ?GetClassInfoPtr@RichText@DirectUI@@SAPEAUIClassInfo@2@XZ
dui70.dll ?GetEncodedContentString@Element@DirectUI@@QEAAJPEAG_K@Z
dui70.dll ?GetClassInfoPtr@TouchHyperLink@DirectUI@@SAPEAUIClassInfo@2@XZ
dui70.dll ?KeyWithinProp@Element@DirectUI@@SAPEBUPropertyInfo@2@XZ
dui70.dll ?Paste@TouchEditBase@DirectUI@@SA?AVUID@@XZ
dui70.dll ?SetInputScope@TouchEdit2@DirectUI@@QEAAJW4__MIDL___MIDL_itf_inputscope_0000_0000_0001@@@Z
dui70.dll ?DisableSelectionHandlesOnEmptyContent@TouchEdit2@DirectUI@@QEAAXXZ
dui70.dll ??1AutoLock@DirectUI@@QEAA@XZ
dui70.dll ??0ElementProvider@DirectUI@@QEAA@XZ
dui70.dll ?AdviseEventRemoved@ElementProvider@DirectUI@@UEAAJHPEAUtagSAFEARRAY@@@Z
dui70.dll ?AdviseEventAdded@ElementProvider@DirectUI@@UEAAJHPEAUtagSAFEARRAY@@@Z
dui70.dll ?get_FragmentRoot@ElementProvider@DirectUI@@UEAAJPEAPEAUIRawElementProviderFragmentRoot@@@Z
dui70.dll ?SetFocus@ElementProvider@DirectUI@@UEAAJXZ
dui70.dll ?GetEmbeddedFragmentRoots@ElementProvider@DirectUI@@UEAAJPEAPEAUtagSAFEARRAY@@@Z
dui70.dll ?get_BoundingRectangle@ElementProvider@DirectUI@@UEAAJPEAUUiaRect@@@Z
dui70.dll ?Navigate@ElementProvider@DirectUI@@UEAAJW4NavigateDirection@@PEAPEAUIRawElementProviderFragment@@@Z
dui70.dll ?ShowContextMenu@ElementProvider@DirectUI@@UEAAJXZ
dui70.dll ?get_HostRawElementProvider@ElementProvider@DirectUI@@UEAAJPEAPEAUIRawElementProviderSimple@@@Z
dui70.dll ?GetPropertyValue@ElementProvider@DirectUI@@UEAAJHPEAUtagVARIANT@@@Z
dui70.dll ?get_ProviderOptions@ElementProvider@DirectUI@@UEAAJPEAW4ProviderOptions@@@Z
dui70.dll ?AddRef@ElementProvider@DirectUI@@UEAAKXZ
dui70.dll ?QueryInterface@ElementProvider@DirectUI@@UEAAJAEBU_GUID@@PEAPEAX@Z
dui70.dll ?TossElement@ElementProvider@DirectUI@@UEAAXXZ
dui70.dll ?GetElement@ElementProvider@DirectUI@@UEAAPEDVElement@2@XZ
dui70.dll ?GetForegroundColorRef@RichText@DirectUI@@UEAAJPEAK@Z
dui70.dll ?OnHosted@RichText@DirectUI@@UEAAXPEAVElement@2@@Z
dui70.dll ?GetContentSize@RichText@DirectUI@@UEAA?AUtagSIZE@@HHPEAVSurface@2@@Z
dui70.dll ?Paint@RichText@DirectUI@@UEAAXPEAUHDC__@@PEBUtagRECT@@1PEAU4@2@Z
dui70.dll ?OnEvent@RichText@DirectUI@@UEAAXPEAUEvent@2@@Z
dui70.dll ?OnPropertyChanged@RichText@DirectUI@@UEAAXPEBUPropertyInfo@2@HPEAVValue@2@1@Z
dui70.dll ?CreatePatternProvider@Schema@DirectUI@@SAJW4Pattern@12@PEAVElementProvider@2@PEAPEAUIUnknown@@@Z
dui70.dll ?IsPatternSupported@ElementProxy@DirectUI@@IEAAJW4Pattern@Schema@2@PEA_N@Z
dui70.dll ?Release@ElementProvider@DirectUI@@UEAAKXZ
dui70.dll ?Init@ElementProvider@DirectUI@@MEAAJPEAVElement@2@PEAVInvokeHelper@2@@Z
dui70.dll ?DoInvoke@ElementProvider@DirectUI@@IEAAJHZZ
dui70.dll ?PatternFromPatternId@Schema@DirectUI@@SA?AW4Pattern@12@H@Z
dui70.dll ?Init@ElementProxy@DirectUI@@MEAAXPEAVElement@2@@Z
dui70.dll ?DoMethod@ElementProxy@DirectUI@@UEAAJHPEAD@Z
dui70.dll ?GetProperty@ElementProxy@DirectUI@@IEAAJPEAUtagVARIANT@@H@Z
dui70.dll ?Initialize@RichText@DirectUI@@QEAAJPEAVElement@2@PEAK@Z
dui70.dll ??1RichText@DirectUI@@UEAA@XZ
dui70.dll ??0RichText@DirectUI@@QEAA@XZ
dui70.dll ??1ElementProvider@DirectUI@@UEAA@XZ
dui70.dll ?GetAccessibleImpl@Element@DirectUI@@UEAAJPEAPEAUIAccessible@@@Z
dui70.dll ?RemoveTooltip@Element@DirectUI@@MEAAXPEAV12@@Z
dui70.dll ?ActivateTooltip@Element@DirectUI@@MEAAXPEAV12@K@Z
dui70.dll ?UpdateTooltip@Element@DirectUI@@MEAAXPEAV12@@Z
dui70.dll ?MessageCallback@Element@DirectUI@@UEAAIPEAUtagGMSG@@@Z
dui70.dll ?OnEvent@Element@DirectUI@@UEAAXPEAUEvent@2@@Z
dui70.dll ?OnDestroy@Element@DirectUI@@UEAAXXZ
dui70.dll ?OnKeyFocusMoved@Element@DirectUI@@UEAAXPEAV12@0@Z
dui70.dll ?OnInput@Element@DirectUI@@UEAAXPEAUInputEvent@2@@Z
dui70.dll ?OnGroupChanged@Element@DirectUI@@UEAAXH_N@Z
dui70.dll ?OnPropertyChanged@Element@DirectUI@@UEAAXPEBUPropertyInfo@2@HPEAVValue@2@1@Z
dui70.dll ?GetClassInfoPtr@TouchEdit2@DirectUI@@SAPEAUIClassInfo@2@XZ
dui70.dll ?Initialize@Element@DirectUI@@QEAAJIPEAV12@PEAK@Z
dui70.dll ??1Element@DirectUI@@UEAA@XZ
dui70.dll ??0Element@DirectUI@@QEAA@XZ
dui70.dll ?PressedProp@TouchButton@DirectUI@@SAPEBUPropertyInfo@2@XZ
dui70.dll ?GetRootRelativeBounds@Element@DirectUI@@QEAAJPEAUtagRECT@@@Z
dui70.dll ?GetTopLevel@Element@DirectUI@@QEAAPEAV12@XZ
dui70.dll ?CreateGraphic@Value@DirectUI@@SAPEAV12@PEAUHICON__@@_N11@Z
dui70.dll ?RemoveLocalValue@Element@DirectUI@@QEAAJP6APEBUPropertyInfo@2@XZ@Z
dui70.dll ?CreateGraphic@Value@DirectUI@@SAPEAV12@PEAUHBITMAP__@@EI_N11@Z
dui70.dll ?ContentProp@Element@DirectUI@@SAPEBUPropertyInfo@2@XZ
dui70.dll ?CreateString@Value@DirectUI@@SAPEAV12@PEBGPEAUHINSTANCE__@@@Z
dui70.dll ?AccNameProp@Element@DirectUI@@SAPEBUPropertyInfo@2@XZ
dui70.dll ?BroadcastEvent@Element@DirectUI@@QEAAXPEAUEvent@2@@Z
dui70.dll ?TriggeredAnimationComplete@PVLAnimation@DirectUI@@SA?AVUID@@XZ
dui70.dll ?GetAnimation@Element@DirectUI@@QEAAHXZ
dui70.dll ?SetAnimation@Element@DirectUI@@QEAAJH@Z
dui70.dll ?LocationProp@Element@DirectUI@@SAPEBUPropertyInfo@2@XZ
dui70.dll ?GetLocation@Element@DirectUI@@QEAAPEBUtagPOINT@@PEAPEAVValue@2@@Z
dui70.dll ?GetExtent@Element@DirectUI@@QEAAPEBUtagSIZE@@PEAPEAVValue@2@@Z
dui70.dll ?CreateBool@Value@DirectUI@@SAPEAV12@_N@Z
dui70.dll ?Destroy@Layout@DirectUI@@QEAAXXZ
dui70.dll ?SetID@Element@DirectUI@@QEAAJPEBG@Z
dui70.dll ?SetAccRole@Element@DirectUI@@QEAAJH@Z
dui70.dll ?SetAccessible@Element@DirectUI@@QEAAJ_N@Z
dui70.dll ?SetLayout@Element@DirectUI@@QEAAJPEAVLayout@2@@Z
dui70.dll ?Create@FillLayout@DirectUI@@SAJPEAPEAVLayout@2@@Z
dui70.dll ?Create@Element@DirectUI@@SAJIPEAV12@PEAKPEAPEAV12@@Z
dui70.dll ?AssertPIZeroRef@ClassInfoBase@DirectUI@@UEBAXXZ
dui70.dll ?GetChildren@ClassInfoBase@DirectUI@@UEBAHXZ
dui70.dll ?RemoveChild@ClassInfoBase@DirectUI@@UEAAXXZ
dui70.dll ?AddChild@ClassInfoBase@DirectUI@@UEAAXXZ
dui70.dll ?IsGlobal@ClassInfoBase@DirectUI@@UEBA_NXZ
dui70.dll ?GetModule@ClassInfoBase@DirectUI@@UEBAPEAUHINSTANCE__@@XZ
dui70.dll ?IsSubclassOf@ClassInfoBase@DirectUI@@UEBA_NPEAUIClassInfo@2@@Z
dui70.dll ?IsValidProperty@ClassInfoBase@DirectUI@@UEBA_NPEBUPropertyInfo@2@@Z
dui70.dll ?GetName@ClassInfoBase@DirectUI@@UEBAPEBGXZ
dui70.dll ?GetGlobalIndex@ClassInfoBase@DirectUI@@UEBAIXZ
dui70.dll ?GetPICount@ClassInfoBase@DirectUI@@UEBAIXZ
dui70.dll ?GetByClassIndex@ClassInfoBase@DirectUI@@UEAAPEBUPropertyInfo@2@I@Z
dui70.dll ?EnumPropertyInfo@ClassInfoBase@DirectUI@@UEAAPEBUPropertyInfo@2@I@Z
dui70.dll ?Release@ClassInfoBase@DirectUI@@UEAAHXZ
dui70.dll ?AddRef@ClassInfoBase@DirectUI@@UEAAXXZ
dui70.dll ?_OnUIStateChanged@TouchHWNDElement@DirectUI@@MEAAXGG@Z
dui70.dll ?GetWindowClassNameAndStyle@HWNDElement@DirectUI@@UEAAXPEAPEBGPEAI@Z
dui70.dll ?CreateStyleParser@HWNDElement@DirectUI@@UEAAJPEAPEAVDUIXmlParser@2@@Z
dui70.dll ?IsMSAAEnabled@TouchHWNDElement@DirectUI@@UEAA_NXZ
dui70.dll ?CanSetFocus@HWNDElement@DirectUI@@UEAA_NXZ
dui70.dll ?OnCompositionChanged@HWNDElement@DirectUI@@UEAAXXZ
dui70.dll ?GetRuntimeId@ElementProvider@DirectUI@@UEAAJPEAPEAUtagSAFEARRAY@@@Z
dui70.dll ?SetValue@Element@DirectUI@@QEAAJP6APEBUPropertyInfo@2@XZHPEAVValue@2@@Z
dui70.dll ?OnWmSettingChanged@HWNDElement@DirectUI@@UEAAX_K_J@Z
dui70.dll ?OnWmThemeChanged@HWNDElement@DirectUI@@UEAAX_K_J@Z
dui70.dll ?OnGetDlgCode@HWNDElement@DirectUI@@UEAAXPEAUtagMSG@@PEA_J@Z
dui70.dll ?OnNoChildWithShortcutFound@HWNDElement@DirectUI@@UEAAXPEAUKeyboardEvent@2@@Z
dui70.dll ?OnImmersiveColorSchemeChanged@HWNDElement@DirectUI@@UEAAXXZ
dui70.dll ?OnThemeChanged@HWNDElement@DirectUI@@UEAAXPEAUThemeChangedEvent@2@@Z
dui70.dll ?HandleUiaEventListener@Element@DirectUI@@UEAAXPEAUEvent@2@@Z
dui70.dll ?HandleUiaPropertyChangingListener@Element@DirectUI@@UEAAXPEBUPropertyInfo@2@@Z
dui70.dll ?HandleUiaPropertyListener@Element@DirectUI@@UEAAXPEBUPropertyInfo@2@HPEAVValue@2@1@Z
dui70.dll ?HandleUiaDestroyListener@Element@DirectUI@@UEAAXXZ
dui70.dll ?DefaultAction@Element@DirectUI@@UEAAJXZ
dui70.dll ?GetAccessibleImpl@HWNDElement@DirectUI@@UEAAJPEAPEAUIAccessible@@@Z
dui70.dll ?GetClassInfoW@TouchHWNDElement@DirectUI@@UEAAPEAUIClassInfo@2@XZ
dui70.dll ?RemoveTooltip@TouchHWNDElement@DirectUI@@UEAAXPEAVElement@2@@Z
dui70.dll ?ActivateTooltip@TouchHWNDElement@DirectUI@@UEAAXPEAVElement@2@K@Z
dui70.dll ?UpdateTooltip@TouchHWNDElement@DirectUI@@UEAAXPEAVElement@2@@Z
dui70.dll ?OnUnHosted@Element@DirectUI@@MEAAXPEAV12@@Z
dui70.dll ?OnHosted@Element@DirectUI@@MEAAXPEAV12@@Z
dui70.dll ?_SelfLayoutUpdateDesiredSize@Element@DirectUI@@MEAA?AUtagSIZE@@HHPEAVSurface@2@@Z
dui70.dll ?_SelfLayoutDoLayout@Element@DirectUI@@MEAAXHH@Z
dui70.dll ?GetImmersiveFocusRectOffsets@Element@DirectUI@@UEAAXPEAUtagRECT@@@Z
dui70.dll ?QueryInterface@Element@DirectUI@@UEAAJAEBU_GUID@@PEAPEAX@Z
dui70.dll ?MessageCallback@TouchHWNDElement@DirectUI@@UEAAIPEAUtagGMSG@@@Z
dui70.dll ?RemoveBehavior@Element@DirectUI@@UEAAJPEAUIDuiBehavior@@@Z
dui70.dll ?AddBehavior@Element@DirectUI@@UEAAJPEAUIDuiBehavior@@@Z
dui70.dll ?EnsureVisible@Element@DirectUI@@UEAA_NHHHH@Z
dui70.dll ?GetAdjacent@Element@DirectUI@@UEAAPEAV12@PEAV12@HPEBUNavReference@2@K@Z
dui70.dll ?Remove@Element@DirectUI@@UEAAJPEAPEAV12@I@Z
dui70.dll ?Insert@Element@DirectUI@@UEAAJPEAPEAV12@II@Z
dui70.dll ?Add@Element@DirectUI@@UEAAJPEAPEAV12@I@Z
dui70.dll ?GetContentSize@Element@DirectUI@@UEAA?AUtagSIZE@@HHPEAVSurface@2@@Z
dui70.dll ?Paint@Element@DirectUI@@UEAAXPEAUHDC__@@PEBUtagRECT@@1PEAU4@2@Z
dui70.dll ?OnMouseFocusMoved@Element@DirectUI@@UEAAXPEAV12@0@Z
dui70.dll ?OnKeyFocusMoved@TouchHWNDElement@DirectUI@@UEAAXPEAVElement@2@0@Z
dui70.dll ?OnGroupChanged@HWNDElement@DirectUI@@UEAAXH_N@Z
dui70.dll ?OnPropertyChanged@Element@DirectUI@@UEAAXPEAUPropertyInfo@2@HPEAVValue@2@1@Z
dui70.dll ?OnPropertyChanged@TouchHWNDElement@DirectUI@@UEAAXPEBUPropertyInfo@2@HPEAVValue@2@1@Z
dui70.dll ?OnPropertyChanging@Element@DirectUI@@UEAA_NPEAUPropertyInfo@2@HPEAVValue@2@1@Z
dui70.dll ?OnPropertyChanging@Element@DirectUI@@UEAA_NPEBUPropertyInfo@2@HPEAVValue@2@1@Z
dui70.dll ?GetContentStringAsDisplayed@Element@DirectUI@@UEAAPEBGPEAPEAVValue@2@@Z
dui70.dll ?IsContentProtected@Element@DirectUI@@UEAA_NXZ
dui70.dll ?IsRTLReading@Element@DirectUI@@UEAA_NXZ
dui70.dll ?GetElementProviderImpl@Element@DirectUI@@UEAAJPEAVInvokeHelper@2@PEAPEAVElementProvider@2@@Z
dui70.dll ?GetUIAElementProvider@Element@DirectUI@@UEAAJAEBU_GUID@@PEAPEAX@Z
dui70.dll ??1ClassInfoBase@DirectUI@@UEAA@XZ
dui70.dll ??0ClassInfoBase@DirectUI@@QEAA@XZ
dui70.dll ?_PostEvent@Element@DirectUI@@AEAAXPEAUEvent@2@H@Z
dui70.dll ?GetClassInfoPtr@TouchSwitch@DirectUI@@SAPEAUIClassInfo@2@XZ
dui70.dll ?GetClassInfoPtr@TouchButton@DirectUI@@SAPEAUIClassInfo@2@XZ
dui70.dll ?Initialize@ClassInfoBase@DirectUI@@QEAAJPEAUHINSTANCE__@@PEBG_NPEBQEBUPropertyInfo@2@I@Z
dui70.dll ?Register@ClassInfoBase@DirectUI@@QEAAJXZ
dui70.dll ?ClassExist@ClassInfoBase@DirectUI@@SA_NPEAPEAUIClassInfo@2@PEBQEBUPropertyInfo@2@IPEAU32@PEAUHINSTANCE__@@PEBG_N@Z
dui70.dll ??1CritSecLock@DirectUI@@QEAA@XZ
dui70.dll ?GetFactoryLock@Element@DirectUI@@SAPEAU_RTL_CRITICAL_SECTION@@XZ
dui70.dll ?Register@Element@DirectUI@@SAJXZ
dui70.dll ?GetUiaFocusDelegate@Element@DirectUI@@UEAAPEAV12@XZ
dui70.dll ?Init@Schema@DirectUI@@SAJXZ
dui70.dll ?GetKeyFocused@Element@DirectUI@@UEAA_NXZ
dui70.dll RegisterPVLBehaviorFactory
dui70.dll ?HideWindow@NativeHWNDHost@DirectUI@@QEAAXXZ
dui70.dll ?Destroy@NativeHWNDHost@DirectUI@@QEAAXXZ
dui70.dll ?SyncDestroyWindow@NativeHWNDHost@DirectUI@@QEAAXXZ
dui70.dll ?ShowWindow@NativeHWNDHost@DirectUI@@QEAAXH@Z
dui70.dll ?ShowUIState@HWNDElement@DirectUI@@QEAAX_N0@Z
dui70.dll ?GetRoot@Element@DirectUI@@QEAAPEAV12@XZ
dui70.dll UnInitProcessPriv
dui70.dll AllowAllScalingPlateaus
dui70.dll InitProcessPriv
dui70.dll ?Detach@CSafeElementProxy@@QEAAXXZ
dui70.dll ?Initialize@CSafeElementProxy@@IEAAJPEAVElement@DirectUI@@@Z
dui70.dll ?RemoveListener@Element@DirectUI@@QEAAXPEAUIElementListener@2@@Z
dui70.dll ?SetSheet@Element@DirectUI@@QEAAJPEAVStyleSheet@2@@Z
dui70.dll ?GetSheet@DUIXmlParser@DirectUI@@QEAAJPEBGPEAPEAVValue@2@@Z
dui70.dll ?SetMinSize@Element@DirectUI@@QEAAJHH@Z
dui70.dll ?SetHeight@Element@DirectUI@@QEAAJH@Z
dui70.dll ?SetPadding@Element@DirectUI@@QEAAJHHHH@Z
dui70.dll ?GetYScrollWidth@BaseScrollViewer@DirectUI@@QEAAHXZ
dui70.dll ?SetYScrollable@BaseScrollViewer@DirectUI@@QEAAJ_N@Z
dui70.dll ?GetKeyWithinChild@Element@DirectUI@@QEAAPEAV12@XZ
dui70.dll ?UpdateSheets@DUIXmlParser@DirectUI@@QEAAJPEAVElement@2@@Z
dui70.dll ?SetBackgroundColor@Element@DirectUI@@QEAAJK@Z
dui70.dll ?BackgroundProp@Element@DirectUI@@SAPEBUPropertyInfo@2@XZ
dui70.dll ?SetBackgroundColor@Element@DirectUI@@QEAAJKKE@Z
dui70.dll ?MultipleClick@TouchButton@DirectUI@@SA?AVUID@@XZ
dui70.dll ?Click@TouchButton@DirectUI@@SA?AVUID@@XZ
dui70.dll ?SetYOffset@BaseScrollViewer@DirectUI@@QEAAJH@Z
dui70.dll ??0IProvider@DirectUI@@QEAA@XZ
dui70.dll ?GetClassInfoW@TouchButton@DirectUI@@UEAAPEAUIClassInfo@2@XZ
dui70.dll ?GetImmersiveFocusRectOffsets@TouchButton@DirectUI@@UEAAXPEAUtagRECT@@@Z
dui70.dll ?TossPatternProvider@ElementProvider@DirectUI@@QEAAXW4Pattern@Schema@2@@Z
dui70.dll ?DoInvokeArgs@ElementProvider@DirectUI@@QEAAJHP6APEAVProviderProxy@2@PEAVElement@2@@ZPEAD@Z
dui70.dll ?AddRef@RefcountBase@DirectUI@@QEAAJXZ
dui70.dll ?Release@RefcountBase@DirectUI@@QEAAJXZ
dui70.dll ??1RefcountBase@DirectUI@@UEAA@XZ
dui70.dll ??0RefcountBase@DirectUI@@QEAA@XZ
dui70.dll ?GetSelection@TouchEdit2@DirectUI@@QEAAJPEAJ0@Z
dui70.dll ?SetCaretPosition@TouchEdit2@DirectUI@@QEAAJJ@Z
dui70.dll ?SetTooltip@Element@DirectUI@@QEAAJ_N@Z
dui70.dll ?SetAccDesc@Element@DirectUI@@QEAAJPEBG@Z
dui70.dll DUIStopPVLAnimation
dui70.dll ?GetHWND@HWNDElement@DirectUI@@UEAAPEAUHWND__@@XZ
dui70.dll ?SetLightDismissIHM@TouchHWNDElement@DirectUI@@QEAAJ_N@Z
dui70.dll ?Initialize@TouchHWNDElement@DirectUI@@QEAAJPEAUHWND__@@_NIPEAVElement@2@PEAK@Z
dui70.dll ?WndProc@TouchHWNDElement@DirectUI@@UEAA_JPEAUHWND__@@I_K_J@Z
dui70.dll ?SetClass@Element@DirectUI@@QEAAJPEBG@Z
dui70.dll ?OnDestroy@TouchHWNDElement@DirectUI@@UEAAXXZ
dui70.dll ?OnEvent@TouchHWNDElement@DirectUI@@UEAAXPEAUEvent@2@@Z
dui70.dll ?ScaleChanged@TouchHWNDElement@DirectUI@@SA?AVUID@@XZ
dui70.dll ?FireEvent@Element@DirectUI@@QEAAXPEAUEvent@2@_N1@Z
dui70.dll ?EnsureVisible@Element@DirectUI@@QEAA_NXZ
dui70.dll ?OnInput@TouchHWNDElement@DirectUI@@UEAAXPEAUInputEvent@2@@Z
dui70.dll ?SetKeyFocus@Element@DirectUI@@UEAAXXZ
dui70.dll ?SetPressed@TouchButton@DirectUI@@QEAAJ_N@Z
dui70.dll ?GetKeyFocusedElement@HWNDElement@DirectUI@@SAPEAVElement@2@XZ
dui70.dll ?GetHandleEnter@TouchButton@DirectUI@@QEAA_NXZ
dui70.dll ?GetClassInfoPtr@Element@DirectUI@@SAPEAUIClassInfo@2@XZ
dui70.dll ??1TouchHWNDElement@DirectUI@@UEAA@XZ
dui70.dll ??0TouchHWNDElement@DirectUI@@QEAA@XZ
dui70.dll DuiCreateObject
dui70.dll ??0NativeHWNDHost@DirectUI@@QEAA@XZ
dui70.dll InitThread
dui70.dll UnInitThread
dui70.dll ?GetClassInfoPtr@HWNDElement@DirectUI@@SAPEAUIClassInfo@2@XZ
dui70.dll ?Create@ElementProvider@DirectUI@@SAJPEAVElement@2@PEAVInvokeHelper@2@PEAPEAV12@@Z
dui70.dll ?Create@HWNDElementProvider@DirectUI@@SAJPEAVHWNDElement@2@PEAVInvokeHelper@2@PEAPEAV12@@Z
dui70.dll ?Find@ElementProviderManager@DirectUI@@SAPEAVElementProvider@2@PEAVElement@2@@Z
dui70.dll ?GetInvokeHelper@InvokeManager@DirectUI@@SAJPEAPEAVInvokeHelper@2@@Z
dui70.dll ?GetContentString@Element@DirectUI@@QEAAPEBGPEAPEAVValue@2@@Z
dui70.dll ?SetVisible@Element@DirectUI@@QEAAJ_N@Z
dui70.dll ?SetLayoutPos@Element@DirectUI@@QEAAJH@Z
dui70.dll StrToID
dui70.dll ?FindDescendent@Element@DirectUI@@QEAAPEAV12@G@Z
dui70.dll ?StartDefer@Element@DirectUI@@QEAAXPEAK@Z
dui70.dll GetScaleFactor
dui70.dll ?SetWidth@Element@DirectUI@@QEAAJH@Z
dui70.dll ?SetEnabled@Element@DirectUI@@QEAAJ_N@Z
dui70.dll ?EnabledProp@Element@DirectUI@@SAPEBUPropertyInfo@2@XZ
dui70.dll ?RemoveLocalValue@Element@DirectUI@@QEAAJPEBUPropertyInfo@2@@Z
dui70.dll ?GetChildren@Element@DirectUI@@QEAAPEAV?$DynamicArray@PEAVElement@DirectUI@@$0A@@2@PEAPEAVValue@2@@Z
dui70.dll ?GetUnset@Value@DirectUI@@SAPEAV12@XZ
dui70.dll ?GetValue@Element@DirectUI@@QEAAPEAVValue@2@P6APEBUPropertyInfo@2@XZHPEAUUpdateCache@2@@Z
dui70.dll ?CustomProp@Element@DirectUI@@SAPEBUPropertyInfo@2@XZ
dui70.dll ?CreateInt@Value@DirectUI@@SAPEAV12@HW4DynamicScaleValue@@@Z
dui70.dll ?SetAccName@Element@DirectUI@@QEAAJPEBG@Z
dui70.dll ?SetContentString@Element@DirectUI@@QEAAJPEBG@Z
dui70.dll ?GetHeight@Element@DirectUI@@QEAAHXZ
dui70.dll ?Release@Value@DirectUI@@QEAAXXZ
dui70.dll ?GetWidth@Element@DirectUI@@QEAAHXZ
dui70.dll ?CreateHostWindow@NativeHWNDHost@DirectUI@@UEAAPEAUHWND__@@KPEBG0KHHHHPEAU3@PEAUHMENU__@@PEAUHINSTANCE__@@PEAX@Z
dui70.dll ?GetClassInfoPtr@TouchHWNDElement@DirectUI@@SAPEAUIClassInfo@2@XZ
dui70.dll ?Host@NativeHWNDHost@DirectUI@@QEAAXPEAVElement@2@@Z
dui70.dll ?Initialize@NativeHWNDHost@DirectUI@@QEAAJPEBG0PEAUHWND__@@PEAUHICON__@@HHHHHHPEAUHINSTANCE__@@I@Z
dui70.dll ?WndProc@NativeHWNDHost@DirectUI@@SA_JPEAUHWND__@@I_K_J@Z
dui70.dll ??1NativeHWNDHost@DirectUI@@UEAA@XZ
dui70.dll ?Destroy@DUIXmlParser@DirectUI@@QEAAXXZ
dui70.dll ?Destroy@Element@DirectUI@@QEAAJ_N@Z
dui70.dll ?AddListener@Element@DirectUI@@QEAAJPEAUIElementListener@2@@Z
dui70.dll ?EndDefer@Element@DirectUI@@QEAAXK@Z
dui70.dll ?Add@Element@DirectUI@@QEAAJPEAV12@@Z
dui70.dll ?CreateElement@DUIXmlParser@DirectUI@@QEAAJPEBGPEAVElement@2@1PEAKPEAPEAV32@@Z
dui70.dll ?SetXMLFromResource@DUIXmlParser@DirectUI@@QEAAJIPEAUHINSTANCE__@@0@Z
dui70.dll ?Create@DUIXmlParser@DirectUI@@SAJPEAPEAV12@P6APEAVValue@2@PEBGPEAX@Z2P6AX11H2@Z2@Z
dui70.dll ?SetDirection@Element@DirectUI@@QEAAJH@Z
duser.dll AddLayeredRef
duser.dll ReleaseLayeredRef
duser.dll SetGadgetRootInfo
duser.dll DUserSendEvent
duser.dll InvalidateGadget
duser.dll InitGadgets
duser.dll SetGadgetStyle
duser.dll SetTransitionVisualProperties
duser.dll DUserPostEvent
duser.dll DeleteHandle
duser.dll BeginShowInputPaneAnimation
duser.dll BeginHideInputPaneAnimation
duser.dll EndInputPaneAnimation
duser.dll SetGadgetRect
duser.dll SetGadgetFlags
api-ms-win-core-delayload-l1-1-1.dll ResolveDelayLoadedAPI
api-ms-win-core-delayload-l1-1-0.dll DelayLoadFailureHook
