msvcrt.dll _onexit
msvcrt.dll __dllonexit
msvcrt.dll _unlock
msvcrt.dll _lock
msvcrt.dll memcmp
msvcrt.dll ??1type_info@@UAE@XZ
msvcrt.dll ?terminate@@YAXXZ
msvcrt.dll _wcsnicmp
msvcrt.dll _initterm
msvcrt.dll malloc
msvcrt.dll free
msvcrt.dll _amsg_exit
msvcrt.dll _except_handler4_common
msvcrt.dll memmove
msvcrt.dll strncmp
msvcrt.dll _purecall
msvcrt.dll iswspace
msvcrt.dll _wcsicmp
msvcrt.dll wcsrchr
msvcrt.dll wcschr
msvcrt.dll _vsnwprintf
msvcrt.dll __CxxFrameHandler3
msvcrt.dll rand_s
msvcrt.dll memcpy
msvcrt.dll _CxxThrowException
msvcrt.dll ?what@exception@@UBEPBDXZ
msvcrt.dll ??1exception@@UAE@XZ
msvcrt.dll ??0exception@@QAE@ABV0@@Z
msvcrt.dll ??0exception@@QAE@ABQBDH@Z
msvcrt.dll ??0exception@@QAE@ABQBD@Z
msvcrt.dll wcsstr
msvcrt.dll _ui64tow_s
msvcrt.dll memcpy_s
msvcrt.dll _XcptFilter
msvcrt.dll _itow
msvcrt.dll memset
kernel32.dll WaitForSingleObject
kernel32.dll GetCurrentProcessId
kernel32.dll QueryPerformanceCounter
kernel32.dll TerminateProcess
kernel32.dll GetCurrentProcess
kernel32.dll SetUnhandledExceptionFilter
kernel32.dll UnhandledExceptionFilter
kernel32.dll GetVersion
kernel32.dll DisableThreadLibraryCalls
kernel32.dll GetModuleFileNameW
kernel32.dll GetSystemDirectoryW
kernel32.dll MoveFileExW
kernel32.dll FindClose
kernel32.dll FindNextFileW
kernel32.dll FindFirstFileW
kernel32.dll ResetEvent
kernel32.dll SetEvent
kernel32.dll LoadLibraryExW
kernel32.dll CopyFileExW
kernel32.dll TlsFree
kernel32.dll DeleteTimerQueueTimer
kernel32.dll GetSystemTimeAsFileTime
kernel32.dll DebugBreak
kernel32.dll GetTickCount
kernel32.dll ReadFile
kernel32.dll GetFileSizeEx
kernel32.dll SetLastError
kernel32.dll WriteFile
kernel32.dll ExpandEnvironmentStringsW
kernel32.dll InitializeCriticalSectionAndSpinCount
kernel32.dll SetEndOfFile
kernel32.dll CreateFileW
kernel32.dll GetLastError
kernel32.dll DeleteFileW
kernel32.dll CloseHandle
kernel32.dll GetProcAddress
kernel32.dll SetFilePointerEx
kernel32.dll DeleteCriticalSection
kernel32.dll GetModuleHandleW
kernel32.dll FlushFileBuffers
kernel32.dll TlsGetValue
kernel32.dll FreeLibrary
kernel32.dll LCMapStringW
kernel32.dll LocalFree
kernel32.dll CreateDirectoryW
kernel32.dll HeapFree
kernel32.dll EnterCriticalSection
kernel32.dll LeaveCriticalSection
kernel32.dll HeapReAlloc
kernel32.dll HeapAlloc
kernel32.dll CreateTimerQueueTimer
kernel32.dll TlsAlloc
kernel32.dll GetProductInfo
kernel32.dll GetFileAttributesExW
kernel32.dll GetVolumePathNameW
kernel32.dll TlsSetValue
kernel32.dll LocalAlloc
kernel32.dll GetFileAttributesW
kernel32.dll GetCurrentThreadId
kernel32.dll GetVersionExW
kernel32.dll GetComputerNameExW
kernel32.dll RtlCaptureStackBackTrace
kernel32.dll QueueUserWorkItem
kernel32.dll SetFileAttributesW
kernel32.dll CreateEventW
kernel32.dll Sleep
oleaut32.dll SysFreeString
oleaut32.dll VariantClear
oleaut32.dll VariantInit
ole32.dll StringFromGUID2
ole32.dll CoCreateInstance
ole32.dll CoTaskMemAlloc
ole32.dll CoSetProxyBlanket
ole32.dll CoInitializeEx
ole32.dll CoTaskMemFree
advapi32.dll CloseServiceHandle
advapi32.dll QueryServiceStatus
advapi32.dll OpenSCManagerW
advapi32.dll ControlService
advapi32.dll EnumDependentServicesW
advapi32.dll StartServiceW
advapi32.dll QueryServiceConfigW
advapi32.dll ChangeServiceConfigW
advapi32.dll OpenServiceW
advapi32.dll RegCloseKey
advapi32.dll RegDeleteKeyExW
advapi32.dll RegCreateKeyExW
advapi32.dll RegOpenKeyExW
ntdll.dll RtlNtStatusToDosError
ntdll.dll NtWaitForSingleObject
ntdll.dll NtFsControlFile
ntdll.dll WinSqmAddToStream
ntdll.dll WinSqmIsOptedIn
ntdll.dll RtlFillMemoryUlong
ntdll.dll NtWriteFile
wbemcomn.dll GetMemLogObject
wbemcomn.dll ??YWString2@@QAEAAV0@PBG@Z
wbemcomn.dll ??1WString2@@QAE@XZ
wbemcomn.dll ??0WString2@@QAE@PAGH@Z
wbemcomn.dll ?GetRegistryPathCIMOM@CWbemInstallObject@@SGPBGXZ
wbemcomn.dll ?GetRepositoryFolder@CWbemInstallObject@@SGPBGXZ
wbemcomn.dll ?IsOffline@CWbemInstallObject@@SG_NXZ
wbemcomn.dll ?Report@CEventLog@@QAEHGABU_EVENT_DESCRIPTOR@@VCInsertionString@@111111111@Z
wbemcomn.dll ?Open@CEventLog@@QAEHXZ
wbemcomn.dll ?Close@CEventLog@@QAEHXZ
wbemcomn.dll ??1CEventLog@@QAE@XZ
wbemcomn.dll ??0CEventLog@@QAE@PBGABU_GUID@@K@Z
wbemcomn.dll ??YWString@@QAEAAV0@PBG@Z
wbemcomn.dll ??4WString@@QAEAAV0@ABV0@@Z
wbemcomn.dll ??4WString@@QAEAAV0@PBG@Z
wbemcomn.dll ??0WString@@QAE@XZ
wbemcomn.dll ??0CInsertionString@@QAE@$$QAV0@@Z
wbemcomn.dll ??1CInsertionString@@QAE@XZ
wbemcomn.dll ??0CInsertionString@@QAE@PBG@Z
wbemcomn.dll ??0CInsertionString@@QAE@XZ
wbemcomn.dll ??1CInCritSec@@QAE@XZ
wbemcomn.dll ??0CInCritSec@@QAE@PAU_RTL_CRITICAL_SECTION@@@Z
wbemcomn.dll ??1WString@@QAE@XZ
wbemcomn.dll ??1QL_LEVEL_1_RPN_EXPRESSION@@QAE@XZ
wbemcomn.dll ??4WString2@@QAEAAV0@ABV0@@Z
wbemcomn.dll ??4WString2@@QAEAAV0@PBG@Z
wbemcomn.dll ??0WString2@@QAE@PBG@Z
wbemcomn.dll ??0WString2@@QAE@XZ
wbemcomn.dll ?Parse@QL1_Parser@@QAEHPAPAUQL_LEVEL_1_RPN_EXPRESSION@@@Z
wbemcomn.dll ??1QL1_Parser@@UAE@XZ
wbemcomn.dll ??0QL1_Parser@@QAE@PAVCGenLexSource@@@Z
wbemcomn.dll ??0WString@@QAE@PBG@Z
wbemcomn.dll ?GetStringAt@CPropertyName@@QBEPBGJ@Z
wbemcomn.dll ?RemoveAt@CWStringArray@@QAEHH@Z
wbemcomn.dll ?Add@CWStringArray@@QAEHPBG@Z
wbemcomn.dll ?Write@CMemoryLog@@QAEXJ@Z
wbemcomn.dll ??0CWStringArray@@QAE@HH@Z
wbemcomn.dll ?Empty@CFlexArray@@QAEXXZ
wbemcomn.dll ?RemoveAt@CFlexArray@@QAEHH@Z
wbemcomn.dll ?SetAt@CFlexArray@@QAEXHPAX@Z
wbemcomn.dll ??ACFlexArray@@QAEAAPAXH@Z
wbemcomn.dll ?GetAt@CFlexArray@@QBEPAXH@Z
wbemcomn.dll ??1CFlexArray@@QAE@XZ
wbemcomn.dll ??0CFlexArray@@QAE@HH@Z
wbemcomn.dll ??ACWStringArray@@QBEPAGH@Z
wbemcomn.dll ?Add@CFlexArray@@QAEHPAX@Z
wbemcomn.dll ??1CCritSec@@QAE@XZ
wbemcomn.dll ??0CCritSec@@QAE@XZ
wbemcomn.dll ?Transform@SHA256@@SGXPAXIQAE@Z
wbemcomn.dll WinPEKey
wbemcomn.dll ?GetArenaHeap@CWin32DefaultArena@@SGPAXXZ
wbemcomn.dll ??1CStaticCritSec@@QAE@XZ
wbemcomn.dll ??0CStaticCritSec@@QAE@XZ
wbemcomn.dll ?CoGetClassObject@CWbemInstallObject@@SGJABU_GUID@@KPAU_COSERVERINFO@@0PAPAX@Z
wbemcomn.dll ??0CInsertionString@@QAE@J@Z
wbemcomn.dll ?GetPersistentCfgValue@CPersistentConfig@@QAEHKAAK@Z
wbemcomn.dll ?GetStr@Registry@@QAEHPBGPAPAG@Z
wbemcomn.dll ??1Registry@@QAE@XZ
wbemcomn.dll ??0Registry@@QAE@PBGK@Z
wbemcomn.dll BreakOnDbgAndRenterLoop
wbemcomn.dll ?Lock@?$CLockableFlexArray@VCStaticCritSec@@@@QAEXXZ
wbemcomn.dll ?Unlock@?$CLockableFlexArray@VCStaticCritSec@@@@QAEXXZ
wbemcomn.dll ??1?$CLockableFlexArray@VCStaticCritSec@@@@QAE@XZ
wbemcomn.dll ?WbemMemFree@CWin32DefaultArena@@SAHPAX@Z
wbemcomn.dll ?WbemMemAlloc@CWin32DefaultArena@@SAPAXK@Z
wbemcomn.dll ?SetFailure@CStaticCritSec@@SGXXZ
wbemcomn.dll ?Release@CUnkInternal@@UAGKXZ
wbemcomn.dll ?AddRef@CUnkInternal@@UAGKXZ
wbemcomn.dll ?QueryInterface@CUnkInternal@@UAGJABU_GUID@@PAPAX@Z
wbemcomn.dll ??1CUnkInternal@@UAE@XZ
wbemcomn.dll ??0CUnkInternal@@QAE@PAVCLifeControl@@@Z
wbemcomn.dll ??0WString2@@QAE@PBD@Z
wbemcomn.dll EnableAllPrivileges
wbemcomn.dll ?anyFailure@CStaticCritSec@@SGHXZ
wbemcomn.dll ?InternalRelease@CUnkInternal@@QAEKXZ
wbemcomn.dll _ThrowMemoryException_
wbemcomn.dll ??1CWStringArray@@QAE@XZ
