api-ms-win-crt-runtime-l1-1-0.dll _initterm
api-ms-win-crt-runtime-l1-1-0.dll _initterm_e
api-ms-win-crt-private-l1-1-0.dll _o__initialize_narrow_environment
api-ms-win-crt-private-l1-1-0.dll _o__initialize_onexit_table
api-ms-win-crt-private-l1-1-0.dll _o__invalid_parameter_noinfo
api-ms-win-crt-private-l1-1-0.dll _o__invalid_parameter_noinfo_noreturn
api-ms-win-crt-private-l1-1-0.dll _o__purecall
api-ms-win-crt-private-l1-1-0.dll _o__register_onexit_function
api-ms-win-crt-private-l1-1-0.dll _o__seh_filter_dll
api-ms-win-crt-private-l1-1-0.dll _o__strnicmp
api-ms-win-crt-private-l1-1-0.dll _o__wcsicmp
api-ms-win-crt-private-l1-1-0.dll _o__wcsnicmp
api-ms-win-crt-private-l1-1-0.dll _o__wsplitpath_s
api-ms-win-crt-private-l1-1-0.dll memmove
api-ms-win-crt-private-l1-1-0.dll _o_free
api-ms-win-crt-private-l1-1-0.dll _o_isdigit
api-ms-win-crt-private-l1-1-0.dll _o_malloc
api-ms-win-crt-private-l1-1-0.dll _o_terminate
api-ms-win-crt-private-l1-1-0.dll _o_tolower
api-ms-win-crt-private-l1-1-0.dll _o_wcstoul
api-ms-win-crt-private-l1-1-0.dll __current_exception
api-ms-win-crt-private-l1-1-0.dll __current_exception_context
api-ms-win-crt-private-l1-1-0.dll _except_handler4_common
api-ms-win-crt-private-l1-1-0.dll _o___stdio_common_vfwprintf
api-ms-win-crt-private-l1-1-0.dll _o__execute_onexit_table
api-ms-win-crt-private-l1-1-0.dll _o__errno
api-ms-win-crt-private-l1-1-0.dll _o___std_type_info_destroy_list
api-ms-win-crt-private-l1-1-0.dll _o___std_exception_destroy
api-ms-win-crt-private-l1-1-0.dll _o__crt_atexit
api-ms-win-crt-private-l1-1-0.dll _o___std_exception_copy
api-ms-win-crt-private-l1-1-0.dll _o__configure_narrow_argv
api-ms-win-crt-private-l1-1-0.dll _o__cexit
api-ms-win-crt-private-l1-1-0.dll _o__beginthreadex
api-ms-win-crt-private-l1-1-0.dll _o___acrt_iob_func
api-ms-win-crt-private-l1-1-0.dll _o___stdio_common_vswprintf_s
api-ms-win-crt-private-l1-1-0.dll _o___stdio_common_vswprintf
api-ms-win-crt-private-l1-1-0.dll _CxxThrowException
api-ms-win-crt-private-l1-1-0.dll memcmp
api-ms-win-crt-private-l1-1-0.dll _o___stdio_common_vsprintf
api-ms-win-crt-private-l1-1-0.dll _o___stdio_common_vsnprintf_s
api-ms-win-crt-private-l1-1-0.dll wcschr
api-ms-win-crt-private-l1-1-0.dll wcsrchr
api-ms-win-crt-private-l1-1-0.dll wcsstr
api-ms-win-crt-private-l1-1-0.dll __CxxFrameHandler3
api-ms-win-crt-private-l1-1-0.dll memcpy
api-ms-win-crt-string-l1-1-0.dll strncmp
api-ms-win-crt-string-l1-1-0.dll wcsncmp
api-ms-win-crt-string-l1-1-0.dll memset
bcrypt.dll BCryptOpenAlgorithmProvider
bcrypt.dll BCryptFinishHash
bcrypt.dll BCryptCloseAlgorithmProvider
bcrypt.dll BCryptDestroyHash
bcrypt.dll BCryptHashData
bcrypt.dll BCryptCreateHash
bcrypt.dll BCryptGetProperty
wimgapi.dll WIMSetTemporaryPath
wimgapi.dll WIMUnmountImage
wimgapi.dll WIMRegisterMessageCallback
wimgapi.dll WIMCloseHandle
wimgapi.dll WIMUnregisterMessageCallback
wimgapi.dll WIMApplyImage
wimgapi.dll WIMGetMountedImageInfo
wimgapi.dll WIMCreateFile
wimgapi.dll WIMExtractImagePath
wimgapi.dll WIMLoadImage
ntdll.dll NtClose
ntdll.dll RtlFreeHeap
ntdll.dll RtlRaiseStatus
ntdll.dll NtQueryPerformanceCounter
ntdll.dll NtFlushKey
ntdll.dll NtUnloadKey2
ntdll.dll NtCreateFile
ntdll.dll NtLoadKey2
ntdll.dll NtOpenKey
ntdll.dll RtlSetEnvironmentVariable
ntdll.dll RtlCreateEnvironment
ntdll.dll RtlDestroyEnvironment
ntdll.dll NtQueryEaFile
ntdll.dll RtlSubAuthoritySid
ntdll.dll RtlSubAuthorityCountSid
ntdll.dll RtlGetGroupSecurityDescriptor
ntdll.dll NtQueryInformationFile
ntdll.dll RtlDeleteAce
ntdll.dll VerSetConditionMask
ntdll.dll DbgPrintEx
ntdll.dll LdrGetDllHandle
ntdll.dll RtlNtStatusToDosError
ntdll.dll LdrLoadDll
ntdll.dll NtWaitForSingleObject
ntdll.dll RtlReleaseRelativeName
ntdll.dll NtSetEaFile
ntdll.dll RtlDosPathNameToRelativeNtPathName_U_WithStatus
ntdll.dll NtQueryOpenSubKeysEx
ntdll.dll NtQueryInformationProcess
ntdll.dll RtlCreateUnicodeStringFromAsciiz
ntdll.dll DbgPrint
ntdll.dll RtlQueryEnvironmentVariable_U
ntdll.dll LdrGetDllHandleEx
ntdll.dll RtlDosPathNameToNtPathName_U
ntdll.dll LdrUnloadDll
ntdll.dll NtWriteFile
ntdll.dll LdrGetProcedureAddress
ntdll.dll RtlLeaveCriticalSection
ntdll.dll RtlInitializeCriticalSection
ntdll.dll RtlEnterCriticalSection
ntdll.dll RtlTimeToTimeFields
ntdll.dll RtlDeleteCriticalSection
ntdll.dll NtQueryValueKey
ntdll.dll RtlInitUnicodeString
ntdll.dll RtlAllocateHeap
kernel32.dll InitializeCriticalSectionAndSpinCount
kernel32.dll lstrcmpW
kernel32.dll WideCharToMultiByte
kernel32.dll GetVersionExW
kernel32.dll GetWindowsDirectoryW
kernel32.dll InitializeSRWLock
kernel32.dll InitOnceExecuteOnce
kernel32.dll VirtualQuery
kernel32.dll GetSystemInfo
kernel32.dll OpenProcess
kernel32.dll RaiseException
kernel32.dll GetCurrentThread
kernel32.dll GetFileAttributesExW
kernel32.dll LoadLibraryExA
kernel32.dll VirtualProtect
kernel32.dll GetSystemTime
kernel32.dll LoadLibraryW
kernel32.dll VirtualAlloc
kernel32.dll FindFirstFileW
kernel32.dll CompareFileTime
kernel32.dll FileTimeToSystemTime
kernel32.dll GetTickCount64
kernel32.dll InitializeCriticalSection
kernel32.dll TryEnterCriticalSection
kernel32.dll GetVolumeInformationByHandleW
kernel32.dll GetSystemWindowsDirectoryW
kernel32.dll VerifyVersionInfoW
kernel32.dll GlobalMemoryStatusEx
kernel32.dll MoveFileExW
kernel32.dll SetFilePointerEx
kernel32.dll DeleteFileW
kernel32.dll VirtualFree
kernel32.dll SetFileInformationByHandle
kernel32.dll SetFileAttributesW
kernel32.dll FindClose
kernel32.dll CreateHardLinkW
kernel32.dll GetTempPathW
kernel32.dll GetEnvironmentVariableW
kernel32.dll CompareStringOrdinal
kernel32.dll GetDriveTypeW
kernel32.dll GetModuleFileNameW
kernel32.dll GetFinalPathNameByHandleW
kernel32.dll RemoveDirectoryW
kernel32.dll DeviceIoControl
kernel32.dll RaiseFailFastException
kernel32.dll ExpandEnvironmentStringsW
kernel32.dll FindNextFileW
kernel32.dll GetFullPathNameW
kernel32.dll FindFirstFileExW
kernel32.dll PrivCopyFileExW
kernel32.dll ReadFile
kernel32.dll CreateDirectoryW
kernel32.dll GetFileSizeEx
kernel32.dll GetFileInformationByHandleEx
kernel32.dll GetFileAttributesW
kernel32.dll GetExitCodeThread
kernel32.dll DeleteCriticalSection
kernel32.dll AcquireSRWLockShared
kernel32.dll CreateThreadpoolTimer
kernel32.dll ReleaseSRWLockShared
kernel32.dll SetThreadpoolTimer
kernel32.dll AcquireSRWLockExclusive
kernel32.dll CloseThreadpoolTimer
kernel32.dll ReleaseSRWLockExclusive
kernel32.dll WaitForThreadpoolTimerCallbacks
kernel32.dll InitializeCriticalSectionEx
kernel32.dll LeaveCriticalSection
kernel32.dll EnterCriticalSection
kernel32.dll LoadLibraryExW
kernel32.dll CopyFileW
kernel32.dll FreeLibrary
kernel32.dll LocalFree
kernel32.dll SetEvent
kernel32.dll Sleep
kernel32.dll CreateEventW
kernel32.dll DuplicateHandle
kernel32.dll CreateFileW
kernel32.dll LocalAlloc
kernel32.dll GetVolumePathNameW
kernel32.dll OutputDebugStringA
kernel32.dll WriteFile
kernel32.dll GetStdHandle
kernel32.dll QueryPerformanceCounter
kernel32.dll SetConsoleTextAttribute
kernel32.dll GetConsoleScreenBufferInfo
kernel32.dll DebugBreak
kernel32.dll GetProcessHeap
kernel32.dll CreateMutexExW
kernel32.dll GetProcAddress
kernel32.dll HeapAlloc
kernel32.dll CloseHandle
kernel32.dll OpenSemaphoreW
kernel32.dll WaitForSingleObjectEx
kernel32.dll OutputDebugStringW
kernel32.dll GetLastError
kernel32.dll FormatMessageW
kernel32.dll ReleaseMutex
kernel32.dll WaitForSingleObject
kernel32.dll GetModuleHandleExW
kernel32.dll ReleaseSemaphore
kernel32.dll SetLastError
kernel32.dll HeapFree
kernel32.dll CreateSemaphoreExW
kernel32.dll GetModuleFileNameA
kernel32.dll TerminateProcess
kernel32.dll GetCurrentProcess
kernel32.dll GetModuleHandleW
kernel32.dll IsProcessorFeaturePresent
kernel32.dll SetUnhandledExceptionFilter
kernel32.dll UnhandledExceptionFilter
kernel32.dll IsDebuggerPresent
kernel32.dll InitializeSListHead
kernel32.dll GetSystemTimeAsFileTime
kernel32.dll GetCurrentThreadId
kernel32.dll GetCurrentProcessId
kernel32.dll ResetEvent
ole32.dll CoTaskMemFree
ole32.dll CoGetMalloc
ole32.dll CoCreateInstance
ole32.dll CoUninitialize
ole32.dll CoInitializeEx
ole32.dll CoCreateGuid
ole32.dll StringFromGUID2
ole32.dll CoTaskMemAlloc
advapi32.dll EventWriteTransfer
advapi32.dll EventRegister
advapi32.dll EventWriteString
advapi32.dll RegSetValueExW
advapi32.dll RegQueryValueExW
advapi32.dll RegCloseKey
advapi32.dll RegOpenKeyExW
advapi32.dll ControlTraceW
advapi32.dll EnableTraceEx2
advapi32.dll GetSecurityDescriptorSacl
advapi32.dll GetSecurityDescriptorDacl
advapi32.dll GetSecurityDescriptorGroup
advapi32.dll ConvertSecurityDescriptorToStringSecurityDescriptorW
advapi32.dll CreateWellKnownSid
advapi32.dll GetSecurityDescriptorControl
advapi32.dll GetSecurityDescriptorOwner
advapi32.dll SetSecurityInfo
advapi32.dll ConvertStringSecurityDescriptorToSecurityDescriptorW
advapi32.dll GetSecurityDescriptorLength
advapi32.dll GetSecurityInfo
advapi32.dll EventUnregister
shlwapi.dll PathMatchSpecW
version.dll GetFileVersionInfoSizeW
version.dll VerQueryValueW
version.dll GetFileVersionInfoW
wcp.dll ?OpenFamilyMap@CRawInstallMap@InstallMap@@QAEJ_NPAUIRtlDefinitionIdentity@Rtl@Identity@Windows@@PAUMapForFamily@2@PA_N@Z
wcp.dll ?Initialize@CRawInstallMap@InstallMap@@QAEJ_NPAUIRtlIdentityAuthority@Rtl@Identity@Windows@@PAUIRtlKey@46@PAUIRtlSystemIsolationLayer@46@@Z
wcp.dll ??1CRawInstallMap@InstallMap@@QAE@XZ
wcp.dll ??0CRawInstallMap@InstallMap@@QAE@XZ
wcp.dll WriteWinnersFromChangelist
wcp.dll ApplyTransactionPOQsToSil
wcp.dll RtlSmartUcsEncoder_Utf16LE
wcp.dll ?Initialize@CComponentAccessor@@QAEJPAUIRtlDefinitionIdentity@Rtl@Identity@Windows@@PAUIRtlIdentityAuthority@345@@Z
wcp.dll RtlFreeLUtf8String
wcp.dll ?IsAnyMidgroundOrAIPresent@WcpManifest@@QBEJPA_N@Z
wcp.dll ?ParseFromBlob@WcpManifest@@QAEJABU_LBLOB@@PAVStopWatch@Rtl@Windows@@@Z
wcp.dll RtlDecodeUtf16LE
wcp.dll ?GetSignerPublicKeyToken@CCatalog@@QAEJPAUIRtlSystemIsolationLayer@Rtl@Windows@@PAU_LBLOB@@@Z
wcp.dll ?ApplySecurityToObjectWithDefaults@@YGJ_NPAUIRtlSystemObject@Rtl@Windows@@PBU_SECURITY_DESCRIPTOR@@@Z
wcp.dll ?MakeMarkValueName@ComponentStore@@YGJ_WABU_GUID@@ABU_LUNICODE_STRING@@PAV?$Auto@U_LUNICODE_STRING@@@Windows@@@Z
wcp.dll ?MakeMarkValueValue@ComponentStore@@YGJABU_LUNICODE_STRING@@0PAV?$Auto@U_LBLOB@@@Windows@@@Z
wcp.dll ?DecodeTlcInstallerFromMarkValueAndData@ComponentStore@@YGJABU_LUNICODE_STRING@@ABU_LBLOB@@PAUTlcInstaller@1@PA_N@Z
wcp.dll ?VerifyFileAgainstCatalog@Rtl@ComponentStore@Windows@@YGJABVCCatalog@@ABU_LUNICODE_STRING@@PBUIRtlDefinitionIdentity@1Identity@3@ABU_LBLOB@@3PAW4VerifyFileAgainstCatalogDisposition@123@@Z
wcp.dll RtlGetDirectSystem
wcp.dll ?SilFindExistingPath@Rtl@Windows@@YGJPAUIRtlSystemIsolationLayerPublic@12@ABU_LUNICODE_STRING@@PAU4@PAV?$Auto@PAUIRtlDirectory@Rtl@Windows@@@2@@Z
wcp.dll ?CmsVerifyFileHashes@Rtl@ManifestParser@Windows@@YGJKABU?$Vector@$$CBUHashInfo@Rtl@ManifestParser@Windows@@@3@ABU_LUNICODE_STRING@@PAUIRtlFile@13@PAUIRtlDefinitionIdentity@1Identity@3@PAK@Z
wcp.dll ?GetFileSystemDefaultSecurity@@YGJKPAV?$Auto@U_SECURITY_DESCRIPTOR@@@Windows@@@Z
wcp.dll ?GetFileHashes@WcpManifest@@SGJABUFile@WcpManifestParser@@PAV?$CVector@UHashInfo@Rtl@ManifestParser@Windows@@VCCallDisposition@2BUCL@@@BUCL@@PAPAUHashInfo@Rtl@ManifestParser@Windows@@@Z
wcp.dll ?ParseFromBlob@WcpManifest@@QAEJW4ParseDocumentFlags@XmlParserGenerator@@ABU_LBLOB@@PAVStopWatch@Rtl@Windows@@@Z
wcp.dll RtlDuplicateLUnicodeString
wcp.dll ?CompareIdentityAttributeValue@Rtl@Identity@Windows@@YGJPBU_LUNICODE_STRING@@0PAH@Z
wcp.dll ?ParseProcessorArchitecture@Rtl@Identity@Windows@@YGJABU_LUNICODE_STRING@@PAVPSEUDO_ARCH@123@PA_N@Z
wcp.dll ?RtlTraceFormat_IRtlDefinitionAppId@Rtl@WCP@Windows@@YIXPAUIRtlFormattedOutputStream@13@PBX@Z
wcp.dll ?DecompressManifest@Rtl@Implementation@WCP@Windows@@YGJKPAV?$Auto@U_LBLOB@@@4@PAK@Z
wcp.dll ?RtlWcpParseManifestFromXml@Rtl@Implementation@WCP@Windows@@YGJKPBU_LBLOB@@PAUIParseErrorCallback@1Microdom@4@PAUIRtlManifestParseErrorCallback@1ManifestParser@4@PAV?$Auto@PAVIRtlCdf@Rtl@Cdf@Windows@@@4@@Z
wcp.dll ?SilGetRegistryDWORD@Rtl@Windows@@YGJKPAUIRtlSystemIsolationLayerPublic@12@ABU_LUNICODE_STRING@@1PAK2@Z
wcp.dll RtlAllocateLBlob
wcp.dll RtlParseDottedVersion
wcp.dll RtlHashLBlob
wcp.dll ?GetComponentAbsolutePath@CRawStoreLayout@ComponentStore@@QAEJKPAUIRtlDefinitionIdentity@Rtl@Identity@Windows@@PAV?$Auto@U_LUNICODE_STRING@@@6@@Z
wcp.dll ?QueryConfigurationOption@CRawStoreLayout@ComponentStore@@QBEJABU_GUID@@_NPA_N@Z
wcp.dll ?AcquireRequiredResources@CRawStoreLayout@ComponentStore@@QAEJXZ
wcp.dll ?InitializeStoreContext@CRawStoreLayout@ComponentStore@@QAEJKPAUIRtlIdentityAuthority@Rtl@Identity@Windows@@PAUIRtlAppIdAuthority@4AppId@6@PAUIRtlSystemIsolationLayer@46@2PAUIRtlKey@46@3AAVCRawInstallMap@InstallMap@@PAUIRtlDirectory@46@5@Z
wcp.dll GetPrimitiveInstallerSupport
wcp.dll ?ExecutionQueueToXml@AiQueue@@YGJKABU?$Vector@VExecutionQueueEntry@AiQueue@@@Windows@@PAUIRtlIdentityAuthority@Rtl@Identity@3@PAUIRtlXmlWriter@5Microdom@3@@Z
wcp.dll ?Finalize@ExecutionQueueDeriver@AiQueue@@QAEJPAV?$Auto@U?$Vector@VExecutionQueueEntry@AiQueue@@@Windows@@@Windows@@PAK@Z
wcp.dll ?AddInspect@ExecutionQueueDeriver@AiQueue@@QAEJABVWcpManifest@@@Z
wcp.dll ?HasImpactfulOperation@ExecutionQueueDeriver@AiQueue@@QBE_NXZ
wcp.dll ?AddChange@ExecutionQueueDeriver@AiQueue@@QAEJPBVWcpManifest@@0@Z
wcp.dll ?DoesManifestContainAIs@ExecutionQueueDeriver@AiQueue@@QAEJABVWcpManifest@@PA_N@Z
wcp.dll ?ShouldRunAIs@ExecutionQueueDeriver@AiQueue@@QAEJPAUIRtlDefinitionIdentity@Rtl@Identity@Windows@@PA_N@Z
wcp.dll ?Initialize@ExecutionQueueDeriver@AiQueue@@QAEJKKK_KPAUIRtlSystemIsolationLayer@Rtl@Windows@@1PBV?$CVector@UTransformsChangeQueueEntry@AiQueue@@VCCallDisposition@Rtl@BUCL@@@BUCL@@@Z
wcp.dll ?CreateAdvInstallerQueueFromXml@AiQueue@@YGJPAUIRtlIdentityAuthority@Rtl@Identity@Windows@@PAUIRtlMicrodom@3Microdom@5@PAV?$Auto@U?$Vector@VExecutionQueueEntry@AiQueue@@@Windows@@@5@@Z
wcp.dll IsSkuAssembly
wcp.dll ?ConvertStringSecurityDescriptor@CSecurityDescriptorFactory@Rtl@Implementation@WCP@Windows@@QBEJKABU_LUNICODE_STRING@@PAV?$Auto@U_SECURITY_DESCRIPTOR@@@5@PAK@Z
wcp.dll ?ReplaceMacros@LocalTransformerServices@COM@WCP@Windows@@UAGJKPB_WPAPA_WK@Z
wcp.dll ?GetParameter@LocalTransformerServices@COM@WCP@Windows@@UAGJKPB_WPAPA_WPAK@Z
wcp.dll ?TryGetRollbackStorageDirectory@LocalTransformerServices@COM@WCP@Windows@@UAGJKPAPAUIRtlDirectory@Rtl@4@@Z
wcp.dll ?TryGetRollbackStorageKey@LocalTransformerServices@COM@WCP@Windows@@UAGJKPAPAUIRtlKey@Rtl@4@@Z
wcp.dll ?GetUserProfile@LocalTransformerServices@COM@WCP@Windows@@UAGJPAPAUIRtlUserProfile@Rtl@4@@Z
wcp.dll ?GetSystem@LocalTransformerServices@COM@WCP@Windows@@UAGJPAPAUIRtlSystemIsolationLayerPublic@Rtl@4@@Z
wcp.dll ?GetIsolationAllocator@LocalTransformerServices@COM@WCP@Windows@@UAGJPAPAUIMalloc@@@Z
wcp.dll ?Release@LocalTransformerServices@COM@WCP@Windows@@UAGKXZ
wcp.dll ?AddRef@LocalTransformerServices@COM@WCP@Windows@@UAGKXZ
wcp.dll ?QueryInterface@LocalTransformerServices@COM@WCP@Windows@@UAGJABU_GUID@@PAPAX@Z
wcp.dll ?IsSafeMode@LocalInstallerServices@COM@WCP@Windows@@UAGJPA_N@Z
wcp.dll ?IsPhysicallyOffline@LocalInstallerServices@COM@WCP@Windows@@UAG_NXZ
wcp.dll ?QuerySingleResourceOwnershipConfiguration@LocalInstallerServices@COM@WCP@Windows@@UAGJPA_N@Z
wcp.dll ?QuerySmiHiveUpdatesConfiguration@LocalInstallerServices@COM@WCP@Windows@@UAGJPAK@Z
wcp.dll ?IsSkuAssembly@LocalInstallerServices@COM@WCP@Windows@@UAG_NXZ
wcp.dll ?IsStateSeparated@LocalInstallerServices@COM@WCP@Windows@@UAG_NXZ
wcp.dll ?PoqWasExecutedInline@LocalInstallerServices@COM@WCP@Windows@@UAG_NXZ
wcp.dll ?IsMobileStore@LocalInstallerServices@COM@WCP@Windows@@UAG_NXZ
wcp.dll ?get_UserProfile@LocalInstallerServices@COM@WCP@Windows@@UAGJPAPAUIRtlUserProfile@Rtl@4@@Z
wcp.dll ?get_System@LocalInstallerServices@COM@WCP@Windows@@UAGJPAPAUIRtlSystemIsolationLayerPublic@Rtl@4@@Z
wcp.dll ?get_IsolationAllocator@LocalInstallerServices@COM@WCP@Windows@@UAGJPAPAUIMalloc@@@Z
wcp.dll ?AddInstallerFailureAnnotation@LocalInstallerServices@COM@WCP@Windows@@UAGJKPA_W@Z
wcp.dll ?AcquireInstallerComponentPath@LocalInstallerServices@COM@WCP@Windows@@UAGJKPAUIDefinitionIdentity@@PAPA_WPAK@Z
wcp.dll ?RedirectWowPath@LocalInstallerServices@COM@WCP@Windows@@UAGJW4RedirectWowPathFlags@ICSIMetadataInstallerServices@@PAUIDefinitionIdentity@@PB_WPAPA_W@Z
wcp.dll ?VirtualPathToPhysical@LocalInstallerServices@COM@WCP@Windows@@UAGJKPB_WPAPA_W@Z
wcp.dll ?get_TargetProcessorArchitecture@LocalInstallerServices@COM@WCP@Windows@@UAGJPAK@Z
wcp.dll ?get_RebootIndicator@LocalInstallerServices@COM@WCP@Windows@@UAGJPAW4RebootIndicators@@@Z
wcp.dll ?put_RebootIndicator@LocalInstallerServices@COM@WCP@Windows@@UAGJW4RebootIndicators@@@Z
wcp.dll ?VerifyAdvancedInstaller@LocalInstallerServices@COM@WCP@Windows@@UAGJPB_W00PAK@Z
wcp.dll RtlCopyLBlob
wcp.dll ?RemoveInstallMarkFromFamily@CRawInstallMap@InstallMap@@QAEJPAUMapForFamily@2@ABT_FOUR_PART_VERSION@@@Z
wcp.dll ?Release@LocalInstallerServices@COM@WCP@Windows@@UAGKXZ
wcp.dll ?AddRef@LocalInstallerServices@COM@WCP@Windows@@UAGKXZ
wcp.dll ?QueryInterface@LocalInstallerServices@COM@WCP@Windows@@UAGJABU_GUID@@PAPAX@Z
wcp.dll GetFriendlyInstallerName
wcp.dll ConvertHResultToNtStatus
wcp.dll ?ResolvePendingPhases@COM@Windows@@YGJKPAVCQueueExecutor@12@PA_N@Z
wcp.dll ??0AIAsimovProvider@COM@Windows@@QAE@XZ
wcp.dll ?ConvertIn@COM@Windows@@YGJPAUIDefinitionIdentity@@PAPAUIRtlDefinitionIdentity@Rtl@Identity@2@@Z
wcp.dll ?FinalizeValue@CComponentInformationTableTraits@COM@Windows@@SGXAAV?$Auto@PAVCComponentInformation@COM@Windows@@@3@@Z
wcp.dll ?Initialize@CQueueExecutor@COM@Windows@@QAEJKPB_WPAVIComponentStoreHelper@23@PAUIRtlSystemIsolationLayer@Rtl@3@PAVCTransactionContent@23@@Z
wcp.dll ??1CQueueExecutor@COM@Windows@@QAE@XZ
wcp.dll ??1CComponentInformation@COM@Windows@@QAE@XZ
wcp.dll ?FindSubject@CCatalog@@QBEJKPBU_LBLOB@@PA_NPAJ@Z
wcp.dll ?CopyOutPath@COM@Windows@@YGJPBU_LUNICODE_STRING@@PAPA_W@Z
wcp.dll ??1CShortcutInstaller@@QAE@XZ
wcp.dll ??1CGacPrimitiveInstaller@@QAE@XZ
wcp.dll ??0CGacPrimitiveInstaller@@QAE@XZ
wcp.dll ??1CSysprepInstaller@@QAE@XZ
wcp.dll ??1CMigInfoInstaller@@QAE@XZ
wcp.dll ??0CMigInfoInstaller@@QAE@XZ
wcp.dll ??0CFileInstaller@@QAE@XZ
wcp.dll ??1CRegistryInstaller@@QAE@XZ
wcp.dll ??0CRegistryInstaller@@QAE@XZ
wcp.dll RtlHashLUtf8String
wcp.dll ??1CSettingsInstaller@@QAE@XZ
wcp.dll ??1CBackupFileCreator@PrimitiveInstaller@@QAE@XZ
wcp.dll ??0CBackupFileCreator@PrimitiveInstaller@@QAE@XZ
wcp.dll ??0CBaseInstaller@PrimitiveInstaller@@IAE@XZ
wcp.dll ?FinalizeChanges@CCoordinator@PrimitiveInstaller@@QAEJXZ
wcp.dll ?ProcessChange@CCoordinator@PrimitiveInstaller@@QAEJABUComponentChange@2@@Z
wcp.dll ?Initialize@CCoordinator@PrimitiveInstaller@@QAEJKKKPAUIRtlPrimitiveInstallerSupport@Rtl@PrimitiveInstallers@Windows@@PAUIRtlPrimitiveInstallerRepairCallback@456@PAUIRtlSystemIsolationLayer@46@@Z
wcp.dll ?ReplaceSystemPathStringWithDefaultMacro@Rtl@ComponentMacroReplacement@@YGJW4ReplaceSystemPathStringWithDefaultMacroFlags@12@ABU_LUNICODE_STRING@@PAV?$Auto@U_LUNICODE_STRING@@@Windows@@PAW4ReplaceSystemPathStringWithDefaultMacroDisposition@12@@Z
wcp.dll RtlXmlDestroyNextLogicalThing
wcp.dll RtlDestroyGrowingList
wcp.dll RtlNsDestroy
wcp.dll ?Initialize@CXmlCursor@@QAEJPAXK@Z
wcp.dll ??0CXmlCursor@@QAE@XZ
wcp.dll RtlIndexIntoGrowingList
wcp.dll RtlInitUnicodeStringFromLUnicodeString
wcp.dll RtlConvertWin32RegistryPathToNtRegistryPathWithSid
wcp.dll ?SilGetRegistryString@Rtl@Windows@@YGJKPAUIRtlSystemIsolationLayerPublic@12@ABU_LUNICODE_STRING@@1PAV?$Auto@U_LUNICODE_STRING@@@2@PAK@Z
wcp.dll SilCreateRerootedSil
wcp.dll ?CoTaskMemAlloc@COM@Windows@@YGPAXK@Z
wcp.dll RtlConvertNtRegistryPathToWin32RegistryPath
wcp.dll ExpandAndNullTerminateEnvironmentVariableString
wcp.dll RtlReallocateUnicodeString
wcp.dll ?RtlRunPrimitiveOperationsInXmlAgainstExecutor@@YGJW4RtlRunPrimitivesFlags@@KPBU_LBLOB@@ABU?$Vector@QBU_UNICODE_STRING@@@Windows@@P6GJ0KP6GXPAXPAT_PRIMITIVE_OPERATION_UNION_VALUES@@PAU_PRIMITIVE_OPERATION@@PAE@ZP6GX345@ZP6GJPBU_UNICODE_STRING@@3@Z33PBU_POQ_PROGRESS_INFORMATION@@PAU_POQ_CHECKPOINT_INFORMATION@@PAU_POQ_FAILURE_INFORMATION@@@Z3P6GJ93@ZPBU8@PAU9@PAU_POQ_FAILURE_INFORMATION@@PAW4RtlRunPrimitivesDisposition@@@Z
wcp.dll ?CreateSecurityDescriptorFromParts@Rtl@Implementation@WCP@Windows@@YGJKPBU_SID@@0PBU_ACL@@1PAV?$Auto@U_SECURITY_DESCRIPTOR@@@4@@Z
wcp.dll RtlGetEncodingSizeUtf8
wcp.dll RtlEncodeUtf8
wcp.dll RtlReallocateLUtf8String
wcp.dll RtlInitLUnicodeStringFromUnicodeString
wcp.dll RtlDeallocateUnicodeString
wcp.dll ?LookupStringReplacement@MacroReplacement@@YGJKKABU_LUNICODE_STRING@@PAUIRtlSystemIsolationLayer@Rtl@Windows@@PAXPAUIRtlDefinitionIdentity@4Identity@5@PAV?$Auto@U_LUNICODE_STRING@@@5@PAK@Z
wcp.dll ?ChooseBitnessFromIdentityAndTarget@MacroReplacement@@YGJKPAUIRtlDefinitionIdentity@Rtl@Identity@Windows@@PAK@Z
wcp.dll RtlEncodeUtf16LE
wcp.dll ?Close@CCatalog@@QAEJXZ
wcp.dll ?Create@CCatalog@@QAEJKKPBU_LBLOB@@PAK@Z
wcp.dll ?VerifySigner@CCatalog@@QAEJPAUIRtlSystemIsolationLayer@Rtl@Windows@@@Z
wcp.dll RtlHashLUnicodeString
wcp.dll RtlCopyLUnicodeString
wcp.dll ??1PrivilegeAcquisition@RtlSystemUtil@@QAE@XZ
wcp.dll ?Acquire@PrivilegeAcquisition@RtlSystemUtil@@QAEJABU?$Vector@$$CBJ@Windows@@@Z
wcp.dll RtlDowncaseUCSCharacter
wcp.dll ?GetComponentWinningVersion@CRawInstallMap@InstallMap@@QAEJPAUIRtlDefinitionIdentity@Rtl@Identity@Windows@@PAT_FOUR_PART_VERSION@@PA_N_N@Z
wcp.dll DelayExecution
wcp.dll RtlGetEncodingSizeUtf16
wcp.dll ?DoesTargetHaveTestRootCert@@YGJPAUIRtlSystemIsolationLayerPublic@Rtl@Windows@@PA_N@Z
wcp.dll RtlDecodeUtf8
wcp.dll RtlCombineNtPathSegments
wcp.dll RtlConvertWin32FilePathToNtFilePath
wcp.dll ?CoTaskMemFree@COM@Windows@@YGXPBX@Z
wcp.dll ?GetCurrentDllWin32Path@COM@Windows@@YGJPAXPAV?$Auto@U_LUNICODE_STRING@@@2@@Z
wcp.dll ?GetWin32PathOfSiblingFile@COM@Windows@@YGJPAXPB_WPAV?$Auto@U_LUNICODE_STRING@@@2@@Z
wcp.dll RtlCreateDefaultXmlWriter
wcp.dll ConvertNtStatusToHResult
wcp.dll RtlReportErrorPropagation
wcp.dll ?FileHashAlgorithmToDigest@Rtl@Cms@Windows@@YG?AW4_CMS_HASH_DIGESTMETHOD@23@K@Z
wcp.dll ?Close@?$Auto@U_SECURITY_DESCRIPTOR@@@Windows@@QAEXXZ
wcp.dll ?SilCreateKeys@Rtl@Windows@@YGJPAUIRtlSystemIsolationLayerPublic@12@ABU_LUNICODE_STRING@@@Z
wcp.dll ?SilCreateDirectories@Rtl@Windows@@YGJPAUIRtlSystemIsolationLayerPublic@12@ABU_LUNICODE_STRING@@@Z
wcp.dll RtlReplaceSystemPathMappings
wcp.dll ?SilDoesFileExist@Rtl@Windows@@YGJPAUIRtlSystemIsolationLayerPublic@12@PAUIRtlDirectory@12@ABU_LUNICODE_STRING@@PA_N@Z
wcp.dll RtlGetSystem
wcp.dll RtlCreateUtf8UCSStringBuilder
wcp.dll ?SilGetRegistryDWORD@Rtl@Windows@@YGJKPAUIRtlKey@12@ABU_LUNICODE_STRING@@PAK2@Z
wcp.dll SilCreateBufferedSil
wcp.dll ?GetUTF8FileWriterStream@Rtl@Windows@@YGJPAUIRtlFile@12@PAV?$Auto@PAUIRtlWOFOUCSStream@Rtl@Windows@@@2@@Z
wcp.dll ?SilGetRegistryString@Rtl@Windows@@YGJKPAUIRtlKey@12@ABU_LUNICODE_STRING@@PAV?$Auto@U_LUNICODE_STRING@@@2@PAK@Z
wcp.dll MergeTwoChangeLists
wcp.dll ?TraceChangeList@Rtl@ComponentStore@Windows@@YIXPAUIRtlFormattedOutputStream@13@PBX@Z
wcp.dll ??$ReplaceVariablesInStringCallthrough@U_LUNICODE_STRING@@@Rtl@Implementation@WCP@Windows@@YGJPAXPBU_LBLOB@@PAU_RTL_SMART_LBLOB_UCSCHAR_WRITING_CONTEXT@@@Z
wcp.dll ?IsManifestCompressed@Rtl@Implementation@WCP@Windows@@YGJPBU_LBLOB@@PA_N@Z
wcp.dll ?CompareSecurityDescriptorFromObjectAgainstManifest@Rtl@Implementation@WCP@Windows@@YGJKPBU_SECURITY_DESCRIPTOR@@0PA_N@Z
wcp.dll ?ParseBase16String@Rtl@Implementation@WCP@Windows@@YGJKPBE0P6I?AU_RTL_UCSCHAR_DECODER_RETURN_VALUE@@00@ZPAU_LBLOB@@PA_N@Z
wcp.dll ??0CSecurityDescriptorFactory@Rtl@Implementation@WCP@Windows@@QAE@XZ
wcp.dll ??1CSecurityDescriptorFactory@Rtl@Implementation@WCP@Windows@@QAE@XZ
wcp.dll ?DecomposeSecurityDescriptor@Rtl@Implementation@WCP@Windows@@YGJPBU_SECURITY_DESCRIPTOR@@PAKPAV?$Auto@U_SID@@@4@2PAV?$Auto@U_ACL@@@4@3PAG@Z
wcp.dll ?CompressManifest@Rtl@Implementation@WCP@Windows@@YGJK_NPBU_LBLOB@@PAUIRtlFile@14@@Z
wcp.dll ?ReplaceVariablesInString@Rtl@Implementation@WCP@Windows@@YGJPBU_LBLOB@@P6I?AU_RTL_UCSCHAR_DECODER_RETURN_VALUE@@PBE1@ZPAXP6GJ30PAU_RTL_SMART_LBLOB_UCSCHAR_WRITING_CONTEXT@@@ZP6IJKPAU_RTL_SMART_LBLOB_WRITING_CONTEXT@@@ZP6IJQBKK6@ZPAU5@@Z
wcp.dll ?RtlWcpCreateMicrodomFromXmlBlob@Rtl@Implementation@WCP@Windows@@YGJPBU_LBLOB@@PAUIParseErrorCallback@1Microdom@4@PAV?$Auto@PAUIRtlMicrodom@Rtl@Microdom@Windows@@@4@@Z
wcp.dll IsCompactOSEnabled
wcp.dll RtlGetAppIdAuthority
wcp.dll RtlReportErrorOrigination
wcp.dll ?FormatFourPartVersion@Rtl@Implementation@WCP@Windows@@YGJKABT_FOUR_PART_VERSION@@PAE1P6I?AU_RTL_UCSCHAR_ENCODER_RETURN_VALUE@@K11@ZPAPAE@Z
wcp.dll RtlGetIdentityAuthority
wcp.dll RtlReallocateLUnicodeString
wcp.dll RtlSplitLUnicodeString
wcp.dll ?ReadKeyValue@ComponentStore@@YGJPAUIRtlKey@Rtl@Windows@@PBU_LUNICODE_STRING@@PAV?$Auto@U_LBLOB@@@4@PAPBU_KEY_VALUE_PARTIAL_INFORMATION@@PA_N@Z
wcp.dll RtlTranscodeLBlobs
wcp.dll RtlFreeLUnicodeString
wcp.dll RtlFreeLBlob
wcp.dll ?AddInstallMarkToFamily@CRawInstallMap@InstallMap@@QAEJPAUMapForFamily@2@ABT_FOUR_PART_VERSION@@@Z
wcp.dll ?RtlTraceFormat_IRtlBaseIdentity@Rtl@WCP@Windows@@YIXPAUIRtlFormattedOutputStream@13@PBX@Z
wcp.dll ?RtlTraceFormat@Rtl@WCP@Windows@@YIXPAUIRtlFormattedOutputStream@13@PBUIRtlSystemIsolationLayerWithPOQ@13@@Z
wcp.dll ?Close@?$Auto@U_SID@@@Windows@@QAEXXZ
wcp.dll IsIdentityPnPDriver
wcp.dll ?Close@?$Auto@U_ACL@@@Windows@@QAEXXZ
wcp.dll _RtlGetPendingXmlVersion@8
wcp.dll RtlSplitNtPath
wcp.dll RtlConvertNtFilePathToWin32FilePath
wcp.dll ?Close@CApplicationAccessor@@QAEXXZ
wcp.dll ?Initialize@CApplicationAccessor@@QAEJPAUIRtlDefinitionAppId@Rtl@AppId@Windows@@PAUIRtlAppIdAuthority@345@@Z
wcp.dll ?GenerateCatalogThumbprint@@YGJPBU_LBLOB@@PAV?$Auto@U_LUNICODE_STRING@@@Windows@@@Z
wcp.dll RtlSmartMultiUcsEncoder_Utf16LE
wcp.dll ?RtlRunPrimitiveOperationsInXmlAgainstSil@@YGJW4RtlRunPrimitivesFlags@@KPAUIRtlSystemIsolationLayer@Rtl@Windows@@PBU_LBLOB@@ABU?$Vector@QBU_UNICODE_STRING@@@4@P6GJPBU_UNICODE_STRING@@PAX@ZPBU_POQ_PROGRESS_INFORMATION@@PAU_POQ_CHECKPOINT_INFORMATION@@PAU_POQ_FAILURE_INFORMATION@@PAW4RtlRunPrimitivesDisposition@@@Z
wcp.dll RtlCompareLUnicodeStrings
wcp.dll ??0CRawStoreLayout@ComponentStore@@QAE@XZ
wcp.dll ??1CRawStoreLayout@ComponentStore@@QAE@XZ
wcp.dll ?IsComponentFileStaged@CRawStoreLayout@ComponentStore@@SGJKABUComponentData@2@ABU_LUNICODE_STRING@@PA_N@Z
wcp.dll ?InitializeTlcCanonicalData@CRawStoreLayout@ComponentStore@@QAEJABVCApplicationAccessor@@PAUTlcData@2@PA_N@Z
wcp.dll ?AddComponentImplication@CRawStoreLayout@ComponentStore@@QAEJABUComponentData@2@PAUTlcData@2@@Z
wcp.dll ?RemoveComponentImplication@CRawStoreLayout@ComponentStore@@QAEJABUComponentData@2@PAUTlcData@2@@Z
wcp.dll ?AddTlcMark@CRawStoreLayout@ComponentStore@@QAEJKABUTlcInstaller@2@PAUTlcData@2@@Z
wcp.dll ?RemoveTlcMark@CRawStoreLayout@ComponentStore@@QAEJKABUTlcInstaller@2@PAUTlcData@2@@Z
wcp.dll ?ManuallyMarkComponentStaged@CRawStoreLayout@ComponentStore@@QAEJABVCComponentAccessor@@PBU_LBLOB@@@Z
wcp.dll ?AddCatalogMarkFromTlc@CRawStoreLayout@ComponentStore@@QAEJABU_LUNICODE_STRING@@PAUTlcData@2@@Z
wcp.dll ?SetComponentFlag@CRawStoreLayout@ComponentStore@@QAEJ_NKABUComponentData@2@@Z
wcp.dll ?QueryComponentFlag@CRawStoreLayout@ComponentStore@@SGJABUComponentData@2@PA_NPAK@Z
wcp.dll ?IsComponentFileDeltaOrLZMSCompressed@CRawStoreLayout@ComponentStore@@QAEJABUComponentData@2@ABU_LUNICODE_STRING@@PA_N@Z
wcp.dll ?Initialize@VersionedIndexHelper@ComponentStore@@QAEJPAUIRtlKey@Rtl@Windows@@_NPAVIStoreLayoutHelper@2@PAUIRtlIdentityAuthority@4Identity@5@@Z
wcp.dll ?OpenComponentDerivedData@VersionedIndexHelper@ComponentStore@@QAEJ_NPBU_LUNICODE_STRING@@1PAUComponentData@2@PA_N@Z
wcp.dll ?InitComponentData@VersionedIndexHelper@ComponentStore@@QAEJ_NPAUIRtlDefinitionIdentity@Rtl@Identity@Windows@@PAUComponentData@2@PA_N@Z
wcp.dll ?ReplaceMacros@LocalInstallerServices@COM@WCP@Windows@@UAGJKPB_WPAPA_WPAUIDefinitionIdentity@@@Z
wcp.dll ?QueryUnchangedFileVersions@VersionedIndexHelper@ComponentStore@@QAEJ_N0PAUIRtlDefinitionIdentity@Rtl@Identity@Windows@@ABU_LUNICODE_STRING@@ABU_LBLOB@@PAV?$CVector@T_FOUR_PART_VERSION@@VCCallDisposition@Rtl@BUCL@@@BUCL@@PA_N@Z
wcp.dll RtlDecodeBase64LUtf8StringToLBlob
wcp.dll ?MarkServicingStackCorruptHelper@LocalInstallerServices@COM@WCP@Windows@@UAGJXZ
wcp.dll RtlInitLUnicodeStringFromNullTerminatedString
wcp.dll RtlCopyLUtf8StringToLUnicodeString
wcp.dll RtlXmlExtentToUtf8String
wcp.dll RtlCalculateUtf16StringLengthFromLUtf8String
wcp.dll ?Next@CXmlCursor@@QAEJXZ
wcp.dll RtlMurmurHashLBlob
wcp.dll ?FsnpDowncaseChar@@YIKK@Z
wcp.dll ORAdvanceSubkeyEnumerator
wcp.dll ORSaveHive
wcp.dll ORQueryValueEnumerator
wcp.dll ORQueryInfoKey
wcp.dll ORStartSubkeyEnumerator
wcp.dll ORCleanupValueEnumerator
wcp.dll ORAdvanceValueEnumerator
wcp.dll ORSetKeySecurity
wcp.dll ORCreateHive
wcp.dll OROpenKey
wcp.dll ORDeleteValue
wcp.dll ORInitializeSubkeyEnumerator
wcp.dll ORInitializeValueEnumerator
wcp.dll ORCloseKey
wcp.dll ORQuerySubkeyEnumerator
wcp.dll OROpenHive
wcp.dll ORGetValue
wcp.dll ORCloseHive
wcp.dll ORCreateKey
wcp.dll ORCleanupSubkeyEnumerator
wcp.dll ORStartValueEnumerator
wcp.dll ORGetKeySecurity
wcp.dll ORSetValue
wcp.dll ORDeleteKey
wcp.dll ?VerifyCertChainRoot@CCatalog@@QAEJKPAK@Z
wcp.dll ExecuteMidgroundInstallers
wcp.dll WcpSetHelperCallback
cfgmgr32.dll CM_Get_Device_Interface_ListW
cfgmgr32.dll CM_Get_Device_Interface_PropertyW
cfgmgr32.dll CM_Get_Device_Interface_List_SizeW
