msvcrt.dll memset
msvcrt.dll memcmp
msvcrt.dll memcpy
msvcrt.dll memmove
msvcrt.dll _except_handler4_common
msvcrt.dll _initterm
msvcrt.dll free
msvcrt.dll _amsg_exit
msvcrt.dll _XcptFilter
msvcrt.dll qsort
msvcrt.dll _purecall
msvcrt.dll malloc
msvcrt.dll _wcsicmp
msvcrt.dll _vsnprintf
msvcrt.dll _vsnwprintf_s
msvcrt.dll wcscpy_s
ntdll.dll RtlSetLastWin32ErrorAndNtStatusFromNtStatus
ntdll.dll RtlNumberGenericTableElementsAvl
ntdll.dll NtOpenFile
ntdll.dll NtFsControlFile
ntdll.dll RtlRaiseStatus
ntdll.dll NtQuerySystemTime
ntdll.dll RtlComputeCrc32
ntdll.dll NtQueryPerformanceCounter
ntdll.dll DbgPrint
ntdll.dll NtClose
ntdll.dll RtlCreateSystemVolumeInformationFolder
ntdll.dll NtCreateFile
ntdll.dll NtQueryDirectoryFile
ntdll.dll NtWriteFile
ntdll.dll WinSqmStartSession
ntdll.dll RtlAllocateHeap
ntdll.dll WinSqmEndSession
ntdll.dll NtDeviceIoControlFile
ntdll.dll RtlInitializeBitMap
ntdll.dll RtlSetBits
ntdll.dll RtlQueryRegistryValuesEx
ntdll.dll RtlDeleteRegistryValue
ntdll.dll NtQueryInformationFile
ntdll.dll RtlLengthSecurityDescriptor
ntdll.dll RtlEnumerateGenericTableAvl
ntdll.dll RtlDeleteElementGenericTableAvl
ntdll.dll RtlLookupElementGenericTableFullAvl
ntdll.dll RtlDeleteElementGenericTableAvlEx
ntdll.dll RtlInsertElementGenericTableFullAvl
ntdll.dll RtlInsertElementGenericTableAvl
ntdll.dll RtlLookupElementGenericTableAvl
ntdll.dll RtlInitializeGenericTableAvl
ntdll.dll NtFlushBuffersFile
ntdll.dll RtlGetVersion
ntdll.dll RtlCrc64
ntdll.dll RtlUpcaseUnicodeString
ntdll.dll RtlFreeHeap
api-ms-win-core-errorhandling-l1-1-0.dll GetLastError
api-ms-win-core-errorhandling-l1-1-0.dll SetErrorMode
api-ms-win-core-errorhandling-l1-1-0.dll SetUnhandledExceptionFilter
api-ms-win-core-errorhandling-l1-1-0.dll UnhandledExceptionFilter
api-ms-win-core-heap-l1-1-0.dll HeapAlloc
api-ms-win-core-heap-l1-1-0.dll GetProcessHeap
api-ms-win-core-heap-l1-1-0.dll HeapFree
api-ms-win-core-com-l1-1-0.dll CoTaskMemFree
api-ms-win-core-com-l1-1-0.dll StringFromIID
api-ms-win-core-localization-l1-2-0.dll FormatMessageW
api-ms-win-core-libraryloader-l1-2-0.dll GetModuleFileNameW
api-ms-win-core-libraryloader-l1-2-0.dll GetModuleHandleExA
api-ms-win-core-libraryloader-l1-2-0.dll LoadLibraryExW
api-ms-win-core-libraryloader-l1-2-0.dll GetProcAddress
api-ms-win-core-libraryloader-l1-2-0.dll FreeLibrary
api-ms-win-eventing-provider-l1-1-0.dll EventUnregister
api-ms-win-eventing-provider-l1-1-0.dll EventRegister
api-ms-win-eventing-provider-l1-1-0.dll EventWriteTransfer
api-ms-win-eventing-provider-l1-1-0.dll EventActivityIdControl
api-ms-win-eventing-provider-l1-1-0.dll EventSetInformation
api-ms-win-core-console-l1-1-0.dll SetConsoleCtrlHandler
api-ms-win-core-sysinfo-l1-1-0.dll GetTickCount
api-ms-win-core-sysinfo-l1-1-0.dll GetSystemTimeAsFileTime
api-ms-win-core-sysinfo-l1-1-0.dll GetTickCount64
api-ms-win-core-sysinfo-l1-1-0.dll GetWindowsDirectoryW
api-ms-win-eventlog-legacy-l1-1-0.dll DeregisterEventSource
api-ms-win-eventlog-legacy-l1-1-0.dll RegisterEventSourceW
api-ms-win-eventlog-legacy-l1-1-0.dll ReportEventW
api-ms-win-core-file-l1-1-0.dll FindClose
api-ms-win-core-file-l1-1-0.dll FindFirstFileExW
api-ms-win-core-string-l1-1-0.dll WideCharToMultiByte
api-ms-win-core-synch-l1-2-0.dll Sleep
api-ms-win-core-processthreads-l1-1-0.dll GetCurrentThreadId
api-ms-win-core-processthreads-l1-1-0.dll GetCurrentProcessId
api-ms-win-core-processthreads-l1-1-0.dll GetCurrentProcess
api-ms-win-core-processthreads-l1-1-0.dll TerminateProcess
api-ms-win-core-profile-l1-1-0.dll QueryPerformanceCounter
ulib.dll ??0MEM_ALLOCATOR@@QAE@XZ
ulib.dll ??1FSTRING@@UAE@XZ
ulib.dll ??0FSTRING@@QAE@XZ
ulib.dll ?DeleteAllMembers@SEQUENTIAL_CONTAINER@@UAEEXZ
ulib.dll ?Put@LIST@@UAEEPAVOBJECT@@@Z
ulib.dll ?QueryIterator@ARRAY@@UBEPAVITERATOR@@XZ
ulib.dll ?QueryIterator@LIST@@UBEPAVITERATOR@@XZ
ulib.dll ?QueryMemberCount@LIST@@UBEKXZ
ulib.dll ?DisplayMsg@MESSAGE@@QAEEKW4MESSAGE_TYPE@@K@Z
ulib.dll ?QueryClassId@OBJECT@@QBEKXZ
ulib.dll ?Insert@LIST@@QAEEPAVOBJECT@@PAVITERATOR@@@Z
ulib.dll ?Strcat@WSTRING@@QAEEPBV1@@Z
ulib.dll ?Sort@ARRAY@@UAEEE@Z
ulib.dll ?Initialize@ARRAY@@QAEEKK@Z
ulib.dll ?Initialize@LIST@@QAEEXZ
ulib.dll ??1LIST@@UAE@XZ
ulib.dll ??0LIST@@QAE@XZ
ulib.dll ?GetAt@ARRAY@@UBEPAVOBJECT@@K@Z
ulib.dll ?Put@ARRAY@@UAEEPAVOBJECT@@@Z
ulib.dll ?QueryMemberCount@ARRAY@@UBEKXZ
ulib.dll ?DeleteAllMembers@ARRAY@@UAEEXZ
ulib.dll ??1ARRAY@@UAE@XZ
ulib.dll ??0ARRAY@@QAE@XZ
ulib.dll ?ComputeCountSet@BITVECTOR@@ABEKXZ
ulib.dll ?Display@MESSAGE@@QAAEPBDZZ
ulib.dll ?SPrintf@DSTRING@@UAAEPBGZZ
ulib.dll ?NewBuf@DSTRING@@UAEEK@Z
ulib.dll ?Resize@DSTRING@@UAEEK@Z
ulib.dll ?IsStorageDaxCapable@SYSTEM@@SGEPBVWSTRING@@PAE@Z
ulib.dll ?Initialize@MEM_ALLOCATOR@@QAEE_KK@Z
ulib.dll ?SPrintfAppend@DSTRING@@UAAEPBGZZ
ulib.dll ?QueryString@WSTRING@@QBEPAV1@KK@Z
ulib.dll ?SetLogOnly@MESSAGE@@QAEEE@Z
ulib.dll ?Unlock@MESSAGE@@QAEXXZ
ulib.dll ?DumpDataToLog@MESSAGE@@QAEEPAXK@Z
ulib.dll ?Log@MESSAGE@@QAAEPBDZZ
ulib.dll ?Lock@MESSAGE@@QAEXXZ
ulib.dll ?Initialize@WSTRING@@QAEEPBGK@Z
ulib.dll ?QueryWSTR@WSTRING@@QBEPAGKKPAGKE@Z
ulib.dll ?Resize@HMEM@@QAEEKK@Z
ulib.dll ?DisplayMsg@MESSAGE@@QAAEKPBDZZ
ulib.dll ?SetBit@BITVECTOR@@QAEXKK@Z
ulib.dll ?Acquire@HMEM@@UAEPAXKK@Z
ulib.dll ?ResetBit@BITVECTOR@@QAEXKK@Z
ulib.dll ?Initialize@HMEM@@QAEEXZ
ulib.dll ?Initialize@WSTRING@@QAEEPBDK@Z
ulib.dll ?Initialize@WSTRING@@QAEEPBV1@KK@Z
ulib.dll ??1DSTRING@@UAE@XZ
ulib.dll ??0DSTRING@@QAE@XZ
ulib.dll ??1HMEM@@UAE@XZ
ulib.dll ??0HMEM@@QAE@XZ
ulib.dll ?DisplayMsg@MESSAGE@@QAEEK@Z
ulib.dll ?LogMsg@MESSAGE@@QAEEK@Z
ulib.dll ?LogMsg@MESSAGE@@QAAEKPBDZZ
ulib.dll ?MakeFileToken@MESSAGE@@SG_KPBD@Z
ulib.dll ?DisplayMsg@MESSAGE@@QAAEKW4MESSAGE_TYPE@@KPBDZZ
ulib.dll ?DebugDump@OBJECT@@UBEXE@Z
ulib.dll ?Compare@OBJECT@@UBEJPBV1@@Z
ulib.dll ??1OBJECT@@UAE@XZ
ulib.dll ??0OBJECT@@IAE@XZ
ulib.dll ??1MEM_ALLOCATOR@@UAE@XZ
ulib.dll ?Allocate@MEM_ALLOCATOR@@QAEPAXK@Z
ulib.dll ??0BITVECTOR@@QAE@XZ
ulib.dll ??1BITVECTOR@@UAE@XZ
ulib.dll ?Initialize@BITVECTOR@@QAEEKW4BIT@@PAK@Z
ulib.dll ?RemoveAt@ARRAY@@UAEPAVOBJECT@@K@Z
ulib.dll ??0CHKDSK_MESSAGE@@QAE@XZ
ulib.dll ?QueryPackedLog@MESSAGE@@QAEEPAVHMEM@@PAK@Z
ulib.dll ?Split@WSTRING@@QBEEPAVARRAY@@PBV1@E@Z
ulib.dll ?Stricmp@WSTRING@@QBEJPBV1@KKKK@Z
ulib.dll ?EnablePrivileges@ADMINFILEPRIVS@@QAEJXZ
ulib.dll ?Strcat@WSTRING@@QAEEPBG@Z
ulib.dll ?Strrchr@WSTRING@@QBEKGK@Z
ulib.dll ?DeleteChAt@WSTRING@@QAEXKK@Z
ulib.dll ?SqmExport@SQMEXPORT@@SAEPAXKEPADZZ
ulib.dll ?QueryResetBit@BITVECTOR@@QBEEKK@Z
ulib.dll ?Initialize@CLASS_DESCRIPTOR@@QAEEPBD@Z
ulib.dll ??0CLASS_DESCRIPTOR@@QAE@XZ
ulib.dll ?QuerySTR@WSTRING@@QBEPADKKPADKE@Z
ulib.dll ??1MESSAGE@@UAE@XZ
ulib.dll ??0MESSAGE@@QAE@XZ
ulib.dll ?QueryComponentArray@PATH@@QBEPAVARRAY@@PAV2@@Z
ulib.dll ?Initialize@PATH@@QAEEPBVWSTRING@@E@Z
ulib.dll ??1PATH@@UAE@XZ
ulib.dll ??0PATH@@QAE@XZ
ulib.dll ??0ADMINFILEPRIVS@@QAE@XZ
ulib.dll ??1ADMINFILEPRIVS@@QAE@XZ
ulib.dll ?QueryResourceString@BASE_SYSTEM@@SAEPAVWSTRING@@KPBDZZ
ulib.dll ?Initialize@WSTRING@@QAEEXZ
ulib.dll ?Initialize@BITVECTOR@@QAEXPAKK@Z
ulib.dll ?Stricmp@WSTRING@@QBEJPBV1@@Z
ulib.dll ?QuerySetBit@BITVECTOR@@QBEEKK@Z
ulib.dll ?Initialize@FSTRING@@QAEPAVWSTRING@@PAGK@Z
ifsutil.dll ?Initialize@NUMBER_SET@@QAEEXZ
ifsutil.dll ??0NUMBER_SET@@QAE@XZ
ifsutil.dll ??1NUMBER_SET@@UAE@XZ
ifsutil.dll ?Add@NUMBER_SET@@QAEEVBIG_INT@@0@Z
ifsutil.dll ?DoesIntersectSet@NUMBER_SET@@QBEEVBIG_INT@@0@Z
ifsutil.dll ?Set@BIG_INT@@QAEXEPBE@Z
ifsutil.dll ?Remove@NUMBER_SET@@QAEEVBIG_INT@@0@Z
ifsutil.dll ?Write@SECRUN@@UAEEXZ
ifsutil.dll ??0SECRUN@@QAE@XZ
ifsutil.dll ??1SECRUN@@UAE@XZ
ifsutil.dll ?Initialize@SECRUN@@QAEEPAVMEM@@PAVIO_DP_DRIVE@@VBIG_INT@@K@Z
ifsutil.dll ?Read@SECRUN@@UAEEXZ
ifsutil.dll ?Read@IO_DP_DRIVE@@QAEEVBIG_INT@@KPAX@Z
ifsutil.dll ?Prefetch@IO_DP_DRIVE@@QAEEVBIG_INT@@K@Z
ifsutil.dll ?Write@IO_DP_DRIVE@@QAEEVBIG_INT@@KPAX@Z
ifsutil.dll ?VerifyRead@SECRUN@@UAEEPAE@Z
ifsutil.dll ?Add@NUMBER_SET@@QAEEVBIG_INT@@@Z
ifsutil.dll ?QueryDisjointRange@NUMBER_SET@@QBEXKPAVBIG_INT@@0@Z
ifsutil.dll ?SetFileSystemName@VOL_LIODPDRV@@QAEEPBG@Z
ifsutil.dll ??0BLOCK_CACHE@@QAE@XZ
ifsutil.dll ?Initialize@BLOCK_CACHE@@QAEEPAVIO_DP_DRIVE@@@Z
ifsutil.dll ?Subtract@NUMBER_SET@@QAEEPAV1@0@Z
ifsutil.dll ?Add@SPARSE_SET@@QAEEPBV1@@Z
ifsutil.dll ?Initialize@SPARSE_SET@@QAEEXZ
ifsutil.dll ??1SPARSE_SET@@UAE@XZ
ifsutil.dll ??0SPARSE_SET@@QAE@XZ
ifsutil.dll ?Add@SPARSE_SET@@QAEEVBIG_INT@@@Z
ifsutil.dll ?CheckAndRemove@SPARSE_SET@@QAEEVBIG_INT@@PAE@Z
ifsutil.dll ?Enumerate@NUMBER_SET@@QBEEEPAVBIG_INT@@0@Z
ifsutil.dll ?CheckValidSecurityDescriptor@IFS_SYSTEM@@SGEKPAU_SECURITY_DESCRIPTOR@@@Z
ifsutil.dll ?WriteEntireDrive@VOL_LIODPDRV@@UAE?AW4FORMAT_ERROR_CODE@@PAVMESSAGE@@PAXKII@Z
ifsutil.dll ?QueryPartitionInfo@DP_DRIVE@@UAEEPAU_PARTITION_INFORMATION_EX@@@Z
ifsutil.dll ?QueryDataRedundancyCount@DP_DRIVE@@UAEJPAK0@Z
ifsutil.dll ?QueryWriteBlockSize@DP_DRIVE@@UBEKXZ
ifsutil.dll ?Initialize@VOL_LIODPDRV@@IAE?AW4FORMAT_ERROR_CODE@@PBVWSTRING@@PAVSUPERAREA@@PAVMESSAGE@@EEW4_MEDIA_TYPE@@GEIEE@Z
ifsutil.dll ??1VOL_LIODPDRV@@UAE@XZ
ifsutil.dll ??0VOL_LIODPDRV@@IAE@XZ
ifsutil.dll ?IsThisNtfs@IFS_SYSTEM@@SGEVBIG_INT@@KPAX@Z
ifsutil.dll ?Initialize@SUPERAREA@@IAEEPAVMEM@@PAVLOG_IO_DP_DRIVE@@KPAVMESSAGE@@@Z
ifsutil.dll ??1SUPERAREA@@UAE@XZ
ifsutil.dll ??0SUPERAREA@@IAE@XZ
ifsutil.dll ?QueryReadUsage@IO_DP_DRIVE@@QAEXPA_K0@Z
ifsutil.dll ?GetPhaseSubPhase@DRIVE_CACHE@@SGXPAPAG0@Z
ifsutil.dll ?QueryReadAndVerifiedUsage@IO_DP_DRIVE@@QAEXPA_K0@Z
ifsutil.dll ?SqmExport@IO_DP_DRIVE@@QAEEPBVWSTRING@@P6AEPAXKEPADZZ1@Z
ifsutil.dll ?GetSystemTime@IFS_SYSTEM@@SGXPAU_TIME_FIELDS@@@Z
ifsutil.dll ?QueryVerifyHandle@IO_DP_DRIVE@@QAEPAXXZ
ifsutil.dll ?Verify@IO_DP_DRIVE@@QAEEVBIG_INT@@0PAVNUMBER_SET@@@Z
ifsutil.dll ?IsTotalDeviceFailure@IFS_SYSTEM@@SGEJ@Z
ifsutil.dll ?Verify@IO_DP_DRIVE@@QAEEVBIG_INT@@0@Z
ifsutil.dll ?QueryPageSize@IFS_SYSTEM@@SGKXZ
ifsutil.dll ?Remove@NUMBER_SET@@QAEEPBV1@@Z
ifsutil.dll ?SetCache@IO_DP_DRIVE@@QAEXPAVDRIVE_CACHE@@@Z
ifsutil.dll ?ForceAutochk@VOL_LIODPDRV@@QAEEEKKGPBVWSTRING@@@Z
ifsutil.dll ?QueryNumber@NUMBER_SET@@QBE?AVBIG_INT@@V2@@Z
ifsutil.dll ?ChkDsk@VOL_LIODPDRV@@QAEEW4FIX_LEVEL@@PAVMESSAGE@@KKGPAKPBVWSTRING@@@Z
ifsutil.dll ?QueryID@DP_DRIVE@@QAEEPAU_GUID@@PBVWSTRING@@@Z
ifsutil.dll ?GetFileSystemName@VOL_LIODPDRV@@QAEPBGXZ
ifsutil.dll ?SetVerifyHandle@IO_DP_DRIVE@@QAEPAXPAX@Z
ifsutil.dll ??0WRITEVIEW_CACHE@@QAE@XZ
ifsutil.dll ?Initialize@WRITEVIEW_CACHE@@QAEEPAVIO_DP_DRIVE@@PAVDRIVE_CACHE@@PBVWSTRING@@GEE@Z
ifsutil.dll ?DosDriveNameToNtDriveName@IFS_SYSTEM@@SGEPBVWSTRING@@PAV2@@Z
ifsutil.dll ?DismountAndLock@IO_DP_DRIVE@@QAEEXZ
ifsutil.dll ?QueryReadCacheSize@DP_DRIVE@@UAEJPA_K@Z
ifsutil.dll ?IsDax@IO_DP_DRIVE@@QAEEXZ
ifsutil.dll ?IsThinlyProvisioned@DP_DRIVE@@QAEEXZ
ifsutil.dll ?QuerySectorSize@DP_DRIVE@@UBEKXZ
ifsutil.dll ?FlushCache@IO_DP_DRIVE@@QAEEXZ
ifsutil.dll ??0LOG_IO_DP_DRIVE@@QAE@XZ
ifsutil.dll ??1LOG_IO_DP_DRIVE@@UAE@XZ
ifsutil.dll ??0DP_DRIVE@@QAE@XZ
ifsutil.dll ??1DP_DRIVE@@UAE@XZ
ifsutil.dll ?Initialize@DP_DRIVE@@QAEEPBVWSTRING@@PAVMESSAGE@@EE@Z
ifsutil.dll ?Format@VOL_LIODPDRV@@QAE?AW4FORMAT_ERROR_CODE@@PBVWSTRING@@PAVMESSAGE@@KKK@Z
ifsutil.dll ?QueryTierCount@DP_DRIVE@@UAEJPAK@Z
ifsutil.dll ?DismountVolume@IFS_SYSTEM@@SGEPBVWSTRING@@@Z
ifsutil.dll ?Recover@VOL_LIODPDRV@@QAEEPBVWSTRING@@PAVMESSAGE@@@Z
ifsutil.dll ?QueryCompressedInteger@BIG_INT@@QBEXPAE0@Z
ifsutil.dll ?SetSystemId@LOG_IO_DP_DRIVE@@QAEEE@Z
ifsutil.dll ?QueryNtfsTime@IFS_SYSTEM@@SGXPAT_LARGE_INTEGER@@@Z
ifsutil.dll ?QueryMediaByte@DP_DRIVE@@QBEEXZ
ifsutil.dll ?ComputeVolId@SUPERAREA@@SGKK@Z
ifsutil.dll ?QuerySectors@DP_DRIVE@@UBE?AVBIG_INT@@XZ
ifsutil.dll ??0READ_WRITE_CACHE@@QAE@XZ
ifsutil.dll ?Initialize@READ_WRITE_CACHE@@QAEEPAVIO_DP_DRIVE@@KE@Z
ifsutil.dll ?FormatScaleTotalFreeClusters@IFS_SYSTEM@@SGE_K0PAK1PA_K2@Z
ifsutil.dll ?GetCannedSecurity@IFS_SYSTEM@@SGPAVCANNED_SECURITY@@XZ
ifsutil.dll ?GetCannedSecurityDescriptor@CANNED_SECURITY@@QAEPAXW4_CANNED_SECURITY_TYPE@@PAK@Z
ifsutil.dll ?Add@NUMBER_SET@@QAEEPBV1@@Z
ifsutil.dll ?Initialize@LOG_IO_DP_DRIVE@@QAEEPBVWSTRING@@PAVMESSAGE@@E@Z
ifsutil.dll ??0INTSTACK@@QAE@XZ
ifsutil.dll ??1INTSTACK@@UAE@XZ
ifsutil.dll ?Look@INTSTACK@@QBE?AVBIG_INT@@K@Z
ifsutil.dll ?Initialize@INTSTACK@@QAEEXZ
ifsutil.dll ?Push@INTSTACK@@QAEEVBIG_INT@@@Z
ifsutil.dll ?Pop@INTSTACK@@QAEXK@Z
ifsutil.dll ?Lock@IO_DP_DRIVE@@QAEEXZ
ifsutil.dll ?QuerySystemMemory@IFS_SYSTEM@@SGEPAKPA_K11@Z
ifsutil.dll ?QueryMemoryLimit@IO_DP_DRIVE@@QAEEPA_KPAE@Z
ifsutil.dll ?QueryCacheSize@IO_DP_DRIVE@@QAEXPA_K0@Z
ifsutil.dll ?AdjustCacheSize@IO_DP_DRIVE@@QAEXPA_K0@Z
ifsutil.dll ?Initialize@DIGRAPH@@QAEEK@Z
ifsutil.dll ?QueryChildren@DIGRAPH@@QBEEKPAVNUMBER_SET@@@Z
ifsutil.dll ?QueryParentsWithChildren@DIGRAPH@@QBEEPAVNUMBER_SET@@K@Z
ifsutil.dll ??1DIGRAPH@@UAE@XZ
ifsutil.dll ??0DIGRAPH@@QAE@XZ
ifsutil.dll ??0DIGRAPH_EDGE@@QAE@XZ
ifsutil.dll ?EliminateCycles@DIGRAPH@@QAEEPAVCONTAINER@@PAE@Z
ifsutil.dll ?RemoveAll@NUMBER_SET@@QAEEXZ
ifsutil.dll ?CheckAndAdd@NUMBER_SET@@QAEEVBIG_INT@@PAE@Z
ifsutil.dll ?AddEdge@DIGRAPH@@QAEEKK@Z
ifsutil.dll ?ReverseCopy@INTSTACK@@QAEEPAV1@@Z
ifsutil.dll ?IsMember@INTSTACK@@QBEEVBIG_INT@@@Z
ifsutil.dll ?RemoveEdge@DIGRAPH@@QAEEKK@Z
ifsutil.dll ?Remove@NUMBER_SET@@QAEEVBIG_INT@@@Z
ifsutil.dll ?QueryParents@DIGRAPH@@QBEEKPAVNUMBER_SET@@@Z
ifsutil.dll ?SetPhaseSubPhase@DRIVE_CACHE@@SGXPAG0@Z
