msvcrt.dll sscanf_s
msvcrt.dll _ftol2
msvcrt.dll memset
msvcrt.dll _ftol2_sse
msvcrt.dll atol
msvcrt.dll _vsnprintf
msvcrt.dll memcmp
msvcrt.dll ?terminate@@YAXXZ
msvcrt.dll wcstok
msvcrt.dll ??1type_info@@UAE@XZ
msvcrt.dll _onexit
msvcrt.dll __dllonexit
msvcrt.dll _except_handler4_common
msvcrt.dll _initterm
msvcrt.dll _amsg_exit
msvcrt.dll _XcptFilter
msvcrt.dll _unlock
msvcrt.dll _lock
msvcrt.dll memmove
msvcrt.dll memcpy
msvcrt.dll _CxxThrowException
msvcrt.dll ?what@exception@@UBEPBDXZ
msvcrt.dll ??0exception@@QAE@ABQBDH@Z
msvcrt.dll ??0exception@@QAE@ABQBD@Z
msvcrt.dll _wcslwr_s
msvcrt.dll wcsstr
msvcrt.dll iswxdigit
msvcrt.dll iswspace
msvcrt.dll memmove_s
msvcrt.dll _vsnprintf_s
msvcrt.dll ??0exception@@QAE@ABV0@@Z
msvcrt.dll ??0exception@@QAE@XZ
msvcrt.dll ??1exception@@UAE@XZ
msvcrt.dll memcpy_s
msvcrt.dll _ui64tow_s
msvcrt.dll swprintf_s
msvcrt.dll malloc
msvcrt.dll isdigit
msvcrt.dll free
msvcrt.dll wcschr
msvcrt.dll _wcsicmp
msvcrt.dll _vsnwprintf
msvcrt.dll _wcsnicmp
msvcrt.dll _purecall
msvcrt.dll __CxxFrameHandler3
kernel32.dll TlsSetValue
kernel32.dll OpenProcess
kernel32.dll WaitForMultipleObjectsEx
kernel32.dll WaitForSingleObject
kernel32.dll CreateEventW
kernel32.dll Sleep
kernel32.dll SetEvent
kernel32.dll TlsAlloc
kernel32.dll CloseHandle
kernel32.dll CreateThread
kernel32.dll TlsGetValue
kernel32.dll TlsFree
kernel32.dll GetTickCount
kernel32.dll GetTickCount64
kernel32.dll GetCurrentThread
kernel32.dll LocalFree
kernel32.dll GetCurrentProcessId
kernel32.dll LCMapStringW
kernel32.dll WideCharToMultiByte
kernel32.dll CreateTimerQueueTimer
kernel32.dll EnterCriticalSection
kernel32.dll GetProcessTimes
kernel32.dll InitializeCriticalSectionAndSpinCount
kernel32.dll LeaveCriticalSection
kernel32.dll ExpandEnvironmentStringsW
kernel32.dll GetCurrentThreadId
kernel32.dll GetModuleHandleW
kernel32.dll GetComputerNameExW
kernel32.dll QueueUserWorkItem
kernel32.dll GetSystemTimeAsFileTime
kernel32.dll GetSystemTime
kernel32.dll GetLastError
kernel32.dll OpenEventW
kernel32.dll DeleteCriticalSection
kernel32.dll GetFileAttributesW
kernel32.dll GetVersionExW
kernel32.dll MoveFileW
kernel32.dll DeleteTimerQueueTimer
kernel32.dll GetModuleFileNameA
kernel32.dll GetSystemDirectoryW
kernel32.dll ResetEvent
kernel32.dll GetProcAddress
kernel32.dll GlobalMemoryStatusEx
kernel32.dll FreeLibrary
kernel32.dll LoadLibraryExW
kernel32.dll CreateSemaphoreExW
kernel32.dll HeapFree
kernel32.dll lstrlenW
kernel32.dll CreateFileW
kernel32.dll GetFileInformationByHandle
kernel32.dll FileTimeToSystemTime
kernel32.dll SetLastError
kernel32.dll ReleaseSemaphore
kernel32.dll GetModuleHandleExW
kernel32.dll QueryPerformanceCounter
kernel32.dll TerminateProcess
kernel32.dll GetCurrentProcess
kernel32.dll SetUnhandledExceptionFilter
kernel32.dll UnhandledExceptionFilter
kernel32.dll InitializeCriticalSectionEx
kernel32.dll WaitForThreadpoolTimerCallbacks
kernel32.dll GetLocalTime
kernel32.dll WriteFile
kernel32.dll ReleaseMutex
kernel32.dll CompareStringW
kernel32.dll FormatMessageW
kernel32.dll ReleaseSRWLockExclusive
kernel32.dll GetFileAttributesExW
kernel32.dll SystemTimeToFileTime
kernel32.dll GetSystemInfo
kernel32.dll OutputDebugStringW
kernel32.dll CloseThreadpoolTimer
kernel32.dll AcquireSRWLockExclusive
kernel32.dll WaitForSingleObjectEx
kernel32.dll IsDebuggerPresent
kernel32.dll DebugBreak
kernel32.dll GetProcessHeap
kernel32.dll AcquireSRWLockShared
kernel32.dll CreateMutexExW
kernel32.dll HeapAlloc
kernel32.dll CreateThreadpoolTimer
kernel32.dll ReleaseSRWLockShared
kernel32.dll SetThreadpoolTimer
kernel32.dll OpenSemaphoreW
ole32.dll CoUninitialize
ole32.dll CoTaskMemFree
ole32.dll CoSwitchCallContext
ole32.dll CoUnmarshalInterface
ole32.dll CoInitializeEx
ole32.dll CoImpersonateClient
ole32.dll CLSIDFromString
ole32.dll CoRevertToSelf
ole32.dll CoGetCallContext
ole32.dll StringFromGUID2
ole32.dll CoSetProxyBlanket
ole32.dll CoDisconnectObject
ole32.dll CoCreateInstance
oleaut32.dll SafeArrayGetUBound
oleaut32.dll SafeArrayDestroy
oleaut32.dll SafeArrayGetElement
oleaut32.dll SysAllocStringLen
oleaut32.dll SafeArrayPutElement
oleaut32.dll SafeArrayGetDim
oleaut32.dll SafeArrayCreate
oleaut32.dll SafeArrayGetLBound
oleaut32.dll SafeArrayUnaccessData
oleaut32.dll SafeArrayAccessData
oleaut32.dll VariantCopy
oleaut32.dll VariantClear
oleaut32.dll SysAllocStringByteLen
oleaut32.dll SysStringLen
oleaut32.dll SetErrorInfo
oleaut32.dll VariantInit
oleaut32.dll SysFreeString
oleaut32.dll SysAllocString
oleaut32.dll VariantChangeType
advapi32.dll GetSecurityDescriptorSacl
advapi32.dll AccessCheck
advapi32.dll PrivilegeCheck
advapi32.dll GetSidSubAuthorityCount
advapi32.dll GetSidSubAuthority
advapi32.dll GetSecurityDescriptorControl
advapi32.dll GetTokenInformation
advapi32.dll GetLengthSid
advapi32.dll RegDeleteValueW
advapi32.dll RegDeleteKeyW
advapi32.dll RegCreateKeyExW
advapi32.dll SetThreadToken
advapi32.dll GetSecurityDescriptorDacl
advapi32.dll AllocateAndInitializeSid
advapi32.dll IsValidSecurityDescriptor
advapi32.dll FreeSid
advapi32.dll ConvertStringSecurityDescriptorToSecurityDescriptorW
advapi32.dll OpenThreadToken
advapi32.dll EventActivityIdControl
advapi32.dll RegCloseKey
advapi32.dll RegNotifyChangeKeyValue
advapi32.dll RevertToSelf
advapi32.dll RegOpenKeyExW
advapi32.dll RegSetValueExW
advapi32.dll RegQueryValueExW
version.dll VerQueryValueW
version.dll GetFileVersionInfoExW
version.dll GetFileVersionInfoSizeExW
ntdll.dll WinSqmIsOptedIn
ntdll.dll WinSqmAddToStream
api-ms-win-core-com-l1-1-0.dll CoWaitForMultipleHandles
api-ms-win-core-heap-l1-1-0.dll HeapReAlloc
api-ms-win-core-string-l1-1-0.dll GetStringTypeExW
api-ms-win-core-sysinfo-l1-1-0.dll GetVersion
wbemcomn.dll ?MakeInternalCopyOfThread@CWbemCallSecurity@@SGPAV1@XZ
wbemcomn.dll ?WbemMemReAlloc@CWin32DefaultArena@@SGPAXPAXK@Z
wbemcomn.dll ?IsValid@CNtSid@@QAEHXZ
wbemcomn.dll ?IsValid@CNtAcl@@QAEHXZ
wbemcomn.dll IsInAdminGroup
wbemcomn.dll ?GetSid@CNtAce@@QAEPAVCNtSid@@XZ
wbemcomn.dll ??0CNtAcl@@QAE@PAU_ACL@@@Z
wbemcomn.dll ?ContainsSid@CNtAcl@@QAEHAAVCNtSid@@AAE@Z
wbemcomn.dll ?DeleteAce@CNtAcl@@QAEHH@Z
wbemcomn.dll ?OrderAces@CNtAcl@@QAEPAV1@XZ
wbemcomn.dll ??4CNtSecurityDescriptor@@QAEAAV0@AAV0@@Z
wbemcomn.dll ?GetDacl@CNtSecurityDescriptor@@QAEJPAPAVCNtAcl@@@Z
wbemcomn.dll ?GetSacl@CNtSecurityDescriptor@@QAEJPAPAVCNtAcl@@@Z
wbemcomn.dll ?SetSacl@CNtSecurityDescriptor@@QAEHPAVCNtAcl@@@Z
wbemcomn.dll ?DeleteSacl@CNtSecurityDescriptor@@QAEJXZ
wbemcomn.dll ?GetOwner@CNtSecurityDescriptor@@QAEPAVCNtSid@@XZ
wbemcomn.dll ?SetOwner@CNtSecurityDescriptor@@QAEHPAVCNtSid@@@Z
wbemcomn.dll ?SetGroup@CNtSecurityDescriptor@@QAEHPAVCNtSid@@@Z
wbemcomn.dll ?GetSize@CNtSecurityDescriptor@@QAEKXZ
wbemcomn.dll GetSecurityDescriptorFromParameters
wbemcomn.dll BuildSecurityDescriptorParameter
wbemcomn.dll ??0CVar@@QAE@E@Z
wbemcomn.dll ??0CVar@@QAE@J@Z
wbemcomn.dll ??0CVar@@QAE@FH@Z
wbemcomn.dll ??0CVar@@QAE@PAVCVarVector@@H@Z
wbemcomn.dll ?SetVarVector@CVar@@QAEXPAVCVarVector@@H@Z
wbemcomn.dll ??0CVarVector@@QAE@HHH@Z
wbemcomn.dll ??1CVarVector@@QAE@XZ
wbemcomn.dll ?Add@CVarVector@@QAEHAAVCVar@@@Z
wbemcomn.dll ??0CVar@@QAE@PAUtagVARIANT@@@Z
wbemcomn.dll ?GetEmbeddedObject@CVar@@QAEPAUIUnknown@@XZ
wbemcomn.dll ?EqualNoCase@WString2@@QBEHPBG@Z
wbemcomn.dll ??0CPropertyName@@QAE@XZ
wbemcomn.dll ??1CPropertyName@@QAE@XZ
wbemcomn.dll ?GetStringAt@CPropertyName@@QBEPBGJ@Z
wbemcomn.dll ?AddElement@CPropertyName@@QAEXPBG@Z
wbemcomn.dll ?Empty@CVar@@QAEXXZ
wbemcomn.dll ?ChangeTypeTo@CVar@@QAEHG@Z
wbemcomn.dll ??0QL_LEVEL_1_TOKEN@@QAE@ABU0@@Z
wbemcomn.dll ??1QL_LEVEL_1_TOKEN@@QAE@XZ
wbemcomn.dll ??0CLike@@QAE@PBGG@Z
wbemcomn.dll ??1CLike@@QAE@XZ
wbemcomn.dll ?Match@CLike@@QAE_NPBG@Z
wbemcomn.dll ReadI64
wbemcomn.dll ?GetReferencedTables@CWQLScanner@@QAEHAAVCWStringArray@@@Z
wbemcomn.dll ??0CDateTimeParser@@QAE@PBG@Z
wbemcomn.dll ??1CDateTimeParser@@QAE@XZ
wbemcomn.dll ?FillDMTF@CDateTimeParser@@QAEHPAGI@Z
wbemcomn.dll ReadUI64
wbemcomn.dll ??4WString@@QAEAAV0@ABV0@@Z
wbemcomn.dll ?SetDMTF@CWbemTime@@QAEHPBG@Z
wbemcomn.dll ??0QL1_Parser@@QAE@PAVCGenLexSource@@@Z
wbemcomn.dll ??1QL1_Parser@@UAE@XZ
wbemcomn.dll ?Parse@QL1_Parser@@QAEHPAPAUQL_LEVEL_1_RPN_EXPRESSION@@@Z
wbemcomn.dll ?UnbindPtr@WString2@@QAEPAGXZ
wbemcomn.dll ??1QL_LEVEL_1_RPN_EXPRESSION@@QAE@XZ
wbemcomn.dll ?AddRef@QL_LEVEL_1_RPN_EXPRESSION@@QAEXXZ
wbemcomn.dll ?Release@QL_LEVEL_1_RPN_EXPRESSION@@QAEXXZ
wbemcomn.dll ?AddProperty@QL_LEVEL_1_RPN_EXPRESSION@@UAEXABVCPropertyName@@@Z
wbemcomn.dll ?GetText@QL_LEVEL_1_RPN_EXPRESSION@@QAEPAGXZ
wbemcomn.dll ?ValidateMemSize@CWin32DefaultArena@@SGHH@Z
wbemcomn.dll ?_GetSystemDefaultLocale@CMUILocale@@SGJPAPAGK@Z
wbemcomn.dll ??1CEnterWbemCriticalSection@@QAE@XZ
wbemcomn.dll Set_WPP_INIT_TRACING_Call_State
wbemcomn.dll ?SetLogingEnabled@CMemoryLog@@QAEX_N@Z
wbemcomn.dll RegisterDLL
wbemcomn.dll UnRegisterDLL
wbemcomn.dll ?RegisterCMIFlushRepositoryCacheHook@CWbemInstallObject@@SGXP6GJH@Z@Z
wbemcomn.dll ?UnregisterCMIFlushRepositoryCacheHook@CWbemInstallObject@@SGXXZ
wbemcomn.dll WMIControlClientOpsCallback
wbemcomn.dll ??0CWbemCriticalSection@@QAE@XZ
wbemcomn.dll ??1CWbemCriticalSection@@QAE@XZ
wbemcomn.dll ?Enter@CWbemCriticalSection@@QAEHK@Z
wbemcomn.dll ?Leave@CWbemCriticalSection@@QAEXXZ
wbemcomn.dll ?Init@CPublishWMIOperationEvent@@SGJXZ
wbemcomn.dll ??0CVar@@QAE@HVauto_bstr@@@Z
wbemcomn.dll ?DeleteValue@Registry@@QAEHPBG@Z
wbemcomn.dll ?GetPersistentCfgValue@CPersistentConfig@@QAEHKAAK@Z
wbemcomn.dll TestDirExistAndCreateWithSDIfNotThere
wbemcomn.dll ??0CInsertionString@@QAE@VCHex@@@Z
wbemcomn.dll ??0CEventLog@@QAE@PBGABU_GUID@@K@Z
wbemcomn.dll ??1CEventLog@@QAE@XZ
wbemcomn.dll ?Close@CEventLog@@QAEHXZ
wbemcomn.dll ?Open@CEventLog@@QAEHXZ
wbemcomn.dll ComposeName
wbemcomn.dll ?GetBinaryPath@CWbemInstallObject@@SGPBGXZ
wbemcomn.dll ?GetRepositoryFolder@CWbemInstallObject@@SGPBGXZ
wbemcomn.dll ?CoGetClassObject@CWbemInstallObject@@SGJABU_GUID@@KPAU_COSERVERINFO@@0PAPAX@Z
wbemcomn.dll ?anyFailure@CStaticCritSec@@SGHXZ
wbemcomn.dll ??0WString@@QAE@ABV0@@Z
wbemcomn.dll ?EqualNoCase@WString@@QBEHPBG@Z
wbemcomn.dll ?SetAt@CFlexArray@@QAEXHPAX@Z
wbemcomn.dll ??0CVar@@QAE@ABV0@@Z
wbemcomn.dll ?Empty@WString@@QAEXXZ
wbemcomn.dll ?SetFlags@CNtAce@@UAEXJ@Z
wbemcomn.dll ?GetStatus@CNtAce@@UAEKXZ
wbemcomn.dll _IsValidElementName
wbemcomn.dll ?Empty@CWStringArray@@QAEXXZ
wbemcomn.dll ?FindStr@CWStringArray@@QAEHPBGH@Z
wbemcomn.dll ?IsUserInGroup@CNtSecurity@@SGHPAXAAVCNtSid@@PAH@Z
wbemcomn.dll ?IsDataNull@CVar@@QAEHXZ
wbemcomn.dll ?GetBSTR@CVar@@QAEPAGXZ
wbemcomn.dll isunialphanum
wbemcomn.dll ?GetAt@CVarVector@@QAEAAVCVar@@H@Z
wbemcomn.dll ??0CNtAce@@QAE@KKKAAVCNtSid@@@Z
wbemcomn.dll ??1CNtAce@@UAE@XZ
wbemcomn.dll ?GetType@CNtAce@@UAEHXZ
wbemcomn.dll ?GetFlags@CNtAce@@UAEHXZ
wbemcomn.dll ?GetAccessMask@CNtAce@@UAEKXZ
wbemcomn.dll ?GetSerializedSize@CNtAce@@UAEKXZ
wbemcomn.dll ?Serialize@CNtAce@@UAE_NPAEI@Z
wbemcomn.dll ?Deserialize@CNtAce@@UAE_NPAE@Z
wbemcomn.dll IsAdmin
wbemcomn.dll ??0CNtAcl@@QAE@K@Z
wbemcomn.dll ??1CNtAcl@@QAE@XZ
wbemcomn.dll ?GetNumAces@CNtAcl@@QAEHXZ
wbemcomn.dll ?GetAce@CNtAcl@@QAEPAVCNtAce@@H@Z
wbemcomn.dll ?AddAce@CNtAcl@@QAEHPAVCNtAce@@@Z
wbemcomn.dll BuildOperationInfo
wbemcomn.dll ??0CNtSecurityDescriptor@@QAE@PAX@Z
wbemcomn.dll ??0CNtSecurityDescriptor@@QAE@XZ
wbemcomn.dll ??1CNtSecurityDescriptor@@QAE@XZ
wbemcomn.dll ?GetDacl@CNtSecurityDescriptor@@QAEPAVCNtAcl@@XZ
wbemcomn.dll ?SetDacl@CNtSecurityDescriptor@@QAEHPAVCNtAcl@@@Z
wbemcomn.dll ?GetSacl@CNtSecurityDescriptor@@QAEPAVCNtAcl@@XZ
wbemcomn.dll ??0WString@@QAE@PBG@Z
wbemcomn.dll ?Size@CVarVector@@QAEHXZ
wbemcomn.dll GetGlobalClientOps
wbemcomn.dll ??0CMUILocaleList@@QAE@XZ
wbemcomn.dll ??1CMUILocaleList@@QAE@XZ
wbemcomn.dll ?Initialize@CMUILocaleList@@QAEJPAG_N@Z
wbemcomn.dll ?GetFirst_ms_XXX_Locale@CMUILocaleList@@QAEJPAPAG@Z
wbemcomn.dll ?GetCultures@CMUILocaleList@@QAEPBGXZ
wbemcomn.dll ?GetLocales@CMUILocaleList@@QAEPBGXZ
wbemcomn.dll ?AddChild@CClientOpsNode@@QAEXPAV1@@Z
wbemcomn.dll ??0CNtSid@@QAE@PAX@Z
wbemcomn.dll ??1CNtSid@@QAE@XZ
wbemcomn.dll ?ms_XXX_Locale_To_LCID@CMUILocale@@SGJPBGPAK@Z
wbemcomn.dll ?CheckLangNeutral@CMUILocale@@SGJPBGPA_N@Z
wbemcomn.dll ?LocaleName_To_LCID@CMUILocale@@SGJPBGPA_NPAK@Z
wbemcomn.dll ?LCID_To_ms_XXX_Format@CMUILocale@@SGJKPAGI@Z
wbemcomn.dll ??0CSafeArray@@QAE@PAUtagSAFEARRAY@@HHH@Z
wbemcomn.dll ?GetBSTRAt@CSafeArray@@QAEPAGH@Z
wbemcomn.dll ?Publish@CPublishWMIOperationEvent@@SGJPAGKK0000K_K0H@Z
wbemcomn.dll ?PublishMethodExec@CPublishWMIOperationEvent@@SGJPAGKK000000K_K0H@Z
wbemcomn.dll ?PublishWin32ProcessCreation@CPublishWMIOperationEvent@@SGJPAGKK0K_K000K1H@Z
wbemcomn.dll ?PublishRepDelete@CPublishWMIOperationEvent@@SGJKPAGPAUIWbemContext@@K0_KH@Z
wbemcomn.dll ?PublishRepUpdate@CPublishWMIOperationEvent@@SGJKPAGKPAUIWbemContext@@K0_KH@Z
wbemcomn.dll ?CreateInst@CWbemCallSecurity@@SGPAVIWbemCallSecurity@@XZ
wbemcomn.dll ?SetBSTR@CVar@@QAEHPAG@Z
wbemcomn.dll ?SetBSTR@CVar@@QAEHVauto_bstr@@@Z
wbemcomn.dll ??0Registry@@QAE@PAUHKEY__@@KKPBG@Z
wbemcomn.dll ?GetDWORDStr@Registry@@QAEHPBGPAK@Z
wbemcomn.dll ?GetMultiStr@Registry@@QAEPAGPBGAAK@Z
wbemcomn.dll ?SetDWORD@Registry@@QAEHPBGK@Z
wbemcomn.dll ?SetDWORDStr@Registry@@QAEHPBGK@Z
wbemcomn.dll ?SetStr@Registry@@QAEHPBG0@Z
wbemcomn.dll ??0CSafeArray@@QAE@HHHH@Z
wbemcomn.dll ??1CSafeArray@@QAE@XZ
wbemcomn.dll ?SetBSTRAt@CSafeArray@@QAEHHPAG@Z
wbemcomn.dll ?Trim@CSafeArray@@QAEHXZ
wbemcomn.dll ?GetAt@CWStringArray@@QBEPAGH@Z
wbemcomn.dll ??0CVar@@QAE@HPAG@Z
wbemcomn.dll ?SetEmbeddedObject@CVar@@QAEXPAUIUnknown@@@Z
wbemcomn.dll ??0CFlexArray@@QAE@AAV0@@Z
wbemcomn.dll ?AliasToTable@CWQLScanner@@QAEQAGPAG@Z
wbemcomn.dll ?GetReferencedAliases@CWQLScanner@@QAEHAAVCWStringArray@@@Z
wbemcomn.dll ??0CWQLScanner@@QAE@PAVCGenLexSource@@@Z
wbemcomn.dll ??1CWQLScanner@@QAE@XZ
wbemcomn.dll ?Parse@CWQLScanner@@QAEHXZ
wbemcomn.dll ?Compress@CFlexArray@@QAEXXZ
wbemcomn.dll ?Bind@CFlexArray@@QAEXAAV1@@Z
wbemcomn.dll ??4CWStringArray@@QAEAAV0@AAV0@@Z
wbemcomn.dll ?RemoveAt@CWStringArray@@QAEHH@Z
wbemcomn.dll ?Union@CWStringArray@@SGXAAV1@00@Z
wbemcomn.dll ??0WString2@@QAE@PAGH@Z
wbemcomn.dll ??YWString2@@QAEAAV0@ABV0@@Z
wbemcomn.dll ?EscapeQuotes@WString2@@QBE?AV1@XZ
wbemcomn.dll ?_Free@CMUILocale@@SGHPAX@Z
wbemcomn.dll ??0Registry@@QAE@PBGK@Z
wbemcomn.dll ?GetStr@Registry@@QAEHPBGPAPAG@Z
wbemcomn.dll IsNtSetupRunning
wbemcomn.dll ?Enter@CCheckedInCritSec@@QAEXXZ
wbemcomn.dll ??1WString@@QAE@XZ
wbemcomn.dll ?BindPtr@WString@@QAEXPAG@Z
wbemcomn.dll ?GetQueueSize@CFlexQueue@@QBEHXZ
wbemcomn.dll ??0CInsertionString@@QAE@PBG@Z
wbemcomn.dll ??0CClientOpsNode@@QAE@XZ
wbemcomn.dll BreakOnDbgAndRenterLoop
wbemcomn.dll _ThrowMemoryException_
wbemcomn.dll ??0Registry@@QAE@PAUHKEY__@@KPBG@Z
wbemcomn.dll ??1Registry@@QAE@XZ
wbemcomn.dll ?GetDWORD@Registry@@QAEHPBGPAK@Z
wbemcomn.dll ??0CIdentitySecurity@@QAE@_N@Z
wbemcomn.dll ??1CIdentitySecurity@@QAE@XZ
wbemcomn.dll ?AccessCheck@CIdentitySecurity@@QAEHXZ
wbemcomn.dll IsLocalConnection
wbemcomn.dll ??0WString@@QAE@XZ
wbemcomn.dll ??4WString@@QAEAAV0@PBG@Z
wbemcomn.dll ??YWString@@QAEAAV0@PBG@Z
wbemcomn.dll ??1CClientOpsNode@@QAE@XZ
wbemcomn.dll ?RemoveSelf@CClientOpsNode@@QAEXXZ
wbemcomn.dll ?Peek@CFlexQueue@@QAEPAXXZ
wbemcomn.dll ?PublishStop@CPublishWMIOperationEvent@@SGJKJPAG@Z
wbemcomn.dll ?PublishClientRequestFailure@CPublishWMIOperationEvent@@SGJPBGPAG1K10J0@Z
wbemcomn.dll ??0CVar@@QAE@XZ
wbemcomn.dll ??1CVar@@QAE@XZ
wbemcomn.dll ?WbemMemAlloc@CWin32DefaultArena@@SAPAXK@Z
wbemcomn.dll ?WbemMemFree@CWin32DefaultArena@@SAHPAX@Z
wbemcomn.dll ??ACWStringArray@@QBEPAGH@Z
wbemcomn.dll ?Size@CWStringArray@@QBEHXZ
wbemcomn.dll ??0CInsertionString@@QAE@XZ
wbemcomn.dll ??1CInsertionString@@QAE@XZ
wbemcomn.dll ?GetAt@CFlexArray@@QBEPAXH@Z
wbemcomn.dll ??0CWStringArray@@QAE@HH@Z
wbemcomn.dll ??1CWStringArray@@QAE@XZ
wbemcomn.dll ?Add@CWStringArray@@QAEHPBG@Z
wbemcomn.dll ?Report@CEventLog@@QAEHGABU_EVENT_DESCRIPTOR@@VCInsertionString@@111111111@Z
wbemcomn.dll ?IsOffline@CWbemInstallObject@@SG_NXZ
wbemcomn.dll ?GetRegistryPathCIMOM@CWbemInstallObject@@SGPBGXZ
wbemcomn.dll ?CoCreateInstance@CWbemInstallObject@@SGJABU_GUID@@PAUIUnknown@@K0PAPAX@Z
wbemcomn.dll ??0CFlexQueue@@QAE@H@Z
wbemcomn.dll ??1CFlexQueue@@QAE@XZ
wbemcomn.dll ?Enqueue@CFlexQueue@@QAE_NPAX@Z
wbemcomn.dll ?Dequeue@CFlexQueue@@QAEPAXXZ
wbemcomn.dll ??0WString2@@QAE@XZ
wbemcomn.dll ??0WString2@@QAE@PBG@Z
wbemcomn.dll ??4WString2@@QAEAAV0@PBG@Z
wbemcomn.dll ??1WString2@@QAE@XZ
wbemcomn.dll ??YWString2@@QAEAAV0@PBG@Z
wbemcomn.dll ?Empty@WString2@@QAEXXZ
wbemcomn.dll ??0CCheckedInCritSec@@QAE@PAVCCritSec@@@Z
wbemcomn.dll ??1CCheckedInCritSec@@QAE@XZ
wbemcomn.dll ?Leave@CCheckedInCritSec@@QAEXXZ
wbemcomn.dll ?InsertAt@CFlexArray@@QAEHHPAX@Z
wbemcomn.dll ?Empty@CFlexArray@@QAEXXZ
wbemcomn.dll ??0CStaticCritSec@@QAE@XZ
wbemcomn.dll ??1CStaticCritSec@@QAE@XZ
wbemcomn.dll ??0CCritSec@@QAE@XZ
wbemcomn.dll ??1CCritSec@@QAE@XZ
wbemcomn.dll ?Enter@CCritSec@@QAEXXZ
wbemcomn.dll ?Leave@CCritSec@@QAEXXZ
wbemcomn.dll ??0CInCritSec@@QAE@PAU_RTL_CRITICAL_SECTION@@@Z
wbemcomn.dll ??1CInCritSec@@QAE@XZ
wbemcomn.dll ?Add@CFlexArray@@QAEHPAX@Z
wbemcomn.dll ??0CFlexArray@@QAE@HH@Z
wbemcomn.dll ??1CFlexArray@@QAE@XZ
wbemcomn.dll ??ACFlexArray@@QAEAAPAXH@Z
wbemcomn.dll ?RemoveAt@CFlexArray@@QAEHH@Z
wbemcomn.dll GetMemLogObject
wbemcomn.dll ?Write@CMemoryLog@@QAEXJ@Z
wbemcomn.dll ?SetFailure@CStaticCritSec@@SGXXZ
wbemcomn.dll ??0WString@@QAE@PAGH@Z
wbemcomn.dll GetAccessToken
fastprox.dll ?AppendArrayPropRangeByHandle@CWbemObject@@UAGJJJKKPAX@Z
fastprox.dll ?RemoveArrayPropRangeByHandle@CWbemObject@@UAGJJJKK@Z
fastprox.dll ?SetArrayPropRangeByHandle@CWbemObject@@UAGJJJKKKPAX@Z
fastprox.dll ?GetArrayPropRangeByHandle@CWbemObject@@UAGJJJKKKPAK0PAX@Z
fastprox.dll ?RemoveArrayPropElementByHandle@CWbemObject@@UAGJJJK@Z
fastprox.dll ?SetArrayPropElementByHandle@CWbemObject@@UAGJJJKKPAX@Z
fastprox.dll ?GetArrayPropElementByHandle@CWbemObject@@UAGJJJKPAK0PAPAX@Z
fastprox.dll ?GetArrayPropAddrByHandle@CWbemObject@@UAGJJJPAKPAPAX@Z
fastprox.dll ?GetArrayPropInfoByHandle@CWbemObject@@UAGJJJPAPAGPAJPAK@Z
fastprox.dll ?GetPropAddrByHandle@CWbemObject@@UAGJJJPAKPAPAX@Z
fastprox.dll ?SetPropByHandle@CWbemObject@@UAGJJJKPAX@Z
fastprox.dll ?GetPropertyHandleEx@CWbemObject@@UAGJPBGJPAJ1@Z
fastprox.dll ?Unlock@CWbemObject@@UAGJJ@Z
fastprox.dll ?Lock@CWbemObject@@UAGJJ@Z
fastprox.dll ?GetPropertyInfoByHandle@CWbemObject@@UAGJJPAPAGPAJ@Z
fastprox.dll ?WriteQWORD@CWbemObject@@UAGJJ_K@Z
fastprox.dll ?ReadQWORD@CWbemObject@@UAGJJPA_K@Z
fastprox.dll ?WriteDWORD@CWbemObject@@UAGJJK@Z
fastprox.dll ?ReadDWORD@CWbemObject@@UAGJJPAK@Z
fastprox.dll ?ReadPropertyValue@CWbemObject@@UAGJJJPAJPAE@Z
fastprox.dll ?WritePropertyValue@CWbemObject@@UAGJJJPBE@Z
fastprox.dll ?GetPropertyHandle@CWbemObject@@UAGJPBGPAJ1@Z
fastprox.dll ?SetServerNamespace@CWbemObject@@UAGJPBG0@Z
fastprox.dll ?GetSource@CWbemObject@@UAGJPAPAG@Z
fastprox.dll ?GetHelpFile@CWbemObject@@UAGJPAPAG@Z
fastprox.dll ?GetHelpContext@CWbemObject@@UAGJPAK@Z
fastprox.dll ?GetGUID@CWbemObject@@UAGJPAU_GUID@@@Z
fastprox.dll ?GetDescription@CWbemObject@@UAGJPAPAG@Z
fastprox.dll ?DisconnectObject@CWbemObject@@UAGJK@Z
fastprox.dll ?ReleaseMarshalData@CWbemObject@@UAGJPAUIStream@@@Z
fastprox.dll ?UnmarshalInterface@CWbemObject@@UAGJPAUIStream@@ABU_GUID@@PAPAX@Z
fastprox.dll ?MarshalInterface@CWbemObject@@UAGJPAUIStream@@ABU_GUID@@PAXK2K@Z
fastprox.dll ?GetMarshalSizeMax@CWbemObject@@UAGJABU_GUID@@PAXK1KPAK@Z
fastprox.dll ?GetUnmarshalClass@CWbemObject@@UAGJABU_GUID@@PAXK1KPAU2@@Z
fastprox.dll ?GetPropertyValue@CWbemObject@@UAGJPAU_tag_WbemPropertyName@@JPAPAGPAUtagVARIANT@@@Z
fastprox.dll ?InheritsFrom@CWbemObject@@UAGJPBG@Z
fastprox.dll ?GetPropertyOrigin@CWbemObject@@UAGJPBGPAPAG@Z
fastprox.dll ?CompareTo@CWbemObject@@UAGJJPAUIWbemClassObject@@@Z
fastprox.dll ?EndEnumeration@CWbemObject@@UAGJXZ
fastprox.dll ?Next@CWbemObject@@UAGJJPAPAGPAUtagVARIANT@@PAJ2@Z
fastprox.dll ?ReadProp@CWbemObject@@UAGJPBGJKPAJ1PAHPAKPAX@Z
fastprox.dll ?WriteProp@CWbemObject@@UAGJPBGJKKJPAX@Z
fastprox.dll ?GetObjQual@CWbemObject@@UAGJPBGJKPAJPAK2PAX@Z
fastprox.dll ?BeginEnumeration@CWbemObject@@UAGJJ@Z
fastprox.dll ?GetNames@CWbemObject@@UAGJPBGJPAUtagVARIANT@@PAPAUtagSAFEARRAY@@@Z
fastprox.dll ?Get@CWbemObject@@UAGJPBGJPAUtagVARIANT@@PAJ2@Z
fastprox.dll ?Release@CWbemObject@@UAGKXZ
fastprox.dll ?AddRef@CWbemObject@@UAGKXZ
fastprox.dll ?QueryInterface@CWbemObject@@UAGJABU_GUID@@PAPAX@Z
fastprox.dll ?GetKeyOrigin@CWbemObject@@UAGJJKPAKPAG@Z
fastprox.dll ?GetDerivation@CWbemObject@@UAGJJKPAK0PAG@Z
fastprox.dll ?FindMethod@CWbemObject@@UAEJPBG@Z
fastprox.dll ?Unmerge@CWbemObject@@UAGJJKPAKPAX@Z
fastprox.dll ?GetMaxMarshalStreamSize@CWbemObject@@UAEJPAK@Z
fastprox.dll ?WriteToStream@CWbemObject@@UAEJPAUIStream@@@Z
fastprox.dll ?MergeAndDecorate@CWbemClass@@UAGJJKPAXPAG1PAPAU_IWmiObject@@@Z
fastprox.dll ?CloneAndDecorate@CWbemClass@@UAGJJPAG0PAPAUIWbemClassObject@@@Z
fastprox.dll ?GetParentClassFromBlob@CWbemClass@@UAGJJKPAXPAPAG@Z
fastprox.dll ?SpawnKeyedInstance@CWbemClass@@UAGJJPBGPAPAU_IWmiObject@@@Z
fastprox.dll ?Upgrade@CWbemClass@@UAGJPAU_IWmiObject@@JPAPAU2@@Z
fastprox.dll ?MakeSubsetInst@CWbemClass@@UAGJPAU_IWmiObject@@PAPAU2@@Z
fastprox.dll ?GetClassSubset@CWbemClass@@UAGJKPAPBGPAPAU_IWmiObject@@@Z
fastprox.dll ?CompareDerivedMostClass@CWbemClass@@UAGJJPAU_IWmiObject@@@Z
fastprox.dll ?IsParentClass@CWbemClass@@UAGJJPAU_IWmiObject@@@Z
fastprox.dll ?CopyInstanceData@CWbemClass@@UAGJJPAU_IWmiObject@@@Z
fastprox.dll ?CloneEx@CWbemClass@@UAGJJPAU_IWmiObject@@@Z
fastprox.dll ?SetMethodOrigin@CWbemClass@@UAGJPBGJ@Z
fastprox.dll ?SetPropertyOrigin@CWbemClass@@UAGJPBGJ@Z
fastprox.dll ?SetObjQual@CWbemObject@@UAGJPBGJKKJKPAX@Z
fastprox.dll ?GetMethodOrigin@CWbemClass@@UAGJPBGPAPAG@Z
fastprox.dll ?GetMethodQualifierSet@CWbemClass@@UAGJPBGPAPAUIWbemQualifierSet@@@Z
fastprox.dll ?EndMethodEnumeration@CWbemClass@@UAGJXZ
fastprox.dll ?GetPropQual@CWbemObject@@UAGJPBG0JKPAJPAK2PAX@Z
fastprox.dll ?NextMethod@CWbemClass@@UAGJJPAPAGPAPAUIWbemClassObject@@1@Z
fastprox.dll ?BeginMethodEnumeration@CWbemClass@@UAGJJ@Z
fastprox.dll ?DeleteMethod@CWbemClass@@UAGJPBG@Z
fastprox.dll ?PutMethod@CWbemClass@@UAGJPBGJPAUIWbemClassObject@@1@Z
fastprox.dll ?GetMethod@CWbemClass@@UAGJPBGJPAPAUIWbemClassObject@@1@Z
fastprox.dll ?SetPropQual@CWbemObject@@UAGJPBG0JKKJKPAX@Z
fastprox.dll ?CompareTo@CWbemClass@@UAGJJPAUIWbemClassObject@@@Z
fastprox.dll ?GetMethodQual@CWbemObject@@UAGJPBG0JKPAJPAK2PAX@Z
fastprox.dll ?SpawnInstance@CWbemClass@@UAGJJPAPAUIWbemClassObject@@@Z
fastprox.dll ?SpawnDerivedClass@CWbemClass@@UAGJJPAPAUIWbemClassObject@@@Z
fastprox.dll ?GetObjectText@CWbemClass@@UAGJJPAPAG@Z
fastprox.dll ?Clone@CWbemClass@@UAGJPAPAUIWbemClassObject@@@Z
fastprox.dll ?GetPropertyQualifierSet@CWbemClass@@UAGJPBGPAPAUIWbemQualifierSet@@@Z
fastprox.dll ?Delete@CWbemClass@@UAGJPBG@Z
fastprox.dll ?Put@CWbemClass@@UAGJPBGJPAUtagVARIANT@@J@Z
fastprox.dll ?GetQualifierSet@CWbemClass@@UAGJPAPAUIWbemQualifierSet@@@Z
fastprox.dll ?GetDynasty@CWbemClass@@UAEJPAVCVar@@@Z
fastprox.dll ?SetMethodQual@CWbemObject@@UAGJPBG0JKKJKPAX@Z
fastprox.dll ?ReconcileWith@CWbemClass@@UAGJJPAU_IWmiObject@@@Z
fastprox.dll ?QueryObjectFlags@CWbemObject@@UAGJJ_KPA_K@Z
fastprox.dll ?SetObjectFlags@CWbemObject@@UAGJJ_K0@Z
fastprox.dll ?Update@CWbemClass@@UAGJPAU_IWmiObject@@JPAPAU2@@Z
fastprox.dll ?Merge@CWbemClass@@UAGJJKPAXPAPAU_IWmiObject@@@Z
fastprox.dll ?QueryPropertyFlags@CWbemObject@@UAGJJPBG_KPA_K@Z
fastprox.dll ?MergeAmended@CWbemObject@@UAGJJPAU_IWmiObject@@@Z
fastprox.dll ?Unmerge@CWbemClass@@UAEJPAEHPAK@Z
fastprox.dll ?EstimateUnmergeSpace@CWbemClass@@UAEKXZ
fastprox.dll ?_GetCoreInfo@CWbemObject@@UAGJJPAPAX@Z
fastprox.dll ?CopyBlobOf@CWbemClass@@UAEJPAVCWbemObject@@@Z
fastprox.dll ?CompactAll@CWbemClass@@UAEXXZ
fastprox.dll ?IsValidObj@CWbemClass@@UAEJXZ
fastprox.dll ?QueryPartInfo@CWbemObject@@UAGJPAK@Z
fastprox.dll ?GetRelPath@CWbemClass@@UAEPAGH@Z
fastprox.dll ?Undecorate@CWbemClass@@UAEXXZ
fastprox.dll ?Decorate@CWbemClass@@UAEJPBG0@Z
fastprox.dll ?SetLocalized@CWbemClass@@UAEXH@Z
fastprox.dll ?SetObjectMemory@CWbemObject@@UAGJPAXK@Z
fastprox.dll ?IsLocalized@CWbemClass@@UAEHXZ
fastprox.dll ?SetPropQualifier@CWbemClass@@UAEJPBG0JPAVCVar@@@Z
fastprox.dll ?SetPropQualifier@CWbemClass@@UAEJPBG0JPAVCTypedValue@@@Z
fastprox.dll ?GetObjectMemory@CWbemObject@@UAGJPAXKPAK@Z
fastprox.dll ?GetPropertyType@CWbemClass@@UAEJPBGPAJ1@Z
fastprox.dll ?SetDecoration@CWbemObject@@UAGJPBG0@Z
fastprox.dll ?RemoveDecoration@CWbemObject@@UAGJXZ
fastprox.dll ?CompareClassParts@CWbemObject@@UAGJPAUIWbemClassObject@@J@Z
fastprox.dll ?GetPropertyType@CWbemClass@@UAEJPAVCPropertyInformation@@PAJ1@Z
fastprox.dll ?FindMethod@CWbemClass@@UAEJPBG@Z
fastprox.dll ?SetMethodQualifier@CWbemClass@@UAEJPBG0JPAVCVar@@@Z
fastprox.dll ?SetMethodQualifier@CWbemClass@@UAEJPBG0JPAVCTypedValue@@@Z
fastprox.dll ?GetMethodQualifier@CWbemClass@@UAEJPBG0PAVCVar@@PAJ2@Z
fastprox.dll ?GetMethodQualifier@CWbemClass@@UAEJPBG0PAJPAVCTypedValue@@PAPAVCFastHeap@@H@Z
fastprox.dll ?GetKeyString@CWbemObject@@UAGJJPAPAG@Z
fastprox.dll ?GetPropQualifier@CWbemClass@@UAEJPBG0PAVCVar@@PAJ2@Z
fastprox.dll ?GetPropQualifier@CWbemClass@@UAEJPAVCPropertyInformation@@PBGPAVCVar@@PAJ3@Z
fastprox.dll ?GetPropQualifier@CWbemClass@@UAEJPBG0PAJPAVCTypedValue@@PAPAVCFastHeap@@H@Z
fastprox.dll ?GetPropQualifier@CWbemClass@@UAEJPAVCPropertyInformation@@PBGPAJPAVCTypedValue@@PAPAVCFastHeap@@H@Z
fastprox.dll ?SetQualifier@CWbemClass@@UAEJPBGPAVCVar@@J@Z
fastprox.dll ?SetQualifier@CWbemClass@@UAEJPBGJPAVCTypedValue@@@Z
fastprox.dll ?GetQualifier@CWbemClass@@UAEJPBGPAVCVar@@PAJ2@Z
fastprox.dll ?GetQualifier@CWbemClass@@UAEJPBGPAJPAVCTypedValue@@PAPAVCFastHeap@@H@Z
fastprox.dll ?SetPropValue@CWbemClass@@UAEJPBGPAVCVar@@J@Z
fastprox.dll ?GetProperty@CWbemClass@@UAEJPBGPAVCVar@@@Z
fastprox.dll ?SetData@CWbemClass@@UAEXPAEH@Z
fastprox.dll ??1CWbemClass@@UAE@XZ
fastprox.dll ?MergeAndDecorate@CWbemInstance@@UAGJJKPAXPAG1PAPAU_IWmiObject@@@Z
fastprox.dll ?CloneAndDecorate@CWbemInstance@@UAGJJPAG0PAPAUIWbemClassObject@@@Z
fastprox.dll ?SpawnKeyedInstance@CWbemInstance@@UAGJJPBGPAPAU_IWmiObject@@@Z
fastprox.dll ?Update@CWbemInstance@@UAGJPAU_IWmiObject@@JPAPAU2@@Z
fastprox.dll ?Upgrade@CWbemInstance@@UAGJPAU_IWmiObject@@JPAPAU2@@Z
fastprox.dll ?ReconcileWith@CWbemInstance@@UAGJJPAU_IWmiObject@@@Z
fastprox.dll ?Merge@CWbemInstance@@UAGJJKPAXPAPAU_IWmiObject@@@Z
fastprox.dll ?MakeSubsetInst@CWbemInstance@@UAGJPAU_IWmiObject@@PAPAU2@@Z
fastprox.dll ?GetClassSubset@CWbemInstance@@UAGJKPAPBGPAPAU_IWmiObject@@@Z
fastprox.dll ?CompareDerivedMostClass@CWbemInstance@@UAGJJPAU_IWmiObject@@@Z
fastprox.dll ?IsParentClass@CWbemInstance@@UAGJJPAU_IWmiObject@@@Z
fastprox.dll ?CopyInstanceData@CWbemInstance@@UAGJJPAU_IWmiObject@@@Z
fastprox.dll ?CloneEx@CWbemInstance@@UAGJJPAU_IWmiObject@@@Z
fastprox.dll ?ClearWriteOnlyProperties@CWbemInstance@@UAGJXZ
fastprox.dll ?MergeClassPart@CWbemInstance@@UAGJPAUIWbemClassObject@@@Z
fastprox.dll ?SetClassPart@CWbemInstance@@UAGJPAXK@Z
fastprox.dll ?StripClassPart@CWbemInstance@@UAGJXZ
fastprox.dll ?GetObjectParts@CWbemInstance@@UAGJPAXKKPAK@Z
fastprox.dll ?GetNormalizedPath@CWbemObject@@UAGJJPAPAG@Z
fastprox.dll ?IsAmendment@CWbemClass@@QAEHXZ
fastprox.dll ?SetObjectParts@CWbemInstance@@UAGJPAXKK@Z
fastprox.dll ?SpawnInstance@CWbemInstance@@UAGJJPAPAUIWbemClassObject@@@Z
fastprox.dll ?IsAbstract@CWbemClass@@QAEHXZ
fastprox.dll ?IsDynamic@CWbemClass@@QAEHXZ
fastprox.dll ?GetParentClassFromBlob@CWbemObject@@UAGJJKPAXPAPAG@Z
fastprox.dll ?ValidateObject@CWbemObject@@UAGJJ@Z
fastprox.dll ?CIMTYPEToVARTYPE@CWbemObject@@UAGJJPAG@Z
fastprox.dll ?SetInheritanceChain@CWbemClass@@UAGJJPAPAG@Z
fastprox.dll ?SpawnDerivedClass@CWbemInstance@@UAGJJPAPAUIWbemClassObject@@@Z
fastprox.dll ?GetObjectText@CWbemInstance@@UAGJJPAPAG@Z
fastprox.dll ?Clone@CWbemInstance@@UAGJPAPAUIWbemClassObject@@@Z
fastprox.dll ?GetPropertyQualifierSet@CWbemInstance@@UAGJPBGPAPAUIWbemQualifierSet@@@Z
fastprox.dll ?Delete@CWbemInstance@@UAGJPBG@Z
fastprox.dll ?Put@CWbemInstance@@UAGJPBGJPAUtagVARIANT@@J@Z
fastprox.dll ?GetQualifierSet@CWbemInstance@@UAGJPAPAUIWbemQualifierSet@@@Z
fastprox.dll ?ExtendInstancePartSpace@CWbemInstance@@UAEHPAVCInstancePart@@K@Z
fastprox.dll ?GetDynasty@CWbemInstance@@UAEJPAVCVar@@@Z
fastprox.dll ?Unmerge@CWbemInstance@@UAEJPAEHPAK@Z
fastprox.dll ?CopyBlobOf@CWbemInstance@@UAEJPAVCWbemObject@@@Z
fastprox.dll ?IsValidObj@CWbemInstance@@UAEJXZ
fastprox.dll ?GetRelPath@CWbemInstance@@UAEPAGH@Z
fastprox.dll ?Undecorate@CWbemInstance@@UAEXXZ
fastprox.dll ?Decorate@CWbemInstance@@UAEJPBG0@Z
fastprox.dll ?SetLocalized@CWbemInstance@@UAEXH@Z
fastprox.dll ?IsLocalized@CWbemInstance@@UAEHXZ
fastprox.dll ?SetMethodQualifier@CWbemInstance@@UAEJPBG0JPAVCVar@@@Z
fastprox.dll ?SetMethodQualifier@CWbemInstance@@UAEJPBG0JPAVCTypedValue@@@Z
fastprox.dll ?GetMethodQualifier@CWbemInstance@@UAEJPBG0PAVCVar@@PAJ2@Z
fastprox.dll ?GetMethodQualifier@CWbemInstance@@UAEJPBG0PAJPAVCTypedValue@@PAPAVCFastHeap@@H@Z
fastprox.dll ?SetPropQualifier@CWbemInstance@@UAEJPBG0JPAVCVar@@@Z
fastprox.dll ?SetPropQualifier@CWbemInstance@@UAEJPBG0JPAVCTypedValue@@@Z
fastprox.dll ?GetPropQualifier@CWbemInstance@@UAEJPAVCPropertyInformation@@PBGPAVCVar@@PAJ3@Z
fastprox.dll ?GetPropQualifier@CWbemInstance@@UAEJPAVCPropertyInformation@@PBGPAJPAVCTypedValue@@PAPAVCFastHeap@@H@Z
fastprox.dll ?SetPropValue@CWbemInstance@@UAEJPBGPAVCVar@@J@Z
fastprox.dll ?GetPropertyType@CWbemInstance@@UAEJPBGPAJ1@Z
fastprox.dll ?GetPropertyType@CWbemInstance@@UAEJPAVCPropertyInformation@@PAJ1@Z
fastprox.dll ?GetClassPart@CWbemInstance@@UAGJPAXKPAK@Z
fastprox.dll ?GetMaxMarshalStreamSize@CWbemInstance@@UAEJPAK@Z
fastprox.dll ?WriteToStream@CWbemInstance@@UAEJPAUIStream@@@Z
fastprox.dll ?SetData@CWbemInstance@@UAEXPAEH@Z
fastprox.dll ??1CWbemInstance@@UAE@XZ
fastprox.dll ??0CWbemInstance@@QAE@XZ
fastprox.dll ?SetMethodOrigin@CWbemInstance@@UAGJPBGJ@Z
fastprox.dll ?SetPropertyOrigin@CWbemInstance@@UAGJPBGJ@Z
fastprox.dll ?SetInheritanceChain@CWbemInstance@@UAGJJPAPAG@Z
fastprox.dll ?GetMethodOrigin@CWbemInstance@@UAGJPBGPAPAG@Z
fastprox.dll ?GetMethodQualifierSet@CWbemInstance@@UAGJPBGPAPAUIWbemQualifierSet@@@Z
fastprox.dll ?EndMethodEnumeration@CWbemInstance@@UAGJXZ
fastprox.dll ?NextMethod@CWbemInstance@@UAGJJPAPAGPAPAUIWbemClassObject@@1@Z
fastprox.dll ?BeginMethodEnumeration@CWbemInstance@@UAGJJ@Z
fastprox.dll ?DeleteMethod@CWbemInstance@@UAGJPBG@Z
fastprox.dll ?PutMethod@CWbemInstance@@UAGJPBGJPAUIWbemClassObject@@1@Z
fastprox.dll ?GetMethod@CWbemInstance@@UAGJPBGJPAPAUIWbemClassObject@@1@Z
fastprox.dll ?ClearCachedKeyValue@CWbemInstance@@UAEXXZ
fastprox.dll ?GetInstanceObjectUnknown@CWbemInstance@@UAEPAUIUnknown@@XZ
fastprox.dll ?GetWbemObjectUnknown@CWbemInstance@@UAEPAUIUnknown@@XZ
fastprox.dll ?ReduceInstancePartSpace@CWbemInstance@@UAEXPAVCInstancePart@@K@Z
fastprox.dll ?ReduceClassPartSpace@CWbemInstance@@UAEXPAVCClassPart@@K@Z
fastprox.dll ?ExtendClassPartSpace@CWbemInstance@@UAEHPAVCClassPart@@K@Z
fastprox.dll ?GetKeyOrigin@CWbemInstance@@UAEJAAVWString@@@Z
fastprox.dll ?GetKeyProps@CWbemInstance@@UAEHAAVCWStringArray@@@Z
fastprox.dll ?GetIndexedProps@CWbemInstance@@UAEHAAVCWStringArray@@@Z
fastprox.dll ?GetGenus@CWbemInstance@@UAEJPAVCVar@@@Z
fastprox.dll ?GetPropertyCount@CWbemInstance@@UAEJPAVCVar@@@Z
fastprox.dll ?GetSuperclassName@CWbemInstance@@UAEJPAVCVar@@@Z
fastprox.dll ?GetClassNameW@CWbemInstance@@UAEJPAVCVar@@@Z
fastprox.dll ?EstimateUnmergeSpace@CWbemInstance@@UAEKXZ
fastprox.dll ?CompactAll@CWbemInstance@@UAEXXZ
fastprox.dll ?IsKeyed@CWbemInstance@@UAEHXZ
fastprox.dll ?GetPropName@CWbemInstance@@UAEJHPAVCVar@@@Z
fastprox.dll ?GetNumProperties@CWbemInstance@@UAEHXZ
fastprox.dll ?GetPropQualifier@CWbemInstance@@UAEJPBG0PAJPAVCTypedValue@@PAPAVCFastHeap@@H@Z
fastprox.dll ?GetPropQualifier@CWbemInstance@@UAEJPBG0PAVCVar@@PAJ2@Z
fastprox.dll ?SetQualifier@CWbemInstance@@UAEJPBGJPAVCTypedValue@@@Z
fastprox.dll ?SetQualifier@CWbemInstance@@UAEJPBGPAVCVar@@J@Z
fastprox.dll ?GetQualifier@CWbemInstance@@UAEJPBGPAJPAVCTypedValue@@PAPAVCFastHeap@@H@Z
fastprox.dll ?GetQualifier@CWbemInstance@@UAEJPBGPAVCVar@@PAJ2@Z
fastprox.dll ?GetProperty@CWbemInstance@@UAEJPBGPAVCVar@@@Z
fastprox.dll ?GetClassPart@CWbemInstance@@MAEPAVCClassPart@@XZ
fastprox.dll ?GetProperty@CWbemInstance@@MAEJPAVCPropertyInformation@@PAVCVar@@@Z
fastprox.dll ?GetBlockLength@CWbemInstance@@MAEKXZ
fastprox.dll ?ClearWriteOnlyProperties@CWbemClass@@UAGJXZ
fastprox.dll ?MergeClassPart@CWbemClass@@UAGJPAUIWbemClassObject@@@Z
fastprox.dll ?SetClassPart@CWbemClass@@UAGJPAXK@Z
fastprox.dll ?GetClassPart@CWbemClass@@UAGJPAXKPAK@Z
fastprox.dll ?StripClassPart@CWbemClass@@UAGJXZ
fastprox.dll ?GetObjectParts@CWbemClass@@UAGJPAXKKPAK@Z
fastprox.dll ?InitNew@CWbemInstance@@QAEJPAVCWbemClass@@HPAVCDecorationPart@@@Z
fastprox.dll ?CreateDerivedClass@CWbemClass@@QAEJPAV1@HPAVCDecorationPart@@@Z
fastprox.dll WbemStringCopy
fastprox.dll ?GetVARTYPE@CType@@SGGK@Z
fastprox.dll ?CompactClass@CWbemInstance@@QAEXXZ
fastprox.dll ?GetLimitedVersion@CWbemInstance@@QAEJPAVCLimitationMapping@@PAPAV1@@Z
fastprox.dll ?DeleteProperty@CWbemInstance@@QAEJH@Z
fastprox.dll WbemStringFree
fastprox.dll ?AsymmetricMerge@CWbemInstance@@SGJPAV1@0@Z
fastprox.dll ?BeginEnumerationEx@CWbemObject@@UAGJJJ@Z
fastprox.dll ?GetSystemPropertyByName@CWbemObject@@QAEJPBGPAVCVar@@@Z
fastprox.dll ?GetNonsystemPropertyValue@CWbemInstance@@QAEJPBGPAVCVar@@@Z
fastprox.dll ?PlugKeyHoles@CWbemInstance@@QAEJXZ
fastprox.dll ?IsInstanceOf@CWbemInstance@@QAEHPAVCWbemClass@@@Z
fastprox.dll ?ConvertToClass@CWbemInstance@@QAEJPAVCWbemClass@@PAPAV1@@Z
fastprox.dll ?InitEmpty@CWbemClass@@QAEJHH@Z
fastprox.dll ?GetDerivation@CWbemObject@@QAEJPAVCVar@@@Z
fastprox.dll ?ValidateRange@CWbemObject@@QAEHPAPAG@Z
fastprox.dll ?IsIllegalDerivedClass@CSystemProperties@@SGHPBG@Z
fastprox.dll ??0CLimitationMapping@@QAE@XZ
fastprox.dll ??1CLimitationMapping@@QAE@XZ
fastprox.dll ?MapLimitation@CWbemClass@@QAEHJPAVCWStringArray@@PAVCLimitationMapping@@@Z
fastprox.dll ?FindLimitationError@CWbemClass@@QAE?AVWString@@JPAVCWStringArray@@@Z
fastprox.dll ?GetLimitedVersion@CWbemClass@@QAEJPAVCLimitationMapping@@PAPAV1@@Z
fastprox.dll ?IsObjectInstance@CWbemObject@@UAGJXZ
fastprox.dll ??0CWbemClass@@QAE@XZ
fastprox.dll ?GetProperty@CWbemClass@@MAEJPAVCPropertyInformation@@PAVCVar@@@Z
fastprox.dll ?GetBlockLength@CWbemClass@@MAEKXZ
fastprox.dll ?GetClassPart@CWbemClass@@MAEPAVCClassPart@@XZ
fastprox.dll ?GetNumProperties@CWbemClass@@UAEHXZ
fastprox.dll ?GetPropName@CWbemClass@@UAEJHPAVCVar@@@Z
fastprox.dll ?IsKeyed@CWbemClass@@UAEHXZ
fastprox.dll ?GetClassNameW@CWbemClass@@UAEJPAVCVar@@@Z
fastprox.dll ?GetSuperclassName@CWbemClass@@UAEJPAVCVar@@@Z
fastprox.dll ?GetPropertyCount@CWbemClass@@UAEJPAVCVar@@@Z
fastprox.dll ?GetGenus@CWbemClass@@UAEJPAVCVar@@@Z
fastprox.dll ?GetIndexedProps@CWbemClass@@UAEHAAVCWStringArray@@@Z
fastprox.dll ?GetKeyProps@CWbemClass@@UAEHAAVCWStringArray@@@Z
fastprox.dll ?GetKeyOrigin@CWbemClass@@UAEJAAVWString@@@Z
fastprox.dll ?SetObjectParts@CWbemClass@@UAGJPAXKK@Z
esscli.dll ??0CContextMetaData@@QAE@PAVCMetaData@@PAUIWbemContext@@@Z
esscli.dll ??1CStandardMetaData@@UAE@XZ
esscli.dll ?SimplifyQueryForChild@CQueryAnalyser@@SGJPAUQL_LEVEL_1_RPN_EXPRESSION@@PBGPAUIWbemClassObject@@PAVCContextMetaData@@AAPAU2@@Z
esscli.dll ??0CStandardMetaData@@QAE@PAUIWbemServices@@@Z
esscli.dll ?GetNecessaryQueryForClass@CQueryAnalyser@@SGJPAUQL_LEVEL_1_RPN_EXPRESSION@@PAUIWbemClassObject@@AAVCWStringArray@@AAPAU2@@Z
esscli.dll ??1CContextMetaData@@QAE@XZ
