msvcrt.dll __dllonexit
msvcrt.dll _onexit
msvcrt.dll _CxxThrowException
msvcrt.dll _ftol2
msvcrt.dll _unlock
msvcrt.dll _lock
msvcrt.dll _except_handler4_common
msvcrt.dll _initterm
msvcrt.dll memcmp
msvcrt.dll malloc
msvcrt.dll free
msvcrt.dll _amsg_exit
msvcrt.dll _purecall
msvcrt.dll ??1exception@@UAE@XZ
msvcrt.dll ??0exception@@QAE@ABV0@@Z
msvcrt.dll ??0exception@@QAE@XZ
msvcrt.dll _callnewh
msvcrt.dll ?terminate@@YAXXZ
msvcrt.dll ??1type_info@@UAE@XZ
msvcrt.dll _XcptFilter
msvcrt.dll __CxxFrameHandler3
msvcrt.dll memset
api-ms-win-core-libraryloader-l1-2-0.dll FreeLibraryAndExitThread
api-ms-win-core-libraryloader-l1-2-0.dll FreeLibrary
api-ms-win-core-libraryloader-l1-2-0.dll GetModuleHandleExW
api-ms-win-core-libraryloader-l1-2-0.dll GetProcAddress
api-ms-win-core-libraryloader-l1-2-0.dll GetModuleHandleW
api-ms-win-core-libraryloader-l1-2-0.dll DisableThreadLibraryCalls
api-ms-win-core-libraryloader-l1-2-0.dll GetModuleHandleExA
api-ms-win-core-libraryloader-l1-2-0.dll GetModuleFileNameA
api-ms-win-core-libraryloader-l1-2-0.dll LoadLibraryExW
api-ms-win-eventing-provider-l1-1-0.dll EventUnregister
api-ms-win-eventing-provider-l1-1-0.dll EventSetInformation
api-ms-win-eventing-provider-l1-1-0.dll EventRegister
api-ms-win-eventing-provider-l1-1-0.dll EventWriteTransfer
api-ms-win-core-synch-l1-2-0.dll Sleep
api-ms-win-core-profile-l1-1-0.dll QueryPerformanceCounter
api-ms-win-core-processthreads-l1-1-0.dll GetCurrentProcess
api-ms-win-core-processthreads-l1-1-0.dll TerminateProcess
api-ms-win-core-processthreads-l1-1-0.dll GetProcessId
api-ms-win-core-processthreads-l1-1-0.dll GetExitCodeThread
api-ms-win-core-processthreads-l1-1-0.dll GetCurrentProcessId
api-ms-win-core-processthreads-l1-1-0.dll CreateProcessW
api-ms-win-core-processthreads-l1-1-0.dll OpenThread
api-ms-win-core-processthreads-l1-1-0.dll GetProcessTimes
api-ms-win-core-processthreads-l1-1-0.dll GetCurrentThreadId
api-ms-win-core-processthreads-l1-1-0.dll CreateThread
api-ms-win-core-processthreads-l1-1-0.dll OpenProcessToken
api-ms-win-core-sysinfo-l1-1-0.dll GetTickCount64
api-ms-win-core-sysinfo-l1-1-0.dll GetTickCount
api-ms-win-core-sysinfo-l1-1-0.dll GetSystemTimeAsFileTime
api-ms-win-core-sysinfo-l1-1-0.dll GetSystemDirectoryW
api-ms-win-core-errorhandling-l1-1-0.dll SetUnhandledExceptionFilter
api-ms-win-core-errorhandling-l1-1-0.dll UnhandledExceptionFilter
api-ms-win-core-errorhandling-l1-1-0.dll GetLastError
api-ms-win-core-errorhandling-l1-1-0.dll SetLastError
ntdll.dll ZwQueryWnfStateNameInformation
ntdll.dll ZwUpdateWnfStateData
ntdll.dll EtwEventWriteNoRegistration
ntdll.dll NtWaitForSingleObject
ntdll.dll RtlAllocateAndInitializeSid
ntdll.dll NtAlpcConnectPort
ntdll.dll NtAlpcSendWaitReceivePort
ntdll.dll RtlFreeSid
ntdll.dll NtQueryLicenseValue
ntdll.dll NtQuerySystemInformation
ntdll.dll NtClose
ntdll.dll RtlNtStatusToDosError
ntdll.dll NtOpenEvent
ntdll.dll _vscwprintf
ntdll.dll NtQueryInformationToken
ntdll.dll RtlInitUnicodeString
ntdll.dll _wcsnicmp
ntdll.dll memmove_s
ntdll.dll _vsnprintf_s
ntdll.dll memcpy_s
ntdll.dll _vsnwprintf
ntdll.dll _wtoi
ntdll.dll _wcsicmp
ntdll.dll NtSuspendProcess
ntdll.dll NtResumeProcess
ntdll.dll EtwTraceMessage
ntdll.dll EtwGetTraceLoggerHandle
ntdll.dll EtwGetTraceEnableLevel
ntdll.dll EtwGetTraceEnableFlags
ntdll.dll EtwRegisterTraceGuidsW
ntdll.dll EtwUnregisterTraceGuids
wer.dll WerpGetReportSettings
wer.dll WerReportCloseHandle
wer.dll WerReportCreate
wer.dll WerReportSetUIOption
wer.dll WerpGetReportInformation
wer.dll WerpIsTransportAvailable
wer.dll WerpSetReportFlags
wer.dll WerpGetFileByIndex
wer.dll WerpGetNumFiles
wer.dll WerpGetReportFlags
wer.dll WerpGetUIParamByIndex
wer.dll WerpIsDisabled
wer.dll WerpGetNumSigParams
wer.dll WerpGetEventType
wer.dll WerpGetSigParamByIndex
wer.dll WerpGetDynamicParameter
wer.dll WerpGetReportType
dbghelp.dll SymFunctionTableAccess64
dbghelp.dll StackWalk64
dbghelp.dll SymCleanup
dbghelp.dll MiniDumpWriteDump
dbghelp.dll SymGetModuleBase64
dbghelp.dll SymInitialize
dbghelp.dll SymGetModuleInfoW64
shell32.dll ShellExecuteExW
shell32.dll SHCreateDirectoryExW
shell32.dll Shell_NotifyIconW
shell32.dll ExtractIconExW
dui70.dll ?DirectionProp@Element@DirectUI@@SGPBUPropertyInfo@2@XZ
dui70.dll ?OnPropertyChanged@CCBase@DirectUI@@UAEXPBUPropertyInfo@2@HPAVValue@2@1@Z
dui70.dll ?OnPropertyChanged@Element@DirectUI@@UAEXPAUPropertyInfo@2@HPAVValue@2@1@Z
dui70.dll ?OnGroupChanged@Element@DirectUI@@UAEXH_N@Z
dui70.dll ?OnInput@Element@DirectUI@@UAEXPAUInputEvent@2@@Z
dui70.dll ?OnInput@CCBase@DirectUI@@UAEXPAUInputEvent@2@@Z
dui70.dll ?OnKeyFocusMoved@Element@DirectUI@@UAEXPAV12@0@Z
dui70.dll ?OnMouseFocusMoved@Element@DirectUI@@UAEXPAV12@0@Z
dui70.dll ?OnDestroy@HWNDHost@DirectUI@@UAEXXZ
dui70.dll ?OnEvent@HWNDHost@DirectUI@@UAEXPAUEvent@2@@Z
dui70.dll ?Paint@HWNDHost@DirectUI@@UAEXPAUHDC__@@PBUtagRECT@@1PAU4@2@Z
dui70.dll ?Add@Element@DirectUI@@UAEJPAPAV12@I@Z
dui70.dll ?Insert@Element@DirectUI@@UAEJPAPAV12@II@Z
dui70.dll ?Remove@Element@DirectUI@@UAEJPAPAV12@I@Z
dui70.dll ?GetAdjacent@Element@DirectUI@@UAEPAV12@PAV12@HPBUNavReference@2@K@Z
dui70.dll ?EnsureVisible@Element@DirectUI@@UAE_NHHHH@Z
dui70.dll ?SetKeyFocus@HWNDHost@DirectUI@@UAEXXZ
dui70.dll ?AddBehavior@Element@DirectUI@@UAEJPAUIDuiBehavior@@@Z
dui70.dll ?RemoveBehavior@Element@DirectUI@@UAEJPAUIDuiBehavior@@@Z
dui70.dll ?MessageCallback@HWNDHost@DirectUI@@UAEIPAUtagGMSG@@@Z
dui70.dll ?QueryInterface@Element@DirectUI@@UAGJABU_GUID@@PAPAX@Z
dui70.dll ?GetImmersiveFocusRectOffsets@Element@DirectUI@@UAEXPAUtagRECT@@@Z
dui70.dll ?_SelfLayoutDoLayout@Element@DirectUI@@MAEXHH@Z
dui70.dll ?_SelfLayoutUpdateDesiredSize@Element@DirectUI@@MAE?AUtagSIZE@@HHPAVSurface@2@@Z
dui70.dll ?OnHosted@HWNDHost@DirectUI@@MAEXPAVElement@2@@Z
dui70.dll ?OnUnHosted@HWNDHost@DirectUI@@MAEXPAVElement@2@@Z
dui70.dll ?UpdateTooltip@Element@DirectUI@@MAEXPAV12@@Z
dui70.dll ?OnPropertyChanging@Element@DirectUI@@UAE_NPBUPropertyInfo@2@HPAVValue@2@1@Z
dui70.dll ?RemoveTooltip@Element@DirectUI@@MAEXPAV12@@Z
dui70.dll ?GetKeyFocused@HWNDHost@DirectUI@@UAE_NXZ
dui70.dll ?GetAccessibleImpl@HWNDHost@DirectUI@@UAEJPAPAUIAccessible@@@Z
dui70.dll ?DefaultAction@CCBase@DirectUI@@UAEJXZ
dui70.dll ?GetUIAElementProvider@Element@DirectUI@@UAEJABU_GUID@@PAPAX@Z
dui70.dll ?GetElementProviderImpl@Element@DirectUI@@UAEJPAVInvokeHelper@2@PAPAVElementProvider@2@@Z
dui70.dll ?HandleUiaDestroyListener@Element@DirectUI@@UAEXXZ
dui70.dll ?HandleUiaPropertyListener@Element@DirectUI@@UAEXPBUPropertyInfo@2@HPAVValue@2@1@Z
dui70.dll ?HandleUiaPropertyChangingListener@Element@DirectUI@@UAEXPBUPropertyInfo@2@@Z
dui70.dll ?HandleUiaEventListener@Element@DirectUI@@UAEXPAUEvent@2@@Z
dui70.dll ?GetUiaFocusDelegate@Element@DirectUI@@UAEPAV12@XZ
dui70.dll ?GetHWND@HWNDHost@DirectUI@@UAEPAUHWND__@@XZ
dui70.dll ?OnNotify@CCBase@DirectUI@@UAE_NIIJPAJ@Z
dui70.dll UnInitProcessPriv
dui70.dll UnInitThread
dui70.dll ?OnMessage@HWNDHost@DirectUI@@UAE_NIIJPAJ@Z
dui70.dll CreateDUIWrapper
dui70.dll ?OnPropertyChanging@Element@DirectUI@@UAE_NPAUPropertyInfo@2@HPAVValue@2@1@Z
dui70.dll ?OnSysChar@HWNDHost@DirectUI@@UAE_NG@Z
dui70.dll ?EndDefer@Element@DirectUI@@QAEXK@Z
dui70.dll ?SetHeight@Element@DirectUI@@QAEJH@Z
dui70.dll ?SetWidth@Element@DirectUI@@QAEJH@Z
dui70.dll ?SetFontSize@Element@DirectUI@@QAEJH@Z
dui70.dll ?Register@CCBase@DirectUI@@SGJXZ
dui70.dll ??0CritSecLock@DirectUI@@QAE@PAU_RTL_CRITICAL_SECTION@@@Z
dui70.dll ?GetContentStringAsDisplayed@Element@DirectUI@@UAEPBGPAPAVValue@2@@Z
dui70.dll ?IsContentProtected@Element@DirectUI@@UAE_NXZ
dui70.dll ?IsRTLReading@Element@DirectUI@@UAE_NXZ
dui70.dll ?GetFactoryLock@Element@DirectUI@@SGPAU_RTL_CRITICAL_SECTION@@XZ
dui70.dll ??1CritSecLock@DirectUI@@QAE@XZ
dui70.dll ??1CCBase@DirectUI@@UAE@XZ
dui70.dll ??0CCBase@DirectUI@@QAE@KPBG@Z
dui70.dll ?Release@ClassInfoBase@DirectUI@@UAEHXZ
dui70.dll ?AddRef@ClassInfoBase@DirectUI@@UAEXXZ
dui70.dll ?ActivateTooltip@Element@DirectUI@@MAEXPAV12@K@Z
dui70.dll ??0ClassInfoBase@DirectUI@@QAE@XZ
dui70.dll ?OnSinkThemeChanged@HWNDHost@DirectUI@@UAE_NIIJPAJ@Z
dui70.dll ?OnCtrlThemeChanged@HWNDHost@DirectUI@@UAE_NIIJPAJ@Z
dui70.dll ?OnWindowStyleChanged@HWNDHost@DirectUI@@UAEXIPBUtagSTYLESTRUCT@@@Z
dui70.dll ?OnAdjustWindowSize@HWNDHost@DirectUI@@UAEHHHI@Z
dui70.dll ?SetWindowDirection@HWNDHost@DirectUI@@UAEXPAUHWND__@@@Z
dui70.dll InitProcessPriv
dui70.dll InitThread
dui70.dll ??1ClassInfoBase@DirectUI@@UAE@XZ
dui70.dll ?Register@ClassInfoBase@DirectUI@@QAEJXZ
dui70.dll ?Initialize@ClassInfoBase@DirectUI@@QAEJPAUHINSTANCE__@@PBG_NPBQBUPropertyInfo@2@I@Z
dui70.dll ?AssertPIZeroRef@ClassInfoBase@DirectUI@@UBEXXZ
dui70.dll ?GetChildren@ClassInfoBase@DirectUI@@UBEHXZ
dui70.dll ?RemoveChild@ClassInfoBase@DirectUI@@UAEXXZ
dui70.dll ?AddChild@ClassInfoBase@DirectUI@@UAEXXZ
dui70.dll ?IsGlobal@ClassInfoBase@DirectUI@@UBE_NXZ
dui70.dll ?GetModule@ClassInfoBase@DirectUI@@UBEPAUHINSTANCE__@@XZ
dui70.dll ?IsSubclassOf@ClassInfoBase@DirectUI@@UBE_NPAUIClassInfo@2@@Z
dui70.dll ?IsValidProperty@ClassInfoBase@DirectUI@@UBE_NPBUPropertyInfo@2@@Z
dui70.dll ?GetName@ClassInfoBase@DirectUI@@UBEPBGXZ
dui70.dll ?GetClassInfoPtr@CCBase@DirectUI@@SGPAUIClassInfo@2@XZ
dui70.dll ?GetGlobalIndex@ClassInfoBase@DirectUI@@UBEIXZ
dui70.dll ?GetPICount@ClassInfoBase@DirectUI@@UBEIXZ
dui70.dll ?GetByClassIndex@ClassInfoBase@DirectUI@@UAEPBUPropertyInfo@2@I@Z
dui70.dll ?EnumPropertyInfo@ClassInfoBase@DirectUI@@UAEPBUPropertyInfo@2@I@Z
dui70.dll ?Destroy@Element@DirectUI@@QAEJ_N@Z
dui70.dll ?Initialize@CCBase@DirectUI@@QAEJIPAVElement@2@PAK@Z
dui70.dll ?PostCreate@CCBase@DirectUI@@MAEXPAUHWND__@@@Z
dui70.dll ?OnReceivedDialogFocus@CCBase@DirectUI@@UAE_NPAUIDialogElement@2@@Z
dui70.dll ?OnLostDialogFocus@CCBase@DirectUI@@UAE_NPAUIDialogElement@2@@Z
dui70.dll ?OnCustomDraw@CCBase@DirectUI@@UAE_NPAUtagNMCUSTOMDRAWINFO@@PAJ@Z
dui70.dll ?EraseBkgnd@HWNDHost@DirectUI@@MAE_NPAUHDC__@@PAJ@Z
dui70.dll ?CreateHWND@CCBase@DirectUI@@UAEPAUHWND__@@PAU3@@Z
dui70.dll ?CreateAccNameLabel@HWNDHost@DirectUI@@IAEPAUHWND__@@PAU3@@Z
dui70.dll ?ClassExist@ClassInfoBase@DirectUI@@SG_NPAPAUIClassInfo@2@PBQBUPropertyInfo@2@IPAU32@PAUHINSTANCE__@@PBG_N@Z
user32.dll GetWindowRect
user32.dll GetWindowThreadProcessId
user32.dll GetWindowInfo
user32.dll IsWindowVisible
user32.dll EnumWindows
user32.dll ChangeDisplaySettingsW
user32.dll FindWindowW
user32.dll FindWindowExW
user32.dll DrawAnimatedRects
user32.dll SetForegroundWindow
user32.dll GetWindow
user32.dll GetWindowLongW
user32.dll SetWindowPos
user32.dll SendMessageW
user32.dll SetParent
user32.dll MonitorFromRect
user32.dll GetMonitorInfoW
user32.dll ShowWindow
user32.dll ChangeWindowMessageFilter
user32.dll GetCursorPos
user32.dll LoadMenuW
user32.dll GetSubMenu
user32.dll SetMenuDefaultItem
user32.dll TrackPopupMenuEx
user32.dll DestroyMenu
user32.dll LoadIconW
user32.dll EndDialog
user32.dll FlashWindowEx
user32.dll SetWindowLongW
user32.dll PostMessageW
user32.dll DestroyIcon
user32.dll EnableMenuItem
user32.dll GetWindowTextLengthW
user32.dll GetSysColor
user32.dll LoadStringW
user32.dll DefWindowProcW
user32.dll RegisterClassExW
user32.dll CreateWindowExW
user32.dll IsWindow
user32.dll GetMessageW
user32.dll TranslateMessage
user32.dll DispatchMessageW
user32.dll GetWindowBand
user32.dll CheckWindowThreadDesktop
user32.dll IsHungAppWindow
user32.dll GetClassNameW
user32.dll RegisterWindowMessageW
api-ms-win-core-sidebyside-l1-1-0.dll CreateActCtxW
api-ms-win-core-sidebyside-l1-1-0.dll DeactivateActCtx
api-ms-win-core-sidebyside-l1-1-0.dll ReleaseActCtx
api-ms-win-core-sidebyside-l1-1-0.dll ActivateActCtx
api-ms-win-core-string-l1-1-0.dll CompareStringW
api-ms-win-core-libraryloader-l1-2-1.dll LoadLibraryW
api-ms-win-core-console-l1-2-0.dll AttachConsole
api-ms-win-core-console-l1-2-0.dll FreeConsole
api-ms-win-core-console-l3-2-0.dll GetConsoleWindow
api-ms-win-core-handle-l1-1-0.dll DuplicateHandle
api-ms-win-core-handle-l1-1-0.dll CloseHandle
api-ms-win-core-synch-l1-1-0.dll ReleaseSRWLockShared
api-ms-win-core-synch-l1-1-0.dll LeaveCriticalSection
api-ms-win-core-synch-l1-1-0.dll ReleaseSRWLockExclusive
api-ms-win-core-synch-l1-1-0.dll CreateSemaphoreExW
api-ms-win-core-synch-l1-1-0.dll CreateMutexExW
api-ms-win-core-synch-l1-1-0.dll InitializeCriticalSectionAndSpinCount
api-ms-win-core-synch-l1-1-0.dll AcquireSRWLockExclusive
api-ms-win-core-synch-l1-1-0.dll ReleaseSemaphore
api-ms-win-core-synch-l1-1-0.dll ReleaseMutex
api-ms-win-core-synch-l1-1-0.dll WaitForSingleObjectEx
api-ms-win-core-synch-l1-1-0.dll EnterCriticalSection
api-ms-win-core-synch-l1-1-0.dll CreateEventW
api-ms-win-core-synch-l1-1-0.dll InitializeCriticalSectionEx
api-ms-win-core-synch-l1-1-0.dll DeleteCriticalSection
api-ms-win-core-synch-l1-1-0.dll WaitForSingleObject
api-ms-win-core-synch-l1-1-0.dll WaitForMultipleObjectsEx
api-ms-win-core-synch-l1-1-0.dll ResetEvent
api-ms-win-core-synch-l1-1-0.dll OpenSemaphoreW
api-ms-win-core-synch-l1-1-0.dll AcquireSRWLockShared
api-ms-win-core-synch-l1-1-0.dll SetEvent
api-ms-win-core-heap-l1-1-0.dll HeapFree
api-ms-win-core-heap-l1-1-0.dll GetProcessHeap
api-ms-win-core-heap-l1-1-0.dll HeapAlloc
api-ms-win-core-localization-l1-2-0.dll GetThreadUILanguage
api-ms-win-core-localization-l1-2-0.dll FormatMessageW
api-ms-win-core-debug-l1-1-0.dll IsDebuggerPresent
api-ms-win-core-debug-l1-1-0.dll DebugBreak
api-ms-win-core-debug-l1-1-0.dll OutputDebugStringW
api-ms-win-core-threadpool-l1-2-0.dll SetThreadpoolTimer
api-ms-win-core-threadpool-l1-2-0.dll CreateThreadpoolTimer
api-ms-win-core-threadpool-l1-2-0.dll CloseThreadpoolTimer
api-ms-win-core-threadpool-l1-2-0.dll WaitForThreadpoolTimerCallbacks
api-ms-win-core-file-l1-1-0.dll GetFinalPathNameByHandleW
api-ms-win-core-file-l1-1-0.dll FindFirstFileExW
api-ms-win-core-file-l1-1-0.dll FindClose
api-ms-win-core-file-l1-1-0.dll FindNextFileW
api-ms-win-core-file-l1-1-0.dll SetFileInformationByHandle
api-ms-win-core-file-l1-1-0.dll CompareFileTime
api-ms-win-core-file-l1-1-0.dll FindFirstFileW
api-ms-win-core-file-l1-1-0.dll CreateFileW
api-ms-win-core-file-l1-1-0.dll GetFileAttributesW
api-ms-win-security-base-l1-1-0.dll GetLengthSid
api-ms-win-security-base-l1-1-0.dll CopySid
api-ms-win-security-base-l1-1-0.dll GetTokenInformation
api-ms-win-security-base-l1-1-0.dll GetSidSubAuthority
api-ms-win-security-base-l1-1-0.dll GetSidSubAuthorityCount
api-ms-win-security-base-l1-1-0.dll IsValidSid
api-ms-win-core-processthreads-l1-1-1.dll OpenProcess
api-ms-win-core-processthreads-l1-1-1.dll GetThreadContext
api-ms-win-core-registry-l1-1-0.dll RegQueryInfoKeyW
api-ms-win-core-registry-l1-1-0.dll RegGetValueW
api-ms-win-core-registry-l1-1-0.dll RegQueryValueExW
api-ms-win-core-registry-l1-1-0.dll RegOpenKeyExW
api-ms-win-core-registry-l1-1-0.dll RegEnumKeyExW
api-ms-win-core-registry-l1-1-0.dll RegSetValueExW
api-ms-win-core-registry-l1-1-0.dll RegCloseKey
api-ms-win-core-registry-l1-1-0.dll RegCreateKeyExW
api-ms-win-core-processenvironment-l1-1-0.dll ExpandEnvironmentStringsW
api-ms-win-core-psapi-l1-1-0.dll QueryFullProcessImageNameW
api-ms-win-core-apiquery-l1-1-0.dll ApiSetQueryApiSetPresence
api-ms-win-core-delayload-l1-1-1.dll ResolveDelayLoadedAPI
api-ms-win-core-delayload-l1-1-0.dll DelayLoadFailureHook
api-ms-win-core-io-l1-1-0.dll DeviceIoControl
api-ms-win-core-memory-l1-1-0.dll UnmapViewOfFile
api-ms-win-core-memory-l1-1-0.dll CreateFileMappingW
api-ms-win-core-memory-l1-1-0.dll MapViewOfFile
api-ms-win-core-synch-l1-2-1.dll WaitForMultipleObjects
api-ms-win-eventlog-legacy-l1-1-0.dll DeregisterEventSource
api-ms-win-eventlog-legacy-l1-1-0.dll RegisterEventSourceW
api-ms-win-eventlog-legacy-l1-1-0.dll ReportEventW
