msvcrt.dll memcmp
msvcrt.dll wcstol
msvcrt.dll iswalpha
msvcrt.dll wcscspn
msvcrt.dll _wcsupr
msvcrt.dll rand
msvcrt.dll time
msvcrt.dll srand
msvcrt.dll getchar
msvcrt.dll wprintf
msvcrt.dll memset
msvcrt.dll ??0bad_cast@@QEAA@PEBD@Z
msvcrt.dll ??1bad_cast@@UEAA@XZ
msvcrt.dll ??0bad_cast@@QEAA@AEBV0@@Z
msvcrt.dll fclose
msvcrt.dll fwrite
msvcrt.dll __mb_cur_max
msvcrt.dll fputwc
msvcrt.dll ungetwc
msvcrt.dll ungetc
msvcrt.dll fgetc
msvcrt.dll fgetwc
msvcrt.dll fgetpos
msvcrt.dll _fseeki64
msvcrt.dll fsetpos
msvcrt.dll setvbuf
msvcrt.dll fflush
msvcrt.dll iswctype
msvcrt.dll _vscwprintf
msvcrt.dll _wtoi64
msvcrt.dll memcpy_s
msvcrt.dll wcsnlen
msvcrt.dll strncmp
msvcrt.dll wcscpy_s
msvcrt.dll wcsspn
msvcrt.dll qsort
msvcrt.dll realloc
msvcrt.dll abort
msvcrt.dll _wsetlocale
msvcrt.dll __crtLCMapStringW
msvcrt.dll _wcsdup
msvcrt.dll __uncaught_exception
msvcrt.dll __pctype_func
msvcrt.dll setlocale
msvcrt.dll _wfsopen
msvcrt.dll fseek
msvcrt.dll _ismbblead
msvcrt.dll ___lc_codepage_func
msvcrt.dll ___lc_handle_func
msvcrt.dll ___mb_cur_max_func
msvcrt.dll ?name@type_info@@QEBAPEBDXZ
msvcrt.dll _errno
msvcrt.dll __RTDynamicCast
msvcrt.dll ??1type_info@@UEAA@XZ
msvcrt.dll ?terminate@@YAXXZ
msvcrt.dll _onexit
msvcrt.dll __dllonexit
msvcrt.dll _unlock
msvcrt.dll _lock
msvcrt.dll _initterm
msvcrt.dll _amsg_exit
msvcrt.dll _XcptFilter
msvcrt.dll memmove
msvcrt.dll memcpy
msvcrt.dll _CxxThrowException
msvcrt.dll ?what@exception@@UEBAPEBDXZ
msvcrt.dll ??1exception@@UEAA@XZ
msvcrt.dll ??0exception@@QEAA@AEBV0@@Z
msvcrt.dll ??0exception@@QEAA@AEBQEBDH@Z
msvcrt.dll ??0exception@@QEAA@AEBQEBD@Z
msvcrt.dll towupper
msvcrt.dll swprintf_s
msvcrt.dll _callnewh
msvcrt.dll malloc
msvcrt.dll wcsncpy_s
msvcrt.dll _stricmp
msvcrt.dll calloc
msvcrt.dll memmove_s
msvcrt.dll free
msvcrt.dll _wtoi
msvcrt.dll _wcsicmp
msvcrt.dll wcsncmp
msvcrt.dll _wcsnicmp
msvcrt.dll _vsnwprintf
msvcrt.dll wcsrchr
msvcrt.dll wcschr
msvcrt.dll swscanf
msvcrt.dll _vsnprintf
msvcrt.dll _wcstoui64
msvcrt.dll wcstoul
msvcrt.dll _wtol
msvcrt.dll wcsstr
msvcrt.dll __C_specific_handler
msvcrt.dll _purecall
msvcrt.dll __CxxFrameHandler3
msvcrt.dll wcscmp
kernel32.dll GetCurrentDirectoryW
kernel32.dll SetCurrentDirectoryW
kernel32.dll GetSystemWindowsDirectoryW
kernel32.dll GetPrivateProfileIntW
kernel32.dll GetUserDefaultLangID
kernel32.dll GetSystemDefaultLangID
kernel32.dll LCIDToLocaleName
kernel32.dll CreateFileW
kernel32.dll GetLogicalDriveStringsW
kernel32.dll GetNativeSystemInfo
kernel32.dll GetDriveTypeW
kernel32.dll SetEnvironmentVariableW
kernel32.dll GetLogicalDrives
kernel32.dll GetEnvironmentVariableW
kernel32.dll FileTimeToSystemTime
kernel32.dll GetDateFormatW
kernel32.dll LoadLibraryExW
kernel32.dll SystemTimeToFileTime
kernel32.dll GetDiskFreeSpaceExW
kernel32.dll Sleep
kernel32.dll GetSystemDirectoryW
kernel32.dll WritePrivateProfileStringW
kernel32.dll RtlCompareMemory
kernel32.dll FindFirstFileW
kernel32.dll FindNextFileW
kernel32.dll FindClose
kernel32.dll FlushFileBuffers
kernel32.dll GetSystemTimeAsFileTime
kernel32.dll lstrlenA
kernel32.dll MultiByteToWideChar
kernel32.dll WideCharToMultiByte
kernel32.dll RtlCaptureContext
kernel32.dll RtlLookupFunctionEntry
kernel32.dll RtlVirtualUnwind
kernel32.dll UnhandledExceptionFilter
kernel32.dll SetUnhandledExceptionFilter
kernel32.dll GetCurrentProcess
kernel32.dll TerminateProcess
kernel32.dll ReleaseSRWLockExclusive
kernel32.dll AcquireSRWLockExclusive
kernel32.dll WakeAllConditionVariable
kernel32.dll GetTempPathW
kernel32.dll QueryPerformanceCounter
kernel32.dll GetCurrentProcessId
kernel32.dll GetCurrentThreadId
kernel32.dll GetExitCodeThread
kernel32.dll GlobalMemoryStatusEx
kernel32.dll LeaveCriticalSection
kernel32.dll EnterCriticalSection
kernel32.dll DeleteCriticalSection
kernel32.dll InitializeCriticalSection
kernel32.dll GetVolumePathNameW
kernel32.dll GetFullPathNameW
kernel32.dll SetFileAttributesW
kernel32.dll MoveFileExW
kernel32.dll CreateDirectoryW
kernel32.dll OpenEventW
kernel32.dll GetSystemPowerStatus
kernel32.dll GetSystemInfo
kernel32.dll GlobalFree
kernel32.dll GetTickCount
kernel32.dll LoadLibraryW
kernel32.dll CopyFileW
kernel32.dll GetWindowsDirectoryW
kernel32.dll SetLastError
kernel32.dll LocalFree
kernel32.dll HeapAlloc
kernel32.dll MoveFileW
kernel32.dll GetFileAttributesW
kernel32.dll CloseHandle
kernel32.dll WaitForSingleObject
kernel32.dll SetVolumeLabelW
kernel32.dll MapViewOfFileEx
kernel32.dll DefineDosDeviceW
kernel32.dll WaitForSingleObjectEx
kernel32.dll ReleaseMutex
kernel32.dll GetPrivateProfileStringW
kernel32.dll FindNextVolumeW
kernel32.dll SetEvent
kernel32.dll GetProcessHeap
kernel32.dll HeapFree
kernel32.dll CompareStringW
kernel32.dll GetCommandLineW
kernel32.dll GetModuleFileNameW
kernel32.dll CreateMutexW
kernel32.dll SetThreadExecutionState
kernel32.dll GetLastError
kernel32.dll GetLocalTime
kernel32.dll CreateThread
kernel32.dll CreateEventW
kernel32.dll GetModuleHandleExW
kernel32.dll FreeLibrary
kernel32.dll GetModuleHandleW
kernel32.dll GetProcAddress
kernel32.dll GetVersionExW
kernel32.dll RaiseException
kernel32.dll DebugBreak
kernel32.dll MulDiv
kernel32.dll SizeofResource
kernel32.dll LockResource
kernel32.dll FindResourceW
kernel32.dll VirtualProtect
kernel32.dll LoadLibraryExA
kernel32.dll VirtualQuery
kernel32.dll FindVolumeClose
kernel32.dll FindFirstVolumeW
kernel32.dll SetComputerNameExW
kernel32.dll GetStringTypeW
kernel32.dll InitializeCriticalSectionEx
kernel32.dll SearchPathW
kernel32.dll GetStartupInfoW
kernel32.dll SleepEx
kernel32.dll FormatMessageW
kernel32.dll SetFileInformationByHandle
kernel32.dll GetFileInformationByHandle
kernel32.dll GetFileInformationByHandleEx
kernel32.dll SetThreadPreferredUILanguages
kernel32.dll GetFinalPathNameByHandleW
kernel32.dll IsWow64Process
kernel32.dll GetCurrentThread
kernel32.dll QueryDosDeviceW
kernel32.dll HeapReAlloc
kernel32.dll SetFilePointerEx
kernel32.dll DeviceIoControl
kernel32.dll GetDiskFreeSpaceW
kernel32.dll GetVolumeInformationW
kernel32.dll GetFileSize
kernel32.dll LCMapStringW
kernel32.dll GetVersionExA
kernel32.dll GetFileSizeEx
kernel32.dll CopyFileExW
kernel32.dll LocalAlloc
kernel32.dll WriteFile
kernel32.dll GetTempFileNameW
kernel32.dll SetFilePointer
kernel32.dll ReadFile
kernel32.dll GetPrivateProfileSectionW
kernel32.dll GetVersion
kernel32.dll VerifyVersionInfoW
kernel32.dll IsValidLocale
kernel32.dll IsValidCodePage
kernel32.dll GetExitCodeProcess
kernel32.dll CreateProcessW
kernel32.dll DeleteFileW
kernel32.dll RemoveDirectoryW
kernel32.dll ExpandEnvironmentStringsW
kernel32.dll GetLongPathNameW
kernel32.dll MapViewOfFile
kernel32.dll CreateFileMappingW
kernel32.dll LocaleNameToLCID
kernel32.dll LoadResource
kernel32.dll FindResourceExW
kernel32.dll UnmapViewOfFile
kernel32.dll GetLocaleInfoW
kernel32.dll GetUserDefaultUILanguage
kernel32.dll GetLocaleInfoEx
kernel32.dll GetSystemDefaultUILanguage
kernel32.dll EncodePointer
kernel32.dll DecodePointer
kernel32.dll OutputDebugStringA
kernel32.dll SleepConditionVariableSRW
kernel32.dll VirtualFree
kernel32.dll VirtualAlloc
advapi32.dll OpenThreadToken
advapi32.dll GetTraceEnableLevel
advapi32.dll GetTraceEnableFlags
advapi32.dll GetTraceLoggerHandle
advapi32.dll TraceEvent
advapi32.dll UnregisterTraceGuids
advapi32.dll EventWriteTransfer
advapi32.dll EventRegister
advapi32.dll EventUnregister
advapi32.dll RegDeleteKeyW
advapi32.dll RegQueryInfoKeyW
advapi32.dll LookupPrivilegeValueW
advapi32.dll AdjustTokenPrivileges
advapi32.dll OpenProcessToken
advapi32.dll NotifyServiceStatusChangeW
advapi32.dll ControlService
advapi32.dll EnumDependentServicesW
advapi32.dll StartServiceW
advapi32.dll RegDeleteKeyExW
advapi32.dll RegDeleteTreeW
advapi32.dll RegDeleteValueW
advapi32.dll RegEnumValueW
advapi32.dll RegOpenKeyExW
advapi32.dll RegQueryValueExW
advapi32.dll DuplicateTokenEx
advapi32.dll SetThreadToken
advapi32.dll RegGetValueW
advapi32.dll ConvertStringSecurityDescriptorToSecurityDescriptorW
advapi32.dll MakeAbsoluteSD
advapi32.dll InitiateSystemShutdownExW
advapi32.dll OpenSCManagerW
advapi32.dll OpenServiceW
advapi32.dll QueryServiceStatus
advapi32.dll CloseServiceHandle
advapi32.dll GetSecurityDescriptorDacl
advapi32.dll SetNamedSecurityInfoW
advapi32.dll RegCreateKeyExW
advapi32.dll RegisterTraceGuidsW
advapi32.dll RegSetValueExW
advapi32.dll RegCloseKey
advapi32.dll RegRestoreKeyW
advapi32.dll RegLoadKeyW
advapi32.dll RegUnLoadKeyW
advapi32.dll RegFlushKey
dnsapi.dll DnsValidateName_W
ole32.dll CoUninitialize
ole32.dll CoSetProxyBlanket
ole32.dll CoCreateInstance
ole32.dll CLSIDFromString
ole32.dll StringFromCLSID
ole32.dll StringFromGUID2
ole32.dll CoTaskMemFree
ole32.dll CoInitializeSecurity
ole32.dll CoInitializeEx
oleaut32.dll VarBstrFromDate
oleaut32.dll VarI4FromDec
oleaut32.dll VarUI4FromDec
oleaut32.dll SysAllocString
oleaut32.dll SysFreeString
oleaut32.dll VariantClear
rpcrt4.dll UuidCreate
rpcrt4.dll UuidToStringW
rpcrt4.dll RpcStringFreeW
rpcrt4.dll UuidFromStringW
shell32.dll CommandLineToArgvW
shlwapi.dll PathFileExistsW
shlwapi.dll StrStrW
shlwapi.dll PathIsUNCW
user32.dll LoadStringW
user32.dll CharUpperBuffW
user32.dll GetSystemMetrics
user32.dll GetWindowTextW
user32.dll EndPaint
user32.dll BeginPaint
user32.dll ReleaseDC
user32.dll InvalidateRect
user32.dll LoadImageW
user32.dll UpdateWindow
user32.dll PostQuitMessage
user32.dll KillTimer
user32.dll DrawTextW
user32.dll GetClientRect
user32.dll SetCursor
user32.dll TranslateMessage
user32.dll SetPropW
user32.dll SetFocus
user32.dll MapWindowPoints
user32.dll SetTimer
user32.dll DispatchMessageW
user32.dll ShowWindow
user32.dll SetThreadDesktop
user32.dll RegisterClassExW
user32.dll NotifyWinEvent
user32.dll SetClassLongPtrW
user32.dll SetWindowTextW
user32.dll SendMessageW
user32.dll CreateWindowExW
user32.dll GetPropW
user32.dll SetWindowPos
user32.dll IsWindowVisible
user32.dll GetDC
user32.dll DestroyWindow
user32.dll FindWindowExW
user32.dll DefWindowProcW
user32.dll GetMessageW
user32.dll GetWindowLongW
user32.dll FillRect
user32.dll LoadBitmapW
user32.dll IsCharAlphaW
user32.dll GetKeyboardLayout
user32.dll MessageBoxW
user32.dll CharLowerW
user32.dll CharUpperW
user32.dll CharNextW
wintrust.dll CryptCATAdminCalcHashFromFileHandle
servicingcommon.dll RemoveFileProtection
servicingcommon.dll GetLoadedHiveKeyName
wdscore.dll WdsInitialize
wdscore.dll WdsSetupLogMessageW
wdscore.dll CurrentIP
wdscore.dll WdsInitializeDataUInt64
wdscore.dll WdsSetBlackboardValue
wdscore.dll WdsDeleteBlackboardValue
wdscore.dll ConstructPartialMsgVW
wdscore.dll WdsExecuteWorkQueueEx
wdscore.dll WdsSetupLogDestroy
wdscore.dll WdsTerminate
wdscore.dll WdsEnumFirstBlackboardItem
wdscore.dll WdsEnumNextBlackboardItem
wdscore.dll WdsAbortBlackboardItemEnum
wdscore.dll WdsInitializeCallbackArray
wdscore.dll WdsPublish
wdscore.dll WdsSubscribeEx
wdscore.dll WdsCreateBlackboard
wdscore.dll WdsDestroyBlackboard
wdscore.dll WdsFreeData
wdscore.dll WdsInitializeDataUInt32
wdscore.dll WdsPublishImmediateEx
wdscore.dll WdsInitializeDataBinary
wdscore.dll WdsSetNextExecutionGroup
wdscore.dll WdsEnableExit
wdscore.dll WdsExitImmediatelyEx
wdscore.dll WdsAddModule
wdscore.dll WdsAllocCollection
wdscore.dll WdsCollectionAddValue
wdscore.dll WdsPackCollection
wdscore.dll WdsFreeCollection
wdscore.dll WdsInitializeDataStringW
wdscore.dll WdsSetupLogMessageA
wdscore.dll ConstructPartialMsgVA
wdscore.dll WdsCopyBlackboardItemsEx
wdscore.dll WdsUnpackCollection
wdscore.dll WdsCollectionGetValue
wdscore.dll WdsValidBlackboard
wdscore.dll WdsGetBlackboardValue
wdsutil.dll ?IsUpgrade@CUpgradeUserSetting@@SAHXZ
wdsutil.dll PublishMessage
wdsutil.dll SignalSetupComplianceBlock
wdsutil.dll GetDiskKey
wdsutil.dll GetRegionKey
wdsutil.dll IsCrossArchitectureInstall
wdsutil.dll CallbackGetArgumentInt32
wdsutil.dll CallbackGetArgumentUInt64
wdsutil.dll WdsValidateInstallDrive
wdsutil.dll GetApplicableDiskRegionReason
wdsutil.dll FreeReason
wdsutil.dll GetApplicableDiskReason
wdsutil.dll WdsPickTempDriveBasedOnInstallDrive
wdsutil.dll DiskSupportsCapabilityForType
wdsutil.dll LogDiskReasons
wdsutil.dll DiskRegionSupportsCapabilityForType
wdsutil.dll LogDiskRegionReasons
ntdll.dll RtlSetDaclSecurityDescriptor
ntdll.dll NtUnloadKey
ntdll.dll NtDelayExecution
ntdll.dll NtLoadKey
ntdll.dll RtlSetOwnerSecurityDescriptor
ntdll.dll NtEnumerateValueKey
ntdll.dll NtEnumerateKey
ntdll.dll NtDeleteKey
ntdll.dll NtShutdownSystem
ntdll.dll RtlAdjustPrivilege
ntdll.dll RtlNtStatusToDosError
ntdll.dll RtlInitUnicodeString
ntdll.dll NtCreatePagingFile
ntdll.dll RtlGetVersion
ntdll.dll ZwQuerySystemInformation
ntdll.dll ZwQueryValueKey
ntdll.dll ZwOpenKey
ntdll.dll ZwClose
ntdll.dll RtlFreeHeap
ntdll.dll NtQuerySystemEnvironmentValueEx
ntdll.dll RtlReAllocateHeap
ntdll.dll RtlAllocateHeap
ntdll.dll RtlAppendUnicodeToString
ntdll.dll RtlAppendUnicodeStringToString
ntdll.dll RtlRunOnceExecuteOnce
ntdll.dll NtWriteFile
ntdll.dll NtSetSystemInformation
ntdll.dll RtlDosPathNameToRelativeNtPathName_U_WithStatus
ntdll.dll LdrGetDllHandle
ntdll.dll LdrGetProcedureAddress
ntdll.dll NtQueryAttributesFile
ntdll.dll NtQueryVolumeInformationFile
ntdll.dll RtlEqualUnicodeString
ntdll.dll NtRestoreKey
ntdll.dll RtlCreateSecurityDescriptor
ntdll.dll RtlCreateAcl
ntdll.dll RtlAddAccessAllowedAce
ntdll.dll NtQuerySecurityObject
ntdll.dll NtQueryValueKey
ntdll.dll LdrResSearchResource
ntdll.dll ZwQueryInformationFile
ntdll.dll ZwOpenFile
ntdll.dll VerSetConditionMask
ntdll.dll RtlInitString
ntdll.dll ZwEnumerateKey
ntdll.dll RtlFormatCurrentUserKeyPath
ntdll.dll RtlInitAnsiString
ntdll.dll ZwMapViewOfSection
ntdll.dll RtlInitUnicodeStringEx
ntdll.dll ZwSetInformationProcess
ntdll.dll ZwQueryDirectoryFile
ntdll.dll RtlVerifyVersionInfo
ntdll.dll RtlGetNativeSystemInformation
ntdll.dll RtlGetAce
ntdll.dll RtlpEnsureBufferSize
ntdll.dll ZwQueryInformationProcess
ntdll.dll RtlxAnsiStringToUnicodeSize
ntdll.dll RtlFreeUnicodeString
ntdll.dll ZwCreateSection
ntdll.dll RtlDosPathNameToNtPathName_U_WithStatus
ntdll.dll RtlUpcaseUnicodeChar
ntdll.dll ZwCreateFile
ntdll.dll RtlNtPathNameToDosPathName
ntdll.dll ZwUnmapViewOfSection
ntdll.dll RtlImageDirectoryEntryToData
ntdll.dll RtlAnsiStringToUnicodeString
ntdll.dll NtReadFile
ntdll.dll NtClose
ntdll.dll NtQuerySystemInformation
ntdll.dll NtDeleteFile
ntdll.dll NtCreateFile
ntdll.dll NtSetInformationFile
ntdll.dll RtlGetThreadErrorMode
ntdll.dll RtlSetThreadErrorMode
ntdll.dll NtDeviceIoControlFile
ntdll.dll NtOpenFile
ntdll.dll NtOpenDirectoryObject
ntdll.dll NtQueryDirectoryObject
ntdll.dll NtOpenSymbolicLinkObject
ntdll.dll NtQuerySymbolicLinkObject
ntdll.dll NtQueryObject
ntdll.dll NtFsControlFile
ntdll.dll NtQueryDirectoryFile
ntdll.dll NtWaitForSingleObject
ntdll.dll NtCreateKey
ntdll.dll NtSetValueKey
ntdll.dll RtlDosPathNameToNtPathName_U
ntdll.dll NtOpenEvent
ntdll.dll NtCreateEvent
ntdll.dll RtlValidSid
ntdll.dll RtlLengthSid
ntdll.dll EtwEventWrite
ntdll.dll NtQueryKey
ntdll.dll NtOpenKey
ntdll.dll NtFlushKey
ntdll.dll NtDeleteValueKey
ntdll.dll NtQueryInformationFile
ntdll.dll NtSaveKeyEx
ntdll.dll NtQuerySystemTime
ntdll.dll RtlSetEnvironmentVariable
ntdll.dll RtlCreateEnvironment
ntdll.dll RtlDestroyEnvironment
ntdll.dll RtlExpandEnvironmentStrings_U
ntdll.dll RtlGetControlSecurityDescriptor
ntdll.dll RtlConvertSidToUnicodeString
ntdll.dll RtlAllocateAndInitializeSid
ntdll.dll NtSetSecurityObject
ntdll.dll RtlFreeSid
ntdll.dll RtlSetControlSecurityDescriptor
unbcl.dll ??1String@UnBCL@@UEAA@XZ
unbcl.dll ??0String@UnBCL@@QEAA@PEBG@Z
unbcl.dll ??0Object@UnBCL@@QEAA@XZ
unbcl.dll ??1Object@UnBCL@@UEAA@XZ
unbcl.dll ??2Object@UnBCL@@SAPEAX_K@Z
unbcl.dll ?AddStackTrace@Exception@UnBCL@@QEAAXPEBD@Z
unbcl.dll ?MemAllocFailed@Allocator@UnBCL@@SAHXZ
unbcl.dll ??0ArgumentOutOfRangeException@UnBCL@@QEAA@PEBG@Z
unbcl.dll ??0ArgumentNullException@UnBCL@@QEAA@PEBG@Z
unbcl.dll ??0ArgumentException@UnBCL@@QEAA@PEBG@Z
unbcl.dll ??0InvalidOperationException@UnBCL@@QEAA@PEBVString@1@PEAVException@1@@Z
unbcl.dll ??0InvalidOperationException@UnBCL@@QEAA@PEBG@Z
unbcl.dll ??0NotSupportedException@UnBCL@@QEAA@PEBG@Z
unbcl.dll ??0InvalidOperationException@UnBCL@@QEAA@PEBVString@1@@Z
unbcl.dll ?Equals@Object@UnBCL@@UEBAHPEBV12@@Z
unbcl.dll ?CompareTo@Object@UnBCL@@UEBAHPEBV12@@Z
unbcl.dll ?AddRef@Object@UnBCL@@QEAAXXZ
unbcl.dll ?DecRef@Object@UnBCL@@QEAAHXZ
unbcl.dll ?SetLiteralStorage@_@UnBCL@@YAXPEAPEBVString@2@PEBG@Z
unbcl.dll ?Equals@String@UnBCL@@UEBAHPEBVObject@2@@Z
unbcl.dll ?GetHashCode@String@UnBCL@@UEBAHXZ
unbcl.dll ?GetType@Object@UnBCL@@UEBAPEAVType@2@XZ
unbcl.dll ?ToString@String@UnBCL@@UEBAPEAV12@XZ
unbcl.dll ?GetObjectID@Object@UnBCL@@UEBAIXZ
unbcl.dll ?CompareTo@String@UnBCL@@UEBAHPEBVObject@2@@Z
unbcl.dll ??0MutableString@UnBCL@@QEAA@XZ
unbcl.dll ??4MutableString@UnBCL@@QEAAAEAV01@PEBG@Z
unbcl.dll ??0?$SmartPtr@VString@UnBCL@@@UnBCL@@QEAA@PEAVString@1@@Z
unbcl.dll ?Clone@String@UnBCL@@UEBAPEAVObject@2@XZ
unbcl.dll ??1?$SmartPtr@VString@UnBCL@@@UnBCL@@UEAA@XZ
unbcl.dll ??C?$SmartPtr@VString@UnBCL@@@UnBCL@@QEBAPEAVString@1@XZ
unbcl.dll ?Exists@Directory@UnBCL@@SAHPEBVString@2@@Z
unbcl.dll ?Copy@Directory@UnBCL@@SAXPEBVString@2@0HPEAUICopyDelegate@12@@Z
unbcl.dll ?Concat@String@UnBCL@@SAPEAV12@PEBG00@Z
unbcl.dll ??4?$SmartPtr@VString@UnBCL@@@UnBCL@@QEAAAEAV01@AEBV01@@Z
unbcl.dll ?FormatV@String@UnBCL@@SAPEAV12@PEBGPEAD@Z
unbcl.dll ?FromASCII@String@UnBCL@@SAPEAV12@PEBD@Z
unbcl.dll ??0?$SmartPtr@VString@UnBCL@@@UnBCL@@QEAA@XZ
unbcl.dll ??0?$SmartPtr@V?$Array@PEAVString@UnBCL@@@UnBCL@@@UnBCL@@QEAA@PEAV?$Array@PEAVString@UnBCL@@@1@@Z
unbcl.dll ?GetFiles@Directory@UnBCL@@SAPEAV?$Array@PEAVString@UnBCL@@@2@PEBVString@2@0H@Z
unbcl.dll ??1?$SmartPtr@V?$Array@PEAVString@UnBCL@@@UnBCL@@@UnBCL@@UEAA@XZ
unbcl.dll ??C?$SmartPtr@V?$Array@PEAVString@UnBCL@@@UnBCL@@@UnBCL@@QEBAPEAV?$Array@PEAVString@UnBCL@@@1@XZ
unbcl.dll ?GetFileName@Path@UnBCL@@SAPEAVString@2@PEBV32@@Z
unbcl.dll ?Combine@Path@UnBCL@@SAPEAVString@2@PEBV32@0@Z
unbcl.dll ?get_P@?$SmartPtr@VString@UnBCL@@@UnBCL@@QEBAPEAVString@2@XZ
unbcl.dll ?Compare@String@UnBCL@@SAHPEBG0H@Z
unbcl.dll ?GetDirectoriesAndFiles@Directory@UnBCL@@SAPEAV?$Array@PEAVString@UnBCL@@@2@PEBVString@2@0W4EnumerationType@12@H@Z
unbcl.dll ?get_IsEmpty@String@UnBCL@@QEBAHXZ
unbcl.dll ??0Win32Exception@UnBCL@@QEAA@KPEBG@Z
unbcl.dll ??1Win32Exception@UnBCL@@UEAA@XZ
unbcl.dll ?CreateDir@Directory@UnBCL@@SAPEAVDirectoryInfo@2@PEBVString@2@@Z
unbcl.dll ??0?$Array@E@UnBCL@@QEAA@HH@Z
unbcl.dll ??_D?$Array@E@UnBCL@@QEAAXXZ
unbcl.dll ?GetBuffer@?$Array@E@UnBCL@@UEAAPEAEH@Z
unbcl.dll ?get_P@?$SmartPtr@V?$Array@PEAVString@UnBCL@@@UnBCL@@@UnBCL@@QEBAPEAV?$Array@PEAVString@UnBCL@@@2@XZ
unbcl.dll ?get_Chars@String@UnBCL@@QEBAAEBGH@Z
unbcl.dll ?Steal@?$SmartPtr@VString@UnBCL@@@UnBCL@@QEAAPEAVString@2@XZ
unbcl.dll ??0String@UnBCL@@QEAA@PEBV01@@Z
unbcl.dll ?EndsWith@String@UnBCL@@QEBAHPEBGH@Z
unbcl.dll ?StartsWith@String@UnBCL@@QEBAHPEBGH@Z
unbcl.dll ??1Exception@UnBCL@@UEAA@XZ
unbcl.dll ?get_Length@String@UnBCL@@QEBAHXZ
unbcl.dll ??1ISerializable@UnBCL@@UEAA@XZ
unbcl.dll ??1?$IList@E@UnBCL@@UEAA@XZ
unbcl.dll ??1?$ICollection@E@UnBCL@@UEAA@XZ
unbcl.dll ?Exists@File@UnBCL@@SAHPEBVString@2@@Z
unbcl.dll ?Nullify@?$SmartPtr@VString@UnBCL@@@UnBCL@@QEAAAEAV12@XZ
unbcl.dll ??D?$SmartPtr@VString@UnBCL@@@UnBCL@@QEBAAEAVString@1@XZ
unbcl.dll ?SetCompressionState@File@UnBCL@@SAHPEBVString@2@G@Z
unbcl.dll ?Delete@File@UnBCL@@SAXPEBVString@2@@Z
unbcl.dll ??0?$Array@E@UnBCL@@QEAA@PEBU?$ICollection@E@1@@Z
unbcl.dll ?Clone@?$Array@E@UnBCL@@UEBAPEAVObject@2@XZ
unbcl.dll ?Equals@?$Array@E@UnBCL@@UEBAHPEBVObject@2@@Z
unbcl.dll ??6SerializationStream@UnBCL@@QEAAAEAV01@H@Z
unbcl.dll ?WriteBytes@SerializationStream@UnBCL@@QEAAXPEBEH@Z
unbcl.dll ??5SerializationStream@UnBCL@@QEAAAEAV01@AEAH@Z
unbcl.dll ?ReadBytes@SerializationStream@UnBCL@@QEAAXPEAEH@Z
unbcl.dll ?SanitizeTypeName@SerializationStream@UnBCL@@SAPEAVString@2@AEBV32@@Z
unbcl.dll ??2Object@UnBCL@@SAPEAX_KI@Z
unbcl.dll ??0String@UnBCL@@QEAA@AEBV01@@Z
unbcl.dll ?GetCallingModule@SerializationStream@UnBCL@@SAPEAUHINSTANCE__@@XZ
unbcl.dll ?CanRegister@SerializationStream@UnBCL@@SAHXZ
unbcl.dll ?RegisterType@SerializationStream@UnBCL@@SAXPEBVString@2@HPEAUHINSTANCE__@@PEAUIInstanceFactory@2@@Z
unbcl.dll ?EnqueueSbRegistration@SbRegistrationList@UnBCL@@SAXPEBDHPEAUHINSTANCE__@@PEAUIInstanceFactory@2@@Z
unbcl.dll ??0Exception@UnBCL@@QEAA@PEBG@Z
unbcl.dll ?UnregisterType@SerializationStream@UnBCL@@SAXPEBVString@2@HPEAUHINSTANCE__@@@Z
unbcl.dll ??0IInstanceFactory@UnBCL@@QEAA@XZ
unbcl.dll ??0ISerializable@UnBCL@@QEAA@XZ
unbcl.dll ??0?$IList@E@UnBCL@@QEAA@XZ
unbcl.dll ??0?$ICollection@E@UnBCL@@QEAA@XZ
unbcl.dll ??0?$IEnumerable@E@UnBCL@@QEAA@XZ
unbcl.dll ?ExpandEnvironmentVariables@Environment@UnBCL@@SAPEAVString@2@PEBV32@@Z
unbcl.dll ?Delete@Directory@UnBCL@@SAXPEBVString@2@H@Z
unbcl.dll ?Concat@String@UnBCL@@SAPEAV12@PEBG0@Z
unbcl.dll ?Substring@String@UnBCL@@QEBAPEAV12@HH@Z
unbcl.dll ?get_Win32ErrorCode@Win32Exception@UnBCL@@QEBAKXZ
unbcl.dll ?GetEnvironmentVar@Environment@UnBCL@@SAPEAVString@2@PEBV32@@Z
unbcl.dll ?Assign@?$SmartPtr@VString@UnBCL@@@UnBCL@@AEAAXPEAVString@2@@Z
unbcl.dll ?get_Item@XmlAttributeCollection@UnBCL@@QEAAPEAVXmlAttribute@2@PEAVString@2@@Z
unbcl.dll ?GetStackTrace@Exception@UnBCL@@QEBAPEAVString@2@XZ
unbcl.dll ?Clone@?$Hashtable@PEAVString@UnBCL@@PEAV12@@UnBCL@@UEBAPEAVObject@2@XZ
unbcl.dll ??0?$Hashtable@PEAVString@UnBCL@@PEAV12@@UnBCL@@QEAA@HH@Z
unbcl.dll ??0InvalidCastException@UnBCL@@QEAA@XZ
unbcl.dll ?SelectSingleNode@XmlNode@UnBCL@@QEAAPEAV12@PEAVString@2@@Z
unbcl.dll ?SelectNodes@XmlNode@UnBCL@@QEAAPEAVXmlNodeList@2@PEAVString@2@@Z
unbcl.dll ?get_Value@XmlNode@UnBCL@@QEAAPEAVString@2@XZ
unbcl.dll ?get_Attributes@XmlNode@UnBCL@@QEAAPEAVXmlAttributeCollection@2@XZ
unbcl.dll ?Load@XmlDocument@UnBCL@@QEAAXPEAVString@2@@Z
unbcl.dll ??1XmlDocument@UnBCL@@UEAA@XZ
unbcl.dll ??0XmlDocument@UnBCL@@QEAA@XZ
unbcl.dll ?get_P@?$SmartPtr@V?$ArrayList@PEAVString@UnBCL@@@UnBCL@@@UnBCL@@QEBAPEAV?$ArrayList@PEAVString@UnBCL@@@2@XZ
unbcl.dll ??C?$SmartPtr@V?$ArrayList@PEAVString@UnBCL@@@UnBCL@@@UnBCL@@QEBAPEAV?$ArrayList@PEAVString@UnBCL@@@1@XZ
unbcl.dll ??4?$SmartPtr@V?$ArrayList@PEAVString@UnBCL@@@UnBCL@@@UnBCL@@QEAAAEAV01@AEBV01@@Z
unbcl.dll ??1?$SmartPtr@V?$ArrayList@PEAVString@UnBCL@@@UnBCL@@@UnBCL@@UEAA@XZ
unbcl.dll ??0?$SmartPtr@V?$ArrayList@PEAVString@UnBCL@@@UnBCL@@@UnBCL@@QEAA@XZ
unbcl.dll ??0?$SmartPtr@V?$ArrayList@PEAVString@UnBCL@@@UnBCL@@@UnBCL@@QEAA@PEAV?$ArrayList@PEAVString@UnBCL@@@1@@Z
unbcl.dll ??5SerializationStream@UnBCL@@QEAAAEAV01@AEAK@Z
unbcl.dll ??5SerializationStream@UnBCL@@QEAAAEAV01@AEAPEAVString@1@@Z
unbcl.dll ??5SerializationStream@UnBCL@@QEAAAEAV01@AEAPEAUISerializable@1@@Z
unbcl.dll ??6SerializationStream@UnBCL@@QEAAAEAV01@K@Z
unbcl.dll ??6SerializationStream@UnBCL@@QEAAAEAV01@PEBVString@1@@Z
unbcl.dll ??6SerializationStream@UnBCL@@QEAAAEAV01@PEBUISerializable@1@@Z
unbcl.dll ?Compare@String@UnBCL@@SAHPEBV12@0H@Z
unbcl.dll ?ToLower@String@UnBCL@@QEBAPEAV12@XZ
unbcl.dll ?Split@String@UnBCL@@QEBAPEAV?$ArrayList@PEAVString@UnBCL@@@2@PEBG@Z
unbcl.dll ?LastIndexOf@String@UnBCL@@QEBAHG@Z
unbcl.dll ?CompareTo@String@UnBCL@@QEBAHPEBG@Z
unbcl.dll ?CompareTo@String@UnBCL@@QEBAHPEBGH@Z
unbcl.dll ?get_Item@XmlNodeList@UnBCL@@QEAAPEAVXmlNode@2@H@Z
unbcl.dll ?get_Count@XmlNodeList@UnBCL@@QEAAHXZ
unbcl.dll ??0Object@UnBCL@@QEAA@AEBV01@@Z
unbcl.dll ??0Win32Exception@UnBCL@@QEAA@K@Z
unbcl.dll ??1InvalidCastException@UnBCL@@UEAA@XZ
unbcl.dll ??1?$IEnumerator@PEAVString@UnBCL@@@UnBCL@@UEAA@XZ
unbcl.dll ??0?$IEnumerator@PEAVString@UnBCL@@@UnBCL@@QEAA@XZ
unbcl.dll ??4Object@UnBCL@@QEAAAEAV01@AEBV01@@Z
unbcl.dll ??0?$ICollection@PEAVString@UnBCL@@@UnBCL@@QEAA@XZ
unbcl.dll ??0?$IEnumerable@PEAVString@UnBCL@@@UnBCL@@QEAA@XZ
unbcl.dll ??1?$ICollection@PEAVString@UnBCL@@@UnBCL@@UEAA@XZ
unbcl.dll ??_D?$Hashtable@PEAVString@UnBCL@@PEAV12@@UnBCL@@QEAAXXZ
unbcl.dll ?Append@MutableString@UnBCL@@QEAAXPEBG@Z
unbcl.dll ?Clone@MultiSz@UnBCL@@UEBAPEAVObject@2@XZ
unbcl.dll ?ToString@MultiSz@UnBCL@@UEBAPEAVString@2@XZ
unbcl.dll ?Add@MultiSz@UnBCL@@QEAAXPEBG@Z
unbcl.dll ?get_Buffer@MultiSz@UnBCL@@QEBAPEBGXZ
unbcl.dll ??0MultiSz@UnBCL@@QEAA@XZ
unbcl.dll ?Trim@String@UnBCL@@QEBAPEAV12@PEBG@Z
unbcl.dll ?Substring@String@UnBCL@@QEBAPEAV12@H@Z
unbcl.dll ?IndexOf@String@UnBCL@@QEBAHPEBGH@Z
unbcl.dll ??_DMultiSz@UnBCL@@QEAAXXZ
unbcl.dll ?MakeTrim@MutableString@UnBCL@@QEAAXPEBG@Z
unbcl.dll ??0MutableString@UnBCL@@QEAA@PEBG@Z
unbcl.dll ?IsEnvironmentVarSetTrue@Environment@UnBCL@@SAHPEBVString@2@H@Z
unbcl.dll ??0OutOfMemoryException@UnBCL@@QEAA@XZ
unbcl.dll ?IndexOf@String@UnBCL@@QEBAHG@Z
unbcl.dll ??0String@UnBCL@@QEAA@PEBGHH@Z
unbcl.dll ??1OutOfMemoryException@UnBCL@@UEAA@XZ
unbcl.dll ?get_ChildNodes@XmlNode@UnBCL@@QEAAPEAVXmlNodeList@2@XZ
unbcl.dll ?get_Name@XmlNode@UnBCL@@QEAAPEAVString@2@XZ
unbcl.dll ?get_Count@XmlAttributeCollection@UnBCL@@QEAAHXZ
unbcl.dll ?Format@?$CStringT@GV?$StrTraitATL@GV?$ChTraitsCRT@G@ATL@@@ATL@@@ATL@@QEAAXPEBGZZ
unbcl.dll ??4?$CStringT@GV?$StrTraitATL@GV?$ChTraitsCRT@G@ATL@@@ATL@@@ATL@@QEAAAEAV01@PEBG@Z
unbcl.dll ?StringLength@?$CSimpleStringT@G$0A@@ATL@@SAHPEBG@Z
unbcl.dll ?GetLength@?$CSimpleStringT@G$0A@@ATL@@QEBAHXZ
unbcl.dll ?Empty@?$CSimpleStringT@G$0A@@ATL@@QEAAXXZ
unbcl.dll ?Append@?$CSimpleStringT@G$0A@@ATL@@QEAAXPEBG@Z
unbcl.dll ?Concatenate@?$CSimpleStringT@G$0A@@ATL@@KAXAEAV12@PEBGH1H@Z
unbcl.dll ??0?$CStringT@GV?$StrTraitATL@GV?$ChTraitsCRT@G@ATL@@@ATL@@@ATL@@QEAA@PEAUIAtlStringMgr@1@@Z
unbcl.dll ??0?$CStringT@GV?$StrTraitATL@GV?$ChTraitsCRT@G@ATL@@@ATL@@@ATL@@QEAA@AEBV01@@Z
unbcl.dll ?GetManager@?$CStringT@GV?$StrTraitATL@GV?$ChTraitsCRT@G@ATL@@@ATL@@@ATL@@QEBAPEAUIAtlStringMgr@2@XZ
unbcl.dll ??B?$CSimpleStringT@G$0A@@ATL@@QEBAPEBGXZ
unbcl.dll ?SetAt@?$CSimpleStringT@G$0A@@ATL@@QEAAXHG@Z
unbcl.dll ??0?$CStringT@GV?$StrTraitATL@GV?$ChTraitsCRT@G@ATL@@@ATL@@@ATL@@QEAA@XZ
unbcl.dll ??0?$CStringT@GV?$StrTraitATL@GV?$ChTraitsCRT@G@ATL@@@ATL@@@ATL@@QEAA@PEBG@Z
unbcl.dll ??0?$CStringT@GV?$StrTraitATL@GV?$ChTraitsCRT@G@ATL@@@ATL@@@ATL@@QEAA@PEBD@Z
unbcl.dll ??1?$CStringT@GV?$StrTraitATL@GV?$ChTraitsCRT@G@ATL@@@ATL@@@ATL@@QEAA@XZ
unbcl.dll ?Compare@?$CStringT@GV?$StrTraitATL@GV?$ChTraitsCRT@G@ATL@@@ATL@@@ATL@@QEBAHPEBG@Z
unbcl.dll ??4?$CStringT@GV?$StrTraitATL@GV?$ChTraitsCRT@G@ATL@@@ATL@@@ATL@@QEAAAEAV01@AEBV01@@Z
unbcl.dll ?Tokenize@?$CStringT@GV?$StrTraitATL@GV?$ChTraitsCRT@G@ATL@@@ATL@@@ATL@@QEBA?AV12@PEBGAEAH@Z
unbcl.dll ?GetHashCode@Object@UnBCL@@UEBAHXZ
unbcl.dll ?ToString@Exception@UnBCL@@UEBAPEAVString@2@XZ
unbcl.dll ?Clone@Object@UnBCL@@UEBAPEAV12@XZ
unbcl.dll ?get_InnerException@Exception@UnBCL@@UEBAPEBV12@XZ
unbcl.dll ?get_Message@Exception@UnBCL@@UEBAPEBVString@2@XZ
unbcl.dll ?get_Source@Exception@UnBCL@@UEBAPEBVString@2@XZ
unbcl.dll ?set_Source@Exception@UnBCL@@UEAAXPEBVString@2@@Z
unbcl.dll ?GetBaseException@Exception@UnBCL@@UEBAPEBV12@XZ
unbcl.dll ?get_HResult@Exception@UnBCL@@UEBAJXZ
unbcl.dll ?set_HResult@Exception@UnBCL@@MEAAXJ@Z
unbcl.dll ?SetMessage@Exception@UnBCL@@MEAAXPEAVString@2@@Z
unbcl.dll ??3Object@UnBCL@@SAXPEAX@Z
unbcl.dll ?ToString@Object@UnBCL@@UEBAPEAVString@2@XZ
unbcl.dll ??1NotSupportedException@UnBCL@@UEAA@XZ
unbcl.dll ??1InvalidOperationException@UnBCL@@UEAA@XZ
unbcl.dll ??1ArgumentOutOfRangeException@UnBCL@@UEAA@XZ
unbcl.dll ??1ArgumentException@UnBCL@@UEAA@XZ
unbcl.dll ??1ArgumentNullException@UnBCL@@UEAA@XZ
unbcl.dll ??1MutableString@UnBCL@@UEAA@XZ
unbcl.dll ?get_CString@String@UnBCL@@QEBAPEBGXZ
unbcl.dll ??0ApplicationException@UnBCL@@QEAA@PEBG@Z
unbcl.dll ??1ApplicationException@UnBCL@@UEAA@XZ
unbcl.dll ?Format@String@UnBCL@@SAPEAV12@PEBGZZ
unbcl.dll ?GetParentPath@Path@UnBCL@@SAPEAVString@2@PEBV32@@Z
unattend.dll UnattendCtxSerialize
unattend.dll UnattendCtxEnumOrderedSubNodes
unattend.dll UnattendCtxGetShowUI
unattend.dll UnattendCtxGetExpandedStringByNode
unattend.dll UnattendEnumFree
unattend.dll UnattendCtxGetStringByNode
unattend.dll UnattendCtxGetCountByNode
unattend.dll UnattendCtxGetString
unattend.dll UnattendCtxGetFlag
unattend.dll UnattendFreeResults
unattend.dll UnattendCtxGetCount
unattend.dll UnattendCtxOpenNode
unattend.dll UnattendCtxOpenNodeByNode
unattend.dll UnattendCtxGetUlong
unattend.dll UnattendFindAnswerFileWithResults
unattend.dll UnattendDeserializeWithResults
unattend.dll UnattendGetImplicitContext
unattend.dll UnattendCleanup
unattend.dll UnattendGetFirstFailingSetting
unattend.dll UnattendFreeSetting
unattend.dll UnattendCtxGetFlagByNode
unattend.dll UnattendCtxGetUlongByNode
unattend.dll UnattendCtxDeserializeBuffer
unattend.dll UnattendCtxCleanup
unattend.dll UnattendCtxGetEnumValueByNode
unattend.dll UnattendAddResults
unattend.dll UnattendCtxDeserialize
unattend.dll UnattendMarkPassUsedInCtx
unattend.dll UnattendCtxBeginModify
unattend.dll UnattendCtxReplaceMatchedNodesWithText
unattend.dll UnattendCtxCommitModify
unattend.dll UnattendCtxCancelModify
unattend.dll UnattendCtxSerializeSettingsStream
unattend.dll UnattendFreeNode
unattend.dll UnattendCtxGetLong
unattend.dll UnattendFormatPath
unattend.dll UnattendIsNodeValid
unattend.dll UnattendCtxGetLongByNode
unattend.dll UnattendCtxEnumGet
gdi32.dll TextOutW
gdi32.dll GetTextAlign
gdi32.dll SetLayout
gdi32.dll SetTextAlign
gdi32.dll GetTextMetricsW
gdi32.dll CreateDIBitmap
gdi32.dll AddFontMemResourceEx
gdi32.dll GdiAlphaBlend
gdi32.dll SetMapMode
gdi32.dll SetGraphicsMode
gdi32.dll SetWorldTransform
gdi32.dll SetBrushOrgEx
gdi32.dll BitBlt
gdi32.dll CreateCompatibleBitmap
gdi32.dll SelectObject
gdi32.dll CreateCompatibleDC
gdi32.dll StretchBlt
gdi32.dll GetDeviceCaps
gdi32.dll GetTextExtentPoint32W
gdi32.dll SetTextColor
gdi32.dll SetBkMode
gdi32.dll GetObjectW
gdi32.dll SetBkColor
gdi32.dll SetStretchBltMode
gdi32.dll DeleteObject
gdi32.dll CreateSolidBrush
gdi32.dll RemoveFontMemResourceEx
gdi32.dll TranslateCharsetInfo
gdi32.dll DeleteDC
gdi32.dll CreateDCW
gdi32.dll EnumFontFamiliesExW
gdi32.dll SetTextCharacterExtra
gdi32.dll GetStockObject
gdi32.dll CreateFontIndirectW
mpr.dll WNetCancelConnection2W
mpr.dll WNetAddConnection2W
version.dll VerQueryValueW
version.dll GetFileVersionInfoExW
version.dll GetFileVersionInfoSizeExW
wininet.dll InternetSetOptionW
wininet.dll InternetQueryOptionW
wininet.dll InternetGetConnectedState
bcrypt.dll BCryptDestroyKey
bcrypt.dll BCryptVerifySignature
bcrypt.dll BCryptImportKeyPair
bcrypt.dll BCryptGetProperty
bcrypt.dll BCryptOpenAlgorithmProvider
bcrypt.dll BCryptFinishHash
bcrypt.dll BCryptCloseAlgorithmProvider
bcrypt.dll BCryptDestroyHash
bcrypt.dll BCryptHashData
bcrypt.dll BCryptCreateHash
