msvcrt.dll ?terminate@@YAXXZ
msvcrt.dll _wcsicmp
msvcrt.dll isdigit
msvcrt.dll ??8type_info@@QEBAHAEBV0@@Z
msvcrt.dll __RTtypeid
msvcrt.dll _wtol
msvcrt.dll _ultow_s
msvcrt.dll free
msvcrt.dll malloc
msvcrt.dll _XcptFilter
msvcrt.dll _amsg_exit
msvcrt.dll _initterm
msvcrt.dll __C_specific_handler
msvcrt.dll ??1type_info@@UEAA@XZ
msvcrt.dll _lock
msvcrt.dll _unlock
msvcrt.dll __dllonexit
msvcrt.dll _CxxThrowException
msvcrt.dll __CxxFrameHandler4
msvcrt.dll _onexit
msvcrt.dll memset
ntdll.dll RtlIpv4AddressToStringW
ntdll.dll RtlVirtualUnwind
ntdll.dll RtlLookupFunctionEntry
ntdll.dll RtlCaptureContext
ntdll.dll NtWaitForSingleObject
ntdll.dll NtSetEvent
ntdll.dll NtCreateEvent
ntdll.dll NtClose
ntdll.dll RtlIpv6StringToAddressW
ntdll.dll RtlIpv4StringToAddressW
ntdll.dll RtlIpv6AddressToStringW
framedynos.dll ?ExecQuery@Provider@@MEAAJPEAVMethodContext@@AEAVCFrameworkQuery@@J@Z
framedynos.dll ??H@YA?AVCHString@@AEBV0@G@Z
framedynos.dll ?ValidatePutInstanceFlags@Provider@@MEAAJJ@Z
framedynos.dll ?ValidateDeletionFlags@Provider@@MEAAJJ@Z
framedynos.dll ?ValidateQueryFlags@Provider@@MEAAJJ@Z
framedynos.dll ?ValidateMethodFlags@Provider@@MEAAJJ@Z
framedynos.dll ?ValidateGetObjFlags@Provider@@MEAAJJ@Z
framedynos.dll ?ValidateEnumerationFlags@Provider@@MEAAJJ@Z
framedynos.dll ?Flush@Provider@@MEAAXXZ
framedynos.dll ?GetObject@Provider@@MEAAJPEAVCInstance@@JAEAVCFrameworkQuery@@@Z
framedynos.dll ?OnFinalRelease@CThreadBase@@MEAAXXZ
framedynos.dll ?AddRef@CInstance@@QEAAJXZ
framedynos.dll ?GetInstanceByPath@CWbemProviderGlue@@SAJPEBGPEAPEAVCInstance@@PEAVMethodContext@@@Z
framedynos.dll ??H@YA?AVCHString@@PEBGAEBV0@@Z
framedynos.dll ??H@YA?AVCHString@@AEBV0@PEBG@Z
framedynos.dll ??H@YA?AVCHString@@AEBV0@0@Z
framedynos.dll ?GetObject@Provider@@MEAAJPEAVCInstance@@J@Z
framedynos.dll ?s_strComputerName@Provider@@0VCHString@@A
framedynos.dll ?GetValuesForProp@CFrameworkQuery@@QEAAJPEBGAEAVCHStringArray@@@Z
framedynos.dll ??0CHString@@QEAA@AEBV0@@Z
framedynos.dll ?GetClassObjectInterface@CInstance@@QEAAPEAUIWbemClassObject@@XZ
framedynos.dll ?MakeLower@CHString@@QEAAXXZ
framedynos.dll ?MakeUpper@CHString@@QEAAXXZ
framedynos.dll ?Compare@CHString@@QEBAHPEBG@Z
framedynos.dll ?GetStatus@CInstance@@QEBA_NPEBGAEA_NAEAG@Z
framedynos.dll ?GetBuffer@CHString@@QEAAPEAGH@Z
framedynos.dll ?GetQuery@CFrameworkQuery@@QEAAAEBVCHString@@XZ
framedynos.dll ??4CHString@@QEAAAEBV0@AEBV0@@Z
framedynos.dll ?GetDWORD@CInstance@@QEBA_NPEBGAEAK@Z
framedynos.dll ?IsEmpty@CHString@@QEBAHXZ
framedynos.dll ?GetCHString@CInstance@@QEBA_NPEBGAEAVCHString@@@Z
framedynos.dll ?Commit@Provider@@IEAAJPEAVCInstance@@_N@Z
framedynos.dll ?SetCHString@CInstance@@QEAA_NPEBGPEBD@Z
framedynos.dll ?SetDWORD@CInstance@@QEAA_NPEBGK@Z
framedynos.dll ??4CHString@@QEAAAEBV0@PEBG@Z
framedynos.dll ??0CHString@@QEAA@XZ
framedynos.dll ?SetCHString@CInstance@@QEAA_NPEBGAEBVCHString@@@Z
framedynos.dll ?CreateNewInstance@Provider@@IEAAPEAVCInstance@@PEAVMethodContext@@@Z
framedynos.dll ??1CHString@@QEAA@XZ
framedynos.dll ??0CHString@@QEAA@PEBG@Z
framedynos.dll ?Release@CInstance@@QEAAJXZ
framedynos.dll ??1Provider@@UEAA@XZ
framedynos.dll ??0Provider@@QEAA@PEBG0@Z
framedynos.dll ?LocalLogMessage@ProviderLog@@QEAAXPEBG0HW4LogLevel@1@@Z
framedynos.dll ?captainsLog@@3VProviderLog@@A
framedynos.dll ?LocalLogMessage@ProviderLog@@QEAAXPEBGHW4LogLevel@1@0ZZ
framedynos.dll ?Commit@CInstance@@QEAAJXZ
framedynos.dll ?GetInstanceKeysByPath@CWbemProviderGlue@@SAJPEBGPEAPEAVCInstance@@PEAVMethodContext@@@Z
framedynos.dll ?IsDerivedFrom@CWbemProviderGlue@@SA_NPEBG0PEAVMethodContext@@0@Z
framedynos.dll ??0CThreadBase@@QEAA@W4THREAD_SAFETY_MECHANISM@0@@Z
framedynos.dll ??1CThreadBase@@UEAA@XZ
framedynos.dll ??0CHPtrArray@@QEAA@XZ
framedynos.dll ??1CHPtrArray@@QEAA@XZ
framedynos.dll ?Add@CHPtrArray@@QEAAHPEAX@Z
framedynos.dll ?EndWrite@CThreadBase@@QEAAXXZ
framedynos.dll ??ACHPtrArray@@QEAAAEAPEAXH@Z
framedynos.dll ?RemoveAll@CHPtrArray@@QEAAXXZ
framedynos.dll ?ExecMethod@Provider@@MEAAJAEBVCInstance@@QEAGPEAV2@2J@Z
framedynos.dll ??0CHStringArray@@QEAA@XZ
framedynos.dll ?DeleteInstance@Provider@@MEAAJAEBVCInstance@@J@Z
framedynos.dll ?PutInstance@Provider@@MEAAJAEBVCInstance@@J@Z
framedynos.dll ?GetAt@CHPtrArray@@QEBAPEAXH@Z
framedynos.dll ?GetSize@CHPtrArray@@QEBAHXZ
framedynos.dll ?Right@CHString@@QEBA?AV1@H@Z
framedynos.dll ??YCHString@@QEAAAEBV0@G@Z
framedynos.dll ?Left@CHString@@QEBA?AV1@H@Z
framedynos.dll ?FindOneOf@CHString@@QEBAHPEBG@Z
framedynos.dll ?Empty@CHString@@QEAAXXZ
framedynos.dll ?RemoveAt@CHStringArray@@QEAAXHH@Z
framedynos.dll ?RemoveAll@CHStringArray@@QEAAXXZ
framedynos.dll ?GetLocalInstancePath@Provider@@IEAA_NPEBVCInstance@@AEAVCHString@@@Z
framedynos.dll ?GetMethodContext@CInstance@@QEBAPEAVMethodContext@@XZ
framedynos.dll ?Parse@CObjectPathParser@@QEAAHPEBGPEAPEAUParsedObjectPath@@@Z
framedynos.dll ??1CObjectPathParser@@QEAA@XZ
framedynos.dll ??0CObjectPathParser@@QEAA@W4ObjectParserFlags@@@Z
framedynos.dll ?Free@CObjectPathParser@@QEAAXPEAUParsedObjectPath@@@Z
framedynos.dll ?GetInstancePropertiesByPath@CWbemProviderGlue@@SAJPEBGPEAPEAVCInstance@@PEAVMethodContext@@AEAVCHStringArray@@@Z
framedynos.dll ?Add@CHStringArray@@QEAAHPEBG@Z
framedynos.dll ?Create@CWbemGlueFactory@@SAPEAV1@PEAJ@Z
framedynos.dll ?Destroy@CWbemGlueFactory@@QEAAXXZ
framedynos.dll ?FrameworkLogoffDLL@CWbemProviderGlue@@SAHPEBGPEAJ@Z
framedynos.dll ?FrameworkLoginDLL@CWbemProviderGlue@@SAHPEBGPEAJ@Z
framedynos.dll ?initFailed@Provider@@SAHXZ
framedynos.dll ?GetVariant@CInstance@@QEBA_NPEBGAEAUtagVARIANT@@@Z
framedynos.dll ?Format@CHString@@QEAAXPEBGZZ
framedynos.dll ??ACHStringArray@@QEBA?AVCHString@@H@Z
framedynos.dll ??YCHString@@QEAAAEBV0@AEBV0@@Z
framedynos.dll ?SetAt@CHString@@QEAAXHG@Z
framedynos.dll ?GetLength@CHString@@QEBAHXZ
framedynos.dll ?GetInstancesByQueryAsynch@CWbemProviderGlue@@SAJPEBGPEAVProvider@@P6AJ1PEAVCInstance@@PEAVMethodContext@@PEAX@Z034@Z
framedynos.dll ?GetInstancesByQuery@CWbemProviderGlue@@SAJPEBGPEAV?$TRefPointerCollection@VCInstance@@@@PEAVMethodContext@@0@Z
framedynos.dll ??1CHStringArray@@QEAA@XZ
provthrd.dll ??0WmiSignedIntegerNode@@QEAA@PEAGJKPEAVWmiTreeNode@@@Z
provthrd.dll ??1WmiSignedIntegerNode@@UEAA@XZ
provthrd.dll ??0WmiUnsignedIntegerNode@@QEAA@PEAGKKPEAVWmiTreeNode@@@Z
provthrd.dll ??1WmiUnsignedIntegerNode@@UEAA@XZ
provthrd.dll ??0WmiNullNode@@QEAA@PEAGKPEAVWmiTreeNode@@@Z
provthrd.dll ??1WmiNullNode@@UEAA@XZ
provthrd.dll ??0WmiUnsignedIntegerRangeNode@@QEAA@PEAGKHHHHKKPEAVWmiTreeNode@@1@Z
provthrd.dll ??1WmiUnsignedIntegerRangeNode@@UEAA@XZ
provthrd.dll ??0WmiSignedIntegerRangeNode@@QEAA@PEAGKHHHHJJPEAVWmiTreeNode@@1@Z
provthrd.dll ??1WmiSignedIntegerRangeNode@@UEAA@XZ
provthrd.dll ??0WmiStringRangeNode@@QEAA@PEAGKHHHH00PEAVWmiTreeNode@@1@Z
provthrd.dll ??0QueryPreprocessor@@QEAA@XZ
provthrd.dll ??1QueryPreprocessor@@UEAA@XZ
provthrd.dll ?Query@QueryPreprocessor@@QEAA?AW4QuadState@1@PEAGAEAPEAUSQL_LEVEL_1_RPN_EXPRESSION@@@Z
provthrd.dll ?PreProcess@QueryPreprocessor@@QEAA?AW4QuadState@1@PEAXPEAUSQL_LEVEL_1_RPN_EXPRESSION@@AEAPEAVWmiTreeNode@@@Z
provthrd.dll ?PreProcess@QueryPreprocessor@@QEAA?AW4QuadState@1@PEAXPEAUSQL_LEVEL_1_RPN_EXPRESSION@@PEAVWmiTreeNode@@KPEAPEAGAEAPEAVPartitionSet@@@Z
provthrd.dll ??0WmiStringNode@@QEAA@PEAG0W4WmiValueFunction@WmiValueNode@@1KPEAVWmiTreeNode@@@Z
provthrd.dll ??1WmiStringNode@@UEAA@XZ
provthrd.dll ?Copy@WmiSignedIntegerNode@@UEAAPEAVWmiTreeNode@@XZ
provthrd.dll ?CopyNode@WmiTreeNode@@UEAAPEAV1@XZ
provthrd.dll ?Print@WmiSignedIntegerNode@@UEAAXXZ
provthrd.dll ?Copy@WmiUnsignedIntegerNode@@UEAAPEAVWmiTreeNode@@XZ
provthrd.dll ?Print@WmiUnsignedIntegerNode@@UEAAXXZ
provthrd.dll ?Copy@WmiStringNode@@UEAAPEAVWmiTreeNode@@XZ
provthrd.dll ?Print@WmiStringNode@@UEAAXXZ
provthrd.dll ?Copy@WmiNullNode@@UEAAPEAVWmiTreeNode@@XZ
provthrd.dll ?Print@WmiNullNode@@UEAAXXZ
provthrd.dll ?Copy@WmiUnsignedIntegerRangeNode@@UEAAPEAVWmiTreeNode@@XZ
provthrd.dll ?Print@WmiUnsignedIntegerRangeNode@@UEAAXXZ
provthrd.dll ?Copy@WmiSignedIntegerRangeNode@@UEAAPEAVWmiTreeNode@@XZ
provthrd.dll ?Print@WmiSignedIntegerRangeNode@@UEAAXXZ
provthrd.dll ?Copy@WmiStringRangeNode@@UEAAPEAVWmiTreeNode@@XZ
provthrd.dll ?Print@WmiStringRangeNode@@UEAAXXZ
provthrd.dll ??1WmiStringRangeNode@@UEAA@XZ
advapi32.dll RegOpenKeyExW
advapi32.dll RegCloseKey
advapi32.dll RegCreateKeyExW
advapi32.dll RegSetValueExW
advapi32.dll RegDeleteKeyExW
iphlpapi.dll FreeMibTable
iphlpapi.dll ConvertLengthToIpv4Mask
iphlpapi.dll GetAdaptersAddresses
iphlpapi.dll SetIpForwardEntry2
iphlpapi.dll CreateIpForwardEntry2
iphlpapi.dll ConvertIpv4MaskToLength
iphlpapi.dll DeleteIpForwardEntry2
iphlpapi.dll GetIpForwardTable2
iphlpapi.dll GetBestInterfaceEx
iphlpapi.dll ConvertInterfaceIndexToLuid
iphlpapi.dll NotifyRouteChange2
iphlpapi.dll CancelMibChangeNotify2
kernel32.dll DisableThreadLibraryCalls
kernel32.dll GetModuleFileNameW
kernel32.dll GetTickCount
kernel32.dll GetSystemTimeAsFileTime
kernel32.dll GetCurrentThreadId
kernel32.dll GetCurrentProcessId
kernel32.dll QueryPerformanceCounter
kernel32.dll TerminateProcess
kernel32.dll GetCurrentProcess
kernel32.dll SetUnhandledExceptionFilter
kernel32.dll UnhandledExceptionFilter
kernel32.dll Sleep
kernel32.dll LocalFree
kernel32.dll CreateThread
kernel32.dll CloseHandle
kernel32.dll HeapAlloc
kernel32.dll GetProcessHeap
kernel32.dll HeapFree
kernel32.dll InitializeCriticalSection
kernel32.dll LeaveCriticalSection
kernel32.dll EnterCriticalSection
kernel32.dll DeleteCriticalSection
kernel32.dll GetVersionExW
oleaut32.dll VariantChangeType
oleaut32.dll VariantInit
oleaut32.dll VariantCopy
oleaut32.dll VariantClear
oleaut32.dll SysAllocString
oleaut32.dll SysFreeString
ole32.dll StringFromGUID2
nsi.dll NsiAllocateAndGetTable
nsi.dll NsiFreeTable
nsi.dll NsiSetAllParameters
