msvcrt.dll ??1type_info@@UEAA@XZ
msvcrt.dll _onexit
msvcrt.dll __dllonexit
msvcrt.dll _unlock
msvcrt.dll _lock
msvcrt.dll __C_specific_handler
msvcrt.dll _initterm
msvcrt.dll __CxxFrameHandler4
msvcrt.dll free
msvcrt.dll _amsg_exit
msvcrt.dll _XcptFilter
msvcrt.dll _purecall
msvcrt.dll ??_V@YAXPEAX@Z
msvcrt.dll _wcsicmp
msvcrt.dll ??3@YAXPEAX@Z
msvcrt.dll malloc
msvcrt.dll _CxxThrowException
srvcli.dll NetSessionDel
srvcli.dll NetShareEnum
srvcli.dll NetConnectionEnum
srvcli.dll NetSessionEnum
netutils.dll NetApiBufferFree
oleaut32.dll VariantInit
oleaut32.dll SysAllocString
oleaut32.dll VariantClear
oleaut32.dll VariantChangeType
api-ms-win-core-heap-l2-1-0.dll LocalFree
api-ms-win-core-synch-l1-2-0.dll Sleep
api-ms-win-core-rtlsupport-l1-1-0.dll RtlLookupFunctionEntry
api-ms-win-core-rtlsupport-l1-1-0.dll RtlVirtualUnwind
api-ms-win-core-rtlsupport-l1-1-0.dll RtlCaptureContext
api-ms-win-core-errorhandling-l1-1-0.dll SetUnhandledExceptionFilter
api-ms-win-core-errorhandling-l1-1-0.dll UnhandledExceptionFilter
api-ms-win-core-processthreads-l1-1-0.dll TerminateProcess
api-ms-win-core-processthreads-l1-1-0.dll GetCurrentThreadId
api-ms-win-core-processthreads-l1-1-0.dll GetCurrentProcessId
api-ms-win-core-processthreads-l1-1-0.dll GetCurrentProcess
api-ms-win-core-profile-l1-1-0.dll QueryPerformanceCounter
api-ms-win-core-sysinfo-l1-1-0.dll GetVersionExW
api-ms-win-core-sysinfo-l1-1-0.dll GetTickCount
api-ms-win-core-sysinfo-l1-1-0.dll GetSystemTimeAsFileTime
framedynos.dll ??ACHPtrArray@@QEAAAEAPEAXH@Z
framedynos.dll ?EndWrite@CThreadBase@@QEAAXXZ
framedynos.dll ??0CHPtrArray@@QEAA@XZ
framedynos.dll ??1CThreadBase@@UEAA@XZ
framedynos.dll ?FindOneOf@CHString@@QEBAHPEBG@Z
framedynos.dll ?Left@CHString@@QEBA?AV1@H@Z
framedynos.dll ?Add@CHPtrArray@@QEAAHPEAX@Z
framedynos.dll ?BeginWrite@CThreadBase@@QEAAHK@Z
framedynos.dll ??YCHString@@QEAAAEBV0@G@Z
framedynos.dll ?BeginRead@CThreadBase@@QEAAHK@Z
framedynos.dll ?GetSize@CHPtrArray@@QEBAHXZ
framedynos.dll ?RemoveAll@CHPtrArray@@QEAAXXZ
framedynos.dll ?LocalLogMessage@ProviderLog@@QEAAXPEBGHW4LogLevel@1@0ZZ
framedynos.dll ?captainsLog@@3VProviderLog@@A
framedynos.dll ?LocalLogMessage@ProviderLog@@QEAAXPEBG0HW4LogLevel@1@@Z
framedynos.dll ??0CHString@@QEAA@PEBD@Z
framedynos.dll ??1CHString@@QEAA@XZ
framedynos.dll ??YCHString@@QEAAAEBV0@PEBG@Z
framedynos.dll ??YCHString@@QEAAAEBV0@AEBV0@@Z
framedynos.dll ?Add@CHStringArray@@QEAAHPEBG@Z
framedynos.dll ?GetAt@CHPtrArray@@QEBAPEAXH@Z
framedynos.dll ??4CHString@@QEAAAEBV0@PEBG@Z
framedynos.dll ?GetBuffer@CHString@@QEAAPEAGH@Z
framedynos.dll ?GetLength@CHString@@QEBAHXZ
framedynos.dll ??0CHStringArray@@QEAA@XZ
framedynos.dll ??1CHStringArray@@QEAA@XZ
framedynos.dll ?GetAt@CHStringArray@@QEBA?AVCHString@@H@Z
framedynos.dll ??0CObjectPathParser@@QEAA@W4ObjectParserFlags@@@Z
framedynos.dll ??1CObjectPathParser@@QEAA@XZ
framedynos.dll ?Parse@CObjectPathParser@@QEAAHPEBGPEAPEAUParsedObjectPath@@@Z
framedynos.dll ??1ParsedObjectPath@@QEAA@XZ
framedynos.dll ??0ParsedObjectPath@@QEAA@XZ
framedynos.dll ??1CHPtrArray@@QEAA@XZ
framedynos.dll ?AddKeyRef@ParsedObjectPath@@QEAAHPEBGPEBUtagVARIANT@@@Z
framedynos.dll ?Unparse@CObjectPathParser@@SAHPEAUParsedObjectPath@@PEAPEAG@Z
framedynos.dll ??0Provider@@QEAA@PEBG0@Z
framedynos.dll ??1Provider@@UEAA@XZ
framedynos.dll ?GetCHString@CInstance@@QEBA_NPEBGAEAVCHString@@@Z
framedynos.dll ?GetValuesForProp@CFrameworkQuery@@QEAAJPEBGAEAVCHStringArray@@@Z
framedynos.dll ?CreateNewInstance@Provider@@IEAAPEAVCInstance@@PEAVMethodContext@@@Z
framedynos.dll ?Empty@CHString@@QEAAXXZ
framedynos.dll ?Format@CHString@@QEAAXPEBGZZ
framedynos.dll ?SetCHString@CInstance@@QEAA_NPEBGAEBVCHString@@@Z
framedynos.dll ?SetWORD@CInstance@@QEAA_NPEBGG@Z
framedynos.dll ?SetDWORD@CInstance@@QEAA_NPEBGK@Z
framedynos.dll ?IsPropertyRequired@CFrameworkQuery@@QEAA_NPEBG@Z
framedynos.dll ?AddRef@CInstance@@QEAAJXZ
framedynos.dll ?Release@CInstance@@QEAAJXZ
framedynos.dll ?OnFinalRelease@CThreadBase@@MEAAXXZ
framedynos.dll ?PutInstance@Provider@@MEAAJAEBVCInstance@@J@Z
framedynos.dll ?ExecMethod@Provider@@MEAAJAEBVCInstance@@QEAGPEAV2@2J@Z
framedynos.dll ?GetObject@Provider@@MEAAJPEAVCInstance@@J@Z
framedynos.dll ?Flush@Provider@@MEAAXXZ
framedynos.dll ?ValidateEnumerationFlags@Provider@@MEAAJJ@Z
framedynos.dll ?ValidateGetObjFlags@Provider@@MEAAJJ@Z
framedynos.dll ?ValidateMethodFlags@Provider@@MEAAJJ@Z
framedynos.dll ?ValidateQueryFlags@Provider@@MEAAJJ@Z
framedynos.dll ?ValidateDeletionFlags@Provider@@MEAAJJ@Z
framedynos.dll ?ValidatePutInstanceFlags@Provider@@MEAAJJ@Z
framedynos.dll ?SetCharSplat@CInstance@@QEAA_NPEBG0@Z
framedynos.dll ??4CHString@@QEAAAEBV0@AEBV0@@Z
framedynos.dll ?Mid@CHString@@QEBA?AV1@HH@Z
framedynos.dll ?Right@CHString@@QEBA?AV1@H@Z
framedynos.dll ?DeleteInstance@Provider@@MEAAJAEBVCInstance@@J@Z
framedynos.dll ??0CHString@@QEAA@PEBG@Z
framedynos.dll ?SetCHString@CInstance@@QEAA_NPEBG0@Z
framedynos.dll ?ExecQuery@Provider@@MEAAJPEAVMethodContext@@AEAVCFrameworkQuery@@J@Z
framedynos.dll ?RemoveAt@CHStringArray@@QEAAXHH@Z
framedynos.dll ?EndRead@CThreadBase@@QEAAXXZ
framedynos.dll ?GetMethodContext@CInstance@@QEBAPEAVMethodContext@@XZ
framedynos.dll ?GetLocalInstancePath@Provider@@IEAA_NPEBVCInstance@@AEAVCHString@@@Z
framedynos.dll ??H@YA?AVCHString@@AEBV0@0@Z
framedynos.dll ??H@YA?AVCHString@@AEBV0@G@Z
framedynos.dll ?SetClassName@ParsedObjectPath@@QEAAHPEBG@Z
framedynos.dll ??H@YA?AVCHString@@PEBGAEBV0@@Z
framedynos.dll ?GetInstanceKeysByPath@CWbemProviderGlue@@SAJPEBGPEAPEAVCInstance@@PEAVMethodContext@@@Z
framedynos.dll ?GetDWORD@CInstance@@QEBA_NPEBGAEAK@Z
framedynos.dll ?IsDerivedFrom@CWbemProviderGlue@@SA_NPEBG0PEAVMethodContext@@0@Z
framedynos.dll ??0CHString@@QEAA@XZ
framedynos.dll ?Commit@CInstance@@QEAAJXZ
framedynos.dll ?Create@CWbemGlueFactory@@SAPEAV1@PEAJ@Z
framedynos.dll ?Destroy@CWbemGlueFactory@@QEAAXXZ
framedynos.dll ?FrameworkLogoffDLL@CWbemProviderGlue@@SAHPEBGPEAJ@Z
framedynos.dll ?FrameworkLoginDLL@CWbemProviderGlue@@SAHPEBGPEAJ@Z
framedynos.dll ?initFailed@Provider@@SAHXZ
framedynos.dll ?GetVariant@CInstance@@QEBA_NPEBGAEAUtagVARIANT@@@Z
framedynos.dll ??ACHStringArray@@QEBA?AVCHString@@H@Z
framedynos.dll ?SetAt@CHString@@QEAAXHG@Z
framedynos.dll ?GetInstancesByQueryAsynch@CWbemProviderGlue@@SAJPEBGPEAVProvider@@P6AJ1PEAVCInstance@@PEAVMethodContext@@PEAX@Z034@Z
framedynos.dll ?GetInstancesByQuery@CWbemProviderGlue@@SAJPEBGPEAV?$TRefPointerCollection@VCInstance@@@@PEAVMethodContext@@0@Z
framedynos.dll ?GetInstancePropertiesByPath@CWbemProviderGlue@@SAJPEBGPEAPEAVCInstance@@PEAVMethodContext@@AEAVCHStringArray@@@Z
framedynos.dll ?Free@CObjectPathParser@@QEAAXPEAUParsedObjectPath@@@Z
framedynos.dll ?RemoveAll@CHStringArray@@QEAAXXZ
framedynos.dll ??0CThreadBase@@QEAA@W4THREAD_SAFETY_MECHANISM@0@@Z
api-ms-win-core-libraryloader-l1-2-0.dll GetModuleFileNameW
api-ms-win-core-libraryloader-l1-2-0.dll DisableThreadLibraryCalls
api-ms-win-core-com-l1-1-0.dll StringFromGUID2
api-ms-win-core-registry-l1-1-0.dll RegSetValueExW
api-ms-win-core-registry-l1-1-0.dll RegCloseKey
api-ms-win-core-registry-l1-1-0.dll RegOpenKeyExW
api-ms-win-core-registry-l1-1-0.dll RegCreateKeyExW
api-ms-win-core-registry-l1-1-0.dll RegDeleteKeyExW
