msvcp_win.dll ?_Xout_of_range@std@@YAXPEBD@Z
msvcp_win.dll ?_BADOFF@std@@3_JB
msvcp_win.dll ?_Winerror_map@std@@YAHH@Z
msvcp_win.dll ?id@?$ctype@G@std@@2V0locale@2@A
msvcp_win.dll ?_Xlength_error@std@@YAXPEBD@Z
msvcp_win.dll ?_Syserror_map@std@@YAPEBDH@Z
msvcp_win.dll ?sputn@?$basic_streambuf@GU?$char_traits@G@std@@@std@@QEAA_JPEBG_J@Z
msvcp_win.dll ??0?$basic_streambuf@GU?$char_traits@G@std@@@std@@IEAA@XZ
msvcp_win.dll ??0?$basic_ios@GU?$char_traits@G@std@@@std@@IEAA@XZ
msvcp_win.dll ?gbump@?$basic_streambuf@GU?$char_traits@G@std@@@std@@IEAAXH@Z
msvcp_win.dll ?pbump@?$basic_streambuf@GU?$char_traits@G@std@@@std@@IEAAXH@Z
msvcp_win.dll ??0?$basic_ostream@GU?$char_traits@G@std@@@std@@QEAA@PEAV?$basic_streambuf@GU?$char_traits@G@std@@@1@_N@Z
msvcp_win.dll ?_Osfx@?$basic_ostream@GU?$char_traits@G@std@@@std@@QEAAXXZ
msvcp_win.dll ?flush@?$basic_ostream@GU?$char_traits@G@std@@@std@@QEAAAEAV12@XZ
msvcp_win.dll ??1?$basic_ios@GU?$char_traits@G@std@@@std@@UEAA@XZ
msvcp_win.dll ?setstate@?$basic_ios@GU?$char_traits@G@std@@@std@@QEAAXH_N@Z
msvcp_win.dll ??1?$basic_streambuf@GU?$char_traits@G@std@@@std@@UEAA@XZ
msvcp_win.dll ?sputc@?$basic_streambuf@GU?$char_traits@G@std@@@std@@QEAAGG@Z
msvcp_win.dll ?_Lock@?$basic_streambuf@GU?$char_traits@G@std@@@std@@UEAAXXZ
msvcp_win.dll ?_Unlock@?$basic_streambuf@GU?$char_traits@G@std@@@std@@UEAAXXZ
msvcp_win.dll ?showmanyc@?$basic_streambuf@GU?$char_traits@G@std@@@std@@MEAA_JXZ
msvcp_win.dll ?uflow@?$basic_streambuf@GU?$char_traits@G@std@@@std@@MEAAGXZ
msvcp_win.dll ?xsgetn@?$basic_streambuf@GU?$char_traits@G@std@@@std@@MEAA_JPEAG_J@Z
msvcp_win.dll ?xsputn@?$basic_streambuf@GU?$char_traits@G@std@@@std@@MEAA_JPEBG_J@Z
msvcp_win.dll ?setbuf@?$basic_streambuf@GU?$char_traits@G@std@@@std@@MEAAPEAV12@PEAG_J@Z
msvcp_win.dll ?sync@?$basic_streambuf@GU?$char_traits@G@std@@@std@@MEAAHXZ
msvcp_win.dll ?imbue@?$basic_streambuf@GU?$char_traits@G@std@@@std@@MEAAXAEBVlocale@2@@Z
msvcp_win.dll ??1?$basic_ostream@GU?$char_traits@G@std@@@std@@UEAA@XZ
msvcp_win.dll ??6?$basic_ostream@GU?$char_traits@G@std@@@std@@QEAAAEAV01@J@Z
msvcp_win.dll ??6?$basic_ostream@GU?$char_traits@G@std@@@std@@QEAAAEAV01@K@Z
msvcp_win.dll ?getloc@ios_base@std@@QEBA?AVlocale@2@XZ
msvcp_win.dll ?_Getcat@?$ctype@G@std@@SA_KPEAPEBVfacet@locale@2@PEBV42@@Z
msvcp_win.dll ?widen@?$ctype@G@std@@QEBAGD@Z
msvcp_win.dll ??0_Lockit@std@@QEAA@H@Z
msvcp_win.dll ?_Getgloballocale@locale@std@@CAPEAV_Locimp@12@XZ
msvcp_win.dll ?uncaught_exception@std@@YA_NXZ
msvcp_win.dll ?_Xbad_alloc@std@@YAXXZ
msvcp_win.dll ?_Winerror_message@std@@YAKKPEADK@Z
msvcp_win.dll ?_Xinvalid_argument@std@@YAXPEBD@Z
msvcp_win.dll ??Bid@locale@std@@QEAA_KXZ
msvcp_win.dll ??1_Lockit@std@@QEAA@XZ
api-ms-win-crt-runtime-l1-1-0.dll _initterm_e
api-ms-win-crt-runtime-l1-1-0.dll _initterm
api-ms-win-crt-private-l1-1-0.dll __CxxFrameHandler3
api-ms-win-crt-private-l1-1-0.dll _CxxThrowException
api-ms-win-crt-private-l1-1-0.dll __C_specific_handler
api-ms-win-crt-private-l1-1-0.dll memmove
api-ms-win-crt-private-l1-1-0.dll __std_terminate
api-ms-win-crt-private-l1-1-0.dll _o___std_exception_copy
api-ms-win-crt-private-l1-1-0.dll _o___std_exception_destroy
api-ms-win-crt-private-l1-1-0.dll _o___std_type_info_destroy_list
api-ms-win-crt-private-l1-1-0.dll _o___stdio_common_vsnprintf_s
api-ms-win-crt-private-l1-1-0.dll _o___stdio_common_vswprintf
api-ms-win-crt-private-l1-1-0.dll _o__callnewh
api-ms-win-crt-private-l1-1-0.dll _o__cexit
api-ms-win-crt-private-l1-1-0.dll _o__configure_narrow_argv
api-ms-win-crt-private-l1-1-0.dll _o__crt_atexit
api-ms-win-crt-private-l1-1-0.dll _o__errno
api-ms-win-crt-private-l1-1-0.dll _o__execute_onexit_table
api-ms-win-crt-private-l1-1-0.dll _o__initialize_narrow_environment
api-ms-win-crt-private-l1-1-0.dll _o__initialize_onexit_table
api-ms-win-crt-private-l1-1-0.dll _o__invalid_parameter_noinfo
api-ms-win-crt-private-l1-1-0.dll _o__invalid_parameter_noinfo_noreturn
api-ms-win-crt-private-l1-1-0.dll _o__purecall
api-ms-win-crt-private-l1-1-0.dll _o__register_onexit_function
api-ms-win-crt-private-l1-1-0.dll _o__seh_filter_dll
api-ms-win-crt-private-l1-1-0.dll memcpy
api-ms-win-crt-private-l1-1-0.dll _o__wcsicmp
api-ms-win-crt-private-l1-1-0.dll _o_free
api-ms-win-crt-private-l1-1-0.dll _o_malloc
api-ms-win-crt-private-l1-1-0.dll _o_memset
api-ms-win-crt-private-l1-1-0.dll _o_towlower
api-ms-win-crt-private-l1-1-0.dll _o_wcstoul
ntdll.dll RtlDosPathNameToRelativeNtPathName_U
ntdll.dll RtlInitUnicodeString
ntdll.dll RtlFreeHeap
ntdll.dll RtlCaptureContext
ntdll.dll RtlLookupFunctionEntry
ntdll.dll RtlVirtualUnwind
ntdll.dll RtlGUIDFromString
oleaut32.dll VariantClear
oleaut32.dll SysFreeString
oleaut32.dll SysAllocString
oleaut32.dll SysAllocStringByteLen
oleaut32.dll SysStringByteLen
oleaut32.dll GetErrorInfo
api-ms-win-core-com-l1-1-1.dll CoInitializeEx
api-ms-win-core-com-l1-1-1.dll CoUninitialize
api-ms-win-core-com-l1-1-1.dll CoCreateInstance
rpcrt4.dll RpcStringFreeW
rpcrt4.dll UuidToStringW
api-ms-win-core-libraryloader-l1-2-0.dll GetModuleFileNameA
api-ms-win-core-libraryloader-l1-2-0.dll GetModuleHandleExW
api-ms-win-core-processthreads-l1-1-2.dll GetCurrentProcessId
api-ms-win-core-processthreads-l1-1-2.dll GetCurrentProcess
api-ms-win-core-processthreads-l1-1-2.dll GetCurrentThreadId
api-ms-win-core-processthreads-l1-1-2.dll IsProcessorFeaturePresent
api-ms-win-core-processthreads-l1-1-2.dll TerminateProcess
api-ms-win-core-localization-l1-2-1.dll FormatMessageW
api-ms-win-core-debug-l1-1-1.dll OutputDebugStringW
api-ms-win-core-debug-l1-1-1.dll IsDebuggerPresent
api-ms-win-core-string-l1-1-0.dll WideCharToMultiByte
api-ms-win-core-errorhandling-l1-1-1.dll GetLastError
api-ms-win-core-errorhandling-l1-1-1.dll UnhandledExceptionFilter
api-ms-win-core-errorhandling-l1-1-1.dll SetUnhandledExceptionFilter
api-ms-win-core-heap-l2-1-0.dll LocalFree
api-ms-win-core-profile-l1-1-0.dll QueryPerformanceCounter
api-ms-win-core-sysinfo-l1-2-1.dll GetSystemTimeAsFileTime
api-ms-win-core-interlocked-l1-2-0.dll InitializeSListHead
container.dll ??0ContainerDescription@container@@QEAA@XZ
container.dll ?Clear@ContainerDescription@container@@AEAAXXZ
container.dll ?Name@Setup@container@@YAAEAVNode@2@V?$basic_string@GU?$char_traits@G@std@@V?$allocator@G@2@@std@@@Z
container.dll ?MultiDelimitedStringData@Setup@container@@YAAEAVNode@2@V?$basic_string@GU?$char_traits@G@std@@V?$allocator@G@2@@std@@@Z
container.dll ?MkValue@Setup@container@@YAAEAVNode@2@XZ
container.dll ?MkDir@Setup@container@@YAAEAVNode@2@XZ
container.dll ?Data@Setup@container@@YAAEAVNode@2@V?$basic_string@GU?$char_traits@G@std@@V?$allocator@G@2@@std@@@Z
container.dll ?Data@Setup@container@@YAAEAVNode@2@K@Z
container.dll ?CloneSd@Setup@container@@YAAEAVNode@2@V?$basic_string@GU?$char_traits@G@std@@V?$allocator@G@2@@std@@@Z
container.dll ?MkHiv@Setup@container@@YAAEAVNode@2@XZ
container.dll ?MkKey@Setup@container@@YAAEAVNode@2@XZ
container.dll ?Merge@Registry@container@@YAAEAVNode@2@XZ
container.dll ?Name@Registry@container@@YAAEAVNode@2@V?$basic_string@GU?$char_traits@G@std@@V?$allocator@G@2@@std@@@Z
container.dll ?CopyOnWritePolicy@Registry@container@@YAAEAVNode@2@XZ
container.dll ?MultiDelimitedStringData@Registry@container@@YAAEAVNode@2@V?$basic_string@GU?$char_traits@G@std@@V?$allocator@G@2@@std@@@Z
container.dll ?ReadOnly@Registry@container@@YAAEAVNode@2@_N@Z
container.dll ?Directives@Registry@container@@YAAEAVNode@2@XZ
container.dll ?Path@Registry@container@@YAAEAVNode@2@V?$basic_string@GU?$char_traits@G@std@@V?$allocator@G@2@@std@@@Z
container.dll ?Symlink@Registry@container@@YAAEAVNode@2@XZ
container.dll ?MkValue@Registry@container@@YAAEAVNode@2@XZ
container.dll ?AccessMask@Registry@container@@YAAEAVNode@2@I@Z
container.dll ?Permit@Registry@container@@YAAEAVNode@2@V?$basic_string@GU?$char_traits@G@std@@V?$allocator@G@2@@std@@@Z
container.dll ?Data@Registry@container@@YAAEAVNode@2@AEBV?$vector@EV?$allocator@E@std@@@std@@@Z
container.dll ?Data@Registry@container@@YAAEAVNode@2@V?$basic_string@GU?$char_traits@G@std@@V?$allocator@G@2@@std@@@Z
container.dll ?Data@Registry@container@@YAAEAVNode@2@K@Z
container.dll ?Target@Registry@container@@YAAEAVNode@2@V?$basic_string@GU?$char_traits@G@std@@V?$allocator@G@2@@std@@@Z
container.dll ?Alias@Registry@container@@YAAEAVNode@2@V?$basic_string@GU?$char_traits@G@std@@V?$allocator@G@2@@std@@@Z
container.dll ?Load@Registry@container@@YAAEAVNode@2@XZ
container.dll ?LinkHive@Registry@container@@YAAEAVNode@2@V?$basic_string@GU?$char_traits@G@std@@V?$allocator@G@2@@std@@@Z
container.dll ?CloneSd@Registry@container@@YAAEAVNode@2@V?$basic_string@GU?$char_traits@G@std@@V?$allocator@G@2@@std@@@Z
container.dll ?Suppress@Registry@container@@YAAEAVNode@2@V?$basic_string@GU?$char_traits@G@std@@V?$allocator@G@2@@std@@@Z
container.dll ?DeleteSemantics@Registry@container@@YAAEAVNode@2@_N@Z
container.dll ?Key@Registry@container@@YAAEAVNode@2@V?$basic_string@GU?$char_traits@G@std@@V?$allocator@G@2@@std@@@Z
container.dll ?Key@Registry@container@@YAAEAVNode@2@XZ
container.dll ?TransactionsDisabled@Registry@container@@YAAEAVNode@2@_N@Z
container.dll ?MkKey@Registry@container@@YAAEAVNode@2@XZ
container.dll ?Junction@Registry@container@@YAAEAVNode@2@V?$basic_string@GU?$char_traits@G@std@@V?$allocator@G@2@@std@@@Z
container.dll ?Flags@Registry@container@@YAAEAVNode@2@I@Z
container.dll ?Compartment@Network@container@@YAAEAVNode@2@V?$basic_string@GU?$char_traits@G@std@@V?$allocator@G@2@@std@@@Z
container.dll ?Merge@Filesystem@container@@YAAEAVNode@2@XZ
container.dll ?Name@Filesystem@container@@YAAEAVNode@2@V?$basic_string@GU?$char_traits@G@std@@V?$allocator@G@2@@std@@@Z
container.dll ?ShortName@Filesystem@container@@YAAEAVNode@2@V?$basic_string@GU?$char_traits@G@std@@V?$allocator@G@2@@std@@@Z
container.dll ?Directives@Filesystem@container@@YAAEAVNode@2@XZ
container.dll ?Path@Filesystem@container@@YAAEAVNode@2@V?$basic_string@GU?$char_traits@G@std@@V?$allocator@G@2@@std@@@Z
container.dll ?Directory@Filesystem@container@@YAAEAVNode@2@XZ
container.dll ?Volume@Filesystem@container@@YAAEAVNode@2@V?$basic_string@GU?$char_traits@G@std@@V?$allocator@G@2@@std@@@Z
container.dll ?AccessMask@Filesystem@container@@YAAEAVNode@2@I@Z
container.dll ?Permit@Filesystem@container@@YAAEAVNode@2@V?$basic_string@GU?$char_traits@G@std@@V?$allocator@G@2@@std@@@Z
container.dll ?Suppress@Filesystem@container@@YAAEAVNode@2@V?$basic_string@GU?$char_traits@G@std@@V?$allocator@G@2@@std@@@Z
container.dll ?DeleteSemantics@Filesystem@container@@YAAEAVNode@2@_N@Z
container.dll ?File@Filesystem@container@@YAAEAVNode@2@XZ
container.dll ?Junction@Filesystem@container@@YAAEAVNode@2@V?$basic_string@GU?$char_traits@G@std@@V?$allocator@G@2@@std@@@Z
container.dll ?Layer@Filesystem2@container@@YAAEAVNode@2@XZ
container.dll ?Path@Filesystem2@container@@YAAEAVNode@2@V?$basic_string@GU?$char_traits@G@std@@V?$allocator@G@2@@std@@@Z
container.dll ?Identifier@Filesystem2@container@@YAAEAVNode@2@U_GUID@@@Z
container.dll ?GetContainerIdentifierString@container@@YA?AV?$basic_string@GU?$char_traits@G@std@@V?$allocator@G@2@@std@@PEAX@Z
container.dll ?Rate@Job@container@@YAAEAVNode@2@I@Z
container.dll ?Cpu@Job@container@@YAAEAVNode@2@XZ
container.dll ?Memory@Job@container@@YAAEAVNode@2@XZ
container.dll ?Weight@Job@container@@YAAEAVNode@2@I@Z
container.dll ?GetCurrentVolume@container@@YA?AV?$basic_string@GU?$char_traits@G@std@@V?$allocator@G@2@@std@@XZ
container.dll ?LogException@container@@YAXAEBV?$basic_string@GU?$char_traits@G@std@@V?$allocator@G@2@@std@@0KJ@Z
container.dll ?ShadowDirectory@ObjectManager@container@@YAAEAVNode@2@W4ShadowOption@12@@Z
container.dll ?CloneSd@ObjectManager@container@@YAAEAVNode@2@V?$basic_string@GU?$char_traits@G@std@@V?$allocator@G@2@@std@@@Z
container.dll ?Scope@ObjectManager@container@@YAAEAVNode@2@W4SymlinkScope@12@@Z
container.dll ?AccessMask@ObjectManager@container@@YAAEAVNode@2@I@Z
container.dll ?Symlink@ObjectManager@container@@YAAEAVNode@2@XZ
container.dll ?Path@ObjectManager@container@@YAAEAVNode@2@V?$basic_string@GU?$char_traits@G@std@@V?$allocator@G@2@@std@@@Z
container.dll ?Name@ObjectManager@container@@YAAEAVNode@2@V?$basic_string@GU?$char_traits@G@std@@V?$allocator@G@2@@std@@@Z
container.dll ?Dir@ObjectManager@container@@YAAEAVNode@2@XZ
container.dll ?Path@MountManager@container@@YAAEAVNode@2@V?$basic_string@GU?$char_traits@G@std@@V?$allocator@G@2@@std@@@Z
container.dll ?MountPoint@MountManager@container@@YAAEAVNode@2@XZ
container.dll ?Name@MountManager@container@@YAAEAVNode@2@V?$basic_string@GU?$char_traits@G@std@@V?$allocator@G@2@@std@@@Z
container.dll ?MkKey@Registry2@container@@YAAEAVNode@2@XZ
container.dll ?Identifier@Registry2@container@@YAAEAVNode@2@U_GUID@@@Z
container.dll ?Key@Registry2@container@@YAAEAVNode@2@V?$basic_string@GU?$char_traits@G@std@@V?$allocator@G@2@@std@@@Z
container.dll ?CloneSd@Registry2@container@@YAAEAVNode@2@V?$basic_string@GU?$char_traits@G@std@@V?$allocator@G@2@@std@@@Z
container.dll ?FilePath@Registry2@container@@YAAEAVNode@2@V?$basic_string@GU?$char_traits@G@std@@V?$allocator@G@2@@std@@@Z
container.dll ?Immutable@Registry2@container@@YAAEAVNode@2@_N@Z
container.dll ?Target@Registry2@container@@YAAEAVNode@2@V?$basic_string@GU?$char_traits@G@std@@V?$allocator@G@2@@std@@@Z
container.dll ?Data@Registry2@container@@YAAEAVNode@2@AEBV?$vector@EV?$allocator@E@std@@@std@@@Z
container.dll ?Data@Registry2@container@@YAAEAVNode@2@V?$basic_string@GU?$char_traits@G@std@@V?$allocator@G@2@@std@@@Z
container.dll ?Data@Registry2@container@@YAAEAVNode@2@K@Z
container.dll ?AccessMask@Registry2@container@@YAAEAVNode@2@I@Z
container.dll ?MkValue@Registry2@container@@YAAEAVNode@2@XZ
container.dll ?Symlink@Registry2@container@@YAAEAVNode@2@XZ
container.dll ?ReadOnly@Registry2@container@@YAAEAVNode@2@_N@Z
container.dll ?Layer@Registry2@container@@YAAEAVNode@2@XZ
container.dll ?Hive@Registry2@container@@YAAEAVNode@2@V?$basic_string@GU?$char_traits@G@std@@V?$allocator@G@2@@std@@@Z
container.dll ?MultiDelimitedStringData@Registry2@container@@YAAEAVNode@2@V?$basic_string@GU?$char_traits@G@std@@V?$allocator@G@2@@std@@@Z
container.dll ?HiveStack@Registry2@container@@YAAEAVNode@2@XZ
container.dll ?HiveStack@Registry2@container@@YAAEAVNode@2@V?$basic_string@GU?$char_traits@G@std@@V?$allocator@G@2@@std@@@Z
container.dll ?HostPath@Registry2@container@@YAAEAVNode@2@V?$basic_string@GU?$char_traits@G@std@@V?$allocator@G@2@@std@@@Z
container.dll ?ContainerPath@Registry2@container@@YAAEAVNode@2@V?$basic_string@GU?$char_traits@G@std@@V?$allocator@G@2@@std@@@Z
container.dll ?HostHive@Registry2@container@@YAAEAVNode@2@V?$basic_string@GU?$char_traits@G@std@@V?$allocator@G@2@@std@@@Z
container.dll ?TrustedHive@Registry2@container@@YAAEAVNode@2@_N@Z
container.dll ?InheritTrustClass@Registry2@container@@YAAEAVNode@2@_N@Z
container.dll ?RedirectionNode@Registry2@container@@YAAEAVNode@2@XZ
container.dll ?Name@Registry2@container@@YAAEAVNode@2@V?$basic_string@GU?$char_traits@G@std@@V?$allocator@G@2@@std@@@Z
