msvcp_win.dll ?write@?$basic_ostream@DU?$char_traits@D@std@@@std@@QEAAAEAV12@PEBD_J@Z
msvcp_win.dll ?gcount@?$basic_istream@DU?$char_traits@D@std@@@std@@QEBA_JXZ
msvcp_win.dll ?read@?$basic_istream@DU?$char_traits@D@std@@@std@@QEAAAEAV12@PEAD_J@Z
msvcp_win.dll ?eof@ios_base@std@@QEBA_NXZ
msvcp_win.dll ?_Xbad_function_call@std@@YAXXZ
msvcp_win.dll ?__ExceptionPtrCreate@@YAXPEAX@Z
msvcp_win.dll ?__ExceptionPtrCurrentException@@YAXPEAX@Z
msvcp_win.dll ?__ExceptionPtrRethrow@@YAXPEBX@Z
msvcp_win.dll ?__ExceptionPtrDestroy@@YAXPEAX@Z
msvcp_win.dll ?__ExceptionPtrCopy@@YAXPEAXPEBX@Z
msvcp_win.dll ??6?$basic_ostream@DU?$char_traits@D@std@@@std@@QEAAAEAV01@I@Z
msvcp_win.dll ??0?$basic_iostream@DU?$char_traits@D@std@@@std@@QEAA@PEAV?$basic_streambuf@DU?$char_traits@D@std@@@1@@Z
msvcp_win.dll ?setp@?$basic_streambuf@DU?$char_traits@D@std@@@std@@IEAAXPEAD00@Z
msvcp_win.dll ?setp@?$basic_streambuf@DU?$char_traits@D@std@@@std@@IEAAXPEAD0@Z
msvcp_win.dll ?epptr@?$basic_streambuf@DU?$char_traits@D@std@@@std@@IEBAPEADXZ
msvcp_win.dll ?setg@?$basic_streambuf@DU?$char_traits@D@std@@@std@@IEAAXPEAD00@Z
msvcp_win.dll ?egptr@?$basic_streambuf@DU?$char_traits@D@std@@@std@@IEBAPEADXZ
msvcp_win.dll ?pbase@?$basic_streambuf@DU?$char_traits@D@std@@@std@@IEBAPEADXZ
msvcp_win.dll ?eback@?$basic_streambuf@DU?$char_traits@D@std@@@std@@IEBAPEADXZ
msvcp_win.dll ??0?$basic_ios@DU?$char_traits@D@std@@@std@@IEAA@XZ
msvcp_win.dll ?fill@?$basic_ios@DU?$char_traits@D@std@@@std@@QEBADXZ
msvcp_win.dll ?rdbuf@?$basic_ios@DU?$char_traits@D@std@@@std@@QEBAPEAV?$basic_streambuf@DU?$char_traits@D@std@@@2@XZ
msvcp_win.dll ?setstate@?$basic_ios@DU?$char_traits@D@std@@@std@@QEAAXH_N@Z
msvcp_win.dll ?flush@?$basic_ostream@DU?$char_traits@D@std@@@std@@QEAAAEAV12@XZ
msvcp_win.dll ?_Osfx@?$basic_ostream@DU?$char_traits@D@std@@@std@@QEAAXXZ
msvcp_win.dll ??0?$basic_streambuf@DU?$char_traits@D@std@@@std@@IEAA@XZ
msvcp_win.dll ?tie@?$basic_ios@DU?$char_traits@D@std@@@std@@QEBAPEAV?$basic_ostream@DU?$char_traits@D@std@@@2@XZ
msvcp_win.dll ?sputn@?$basic_streambuf@DU?$char_traits@D@std@@@std@@QEAA_JPEBD_J@Z
msvcp_win.dll ?imbue@?$basic_streambuf@DU?$char_traits@D@std@@@std@@MEAAXAEBVlocale@2@@Z
msvcp_win.dll ?setbuf@?$basic_streambuf@DU?$char_traits@D@std@@@std@@MEAAPEAV12@PEAD_J@Z
msvcp_win.dll ?xsgetn@?$basic_streambuf@DU?$char_traits@D@std@@@std@@MEAA_JPEAD_J@Z
msvcp_win.dll ?uflow@?$basic_streambuf@DU?$char_traits@D@std@@@std@@MEAAHXZ
msvcp_win.dll ?showmanyc@?$basic_streambuf@DU?$char_traits@D@std@@@std@@MEAA_JXZ
msvcp_win.dll ?xsputn@?$basic_streambuf@DU?$char_traits@D@std@@@std@@MEAA_JPEBD_J@Z
msvcp_win.dll ?sync@?$basic_streambuf@DU?$char_traits@D@std@@@std@@MEAAHXZ
msvcp_win.dll ?_Lock@?$basic_streambuf@DU?$char_traits@D@std@@@std@@UEAAXXZ
msvcp_win.dll ?_Unlock@?$basic_streambuf@DU?$char_traits@D@std@@@std@@UEAAXXZ
msvcp_win.dll ?width@ios_base@std@@QEBA_JXZ
msvcp_win.dll ?width@ios_base@std@@QEAA_J_J@Z
msvcp_win.dll ?sputc@?$basic_streambuf@DU?$char_traits@D@std@@@std@@QEAAHD@Z
msvcp_win.dll ?flags@ios_base@std@@QEBAHXZ
msvcp_win.dll ?good@ios_base@std@@QEBA_NXZ
msvcp_win.dll ?uncaught_exception@std@@YA_NXZ
msvcp_win.dll ??1?$basic_streambuf@DU?$char_traits@D@std@@@std@@UEAA@XZ
msvcp_win.dll ?_Pninc@?$basic_streambuf@DU?$char_traits@D@std@@@std@@IEAAPEADXZ
msvcp_win.dll ?pbump@?$basic_streambuf@DU?$char_traits@D@std@@@std@@IEAAXH@Z
msvcp_win.dll ?gbump@?$basic_streambuf@DU?$char_traits@D@std@@@std@@IEAAXH@Z
msvcp_win.dll ?gptr@?$basic_streambuf@DU?$char_traits@D@std@@@std@@IEBAPEADXZ
msvcp_win.dll ?pptr@?$basic_streambuf@DU?$char_traits@D@std@@@std@@IEBAPEADXZ
msvcp_win.dll ??1?$basic_iostream@DU?$char_traits@D@std@@@std@@UEAA@XZ
msvcp_win.dll ??1?$basic_ios@DU?$char_traits@D@std@@@std@@UEAA@XZ
msvcp_win.dll ??0?$basic_iostream@GU?$char_traits@G@std@@@std@@QEAA@PEAV?$basic_streambuf@GU?$char_traits@G@std@@@1@@Z
msvcp_win.dll ?setp@?$basic_streambuf@GU?$char_traits@G@std@@@std@@IEAAXPEAG00@Z
msvcp_win.dll ?setp@?$basic_streambuf@GU?$char_traits@G@std@@@std@@IEAAXPEAG0@Z
msvcp_win.dll ?epptr@?$basic_streambuf@GU?$char_traits@G@std@@@std@@IEBAPEAGXZ
msvcp_win.dll ?setg@?$basic_streambuf@GU?$char_traits@G@std@@@std@@IEAAXPEAG00@Z
msvcp_win.dll ?egptr@?$basic_streambuf@GU?$char_traits@G@std@@@std@@IEBAPEAGXZ
msvcp_win.dll ?pbase@?$basic_streambuf@GU?$char_traits@G@std@@@std@@IEBAPEAGXZ
msvcp_win.dll ?eback@?$basic_streambuf@GU?$char_traits@G@std@@@std@@IEBAPEAGXZ
msvcp_win.dll ?_Winerror_message@std@@YAKKPEADK@Z
msvcp_win.dll ?_Xout_of_range@std@@YAXPEBD@Z
msvcp_win.dll ??0?$basic_ios@GU?$char_traits@G@std@@@std@@IEAA@XZ
msvcp_win.dll ??0?$basic_streambuf@GU?$char_traits@G@std@@@std@@IEAA@XZ
msvcp_win.dll ?imbue@?$basic_streambuf@GU?$char_traits@G@std@@@std@@MEAAXAEBVlocale@2@@Z
msvcp_win.dll ?setbuf@?$basic_streambuf@GU?$char_traits@G@std@@@std@@MEAAPEAV12@PEAG_J@Z
msvcp_win.dll ?xsputn@?$basic_streambuf@GU?$char_traits@G@std@@@std@@MEAA_JPEBG_J@Z
msvcp_win.dll ?xsgetn@?$basic_streambuf@GU?$char_traits@G@std@@@std@@MEAA_JPEAG_J@Z
msvcp_win.dll ?showmanyc@?$basic_streambuf@GU?$char_traits@G@std@@@std@@MEAA_JXZ
msvcp_win.dll ?_Lock@?$basic_streambuf@GU?$char_traits@G@std@@@std@@UEAAXXZ
msvcp_win.dll ?_Unlock@?$basic_streambuf@GU?$char_traits@G@std@@@std@@UEAAXXZ
msvcp_win.dll ?sync@?$basic_streambuf@GU?$char_traits@G@std@@@std@@MEAAHXZ
msvcp_win.dll ?uflow@?$basic_streambuf@GU?$char_traits@G@std@@@std@@MEAAGXZ
msvcp_win.dll ?sbumpc@?$basic_streambuf@GU?$char_traits@G@std@@@std@@QEAAGXZ
msvcp_win.dll ?sgetc@?$basic_streambuf@GU?$char_traits@G@std@@@std@@QEAAGXZ
msvcp_win.dll ?snextc@?$basic_streambuf@GU?$char_traits@G@std@@@std@@QEAAGXZ
msvcp_win.dll ?rdbuf@?$basic_ios@GU?$char_traits@G@std@@@std@@QEBAPEAV?$basic_streambuf@GU?$char_traits@G@std@@@2@XZ
msvcp_win.dll ?_Ipfx@?$basic_istream@GU?$char_traits@G@std@@@std@@QEAA_N_N@Z
msvcp_win.dll ?setstate@?$basic_ios@GU?$char_traits@G@std@@@std@@QEAAXH_N@Z
msvcp_win.dll ??1?$basic_streambuf@GU?$char_traits@G@std@@@std@@UEAA@XZ
msvcp_win.dll ?_Pninc@?$basic_streambuf@GU?$char_traits@G@std@@@std@@IEAAPEAGXZ
msvcp_win.dll ?pbump@?$basic_streambuf@GU?$char_traits@G@std@@@std@@IEAAXH@Z
msvcp_win.dll ?gbump@?$basic_streambuf@GU?$char_traits@G@std@@@std@@IEAAXH@Z
msvcp_win.dll ?gptr@?$basic_streambuf@GU?$char_traits@G@std@@@std@@IEBAPEAGXZ
msvcp_win.dll ?_BADOFF@std@@3_JB
msvcp_win.dll ?pptr@?$basic_streambuf@GU?$char_traits@G@std@@@std@@IEBAPEAGXZ
msvcp_win.dll ??1?$basic_iostream@GU?$char_traits@G@std@@@std@@UEAA@XZ
msvcp_win.dll ??1?$basic_ios@GU?$char_traits@G@std@@@std@@UEAA@XZ
msvcp_win.dll ?fail@ios_base@std@@QEBA_NXZ
msvcp_win.dll ??Bios_base@std@@QEBA_NXZ
msvcp_win.dll ?_Syserror_map@std@@YAPEBDH@Z
msvcp_win.dll ?_Xlength_error@std@@YAXPEBD@Z
msvcp_win.dll ?_Winerror_map@std@@YAHH@Z
msvcp_win.dll ?_Xbad_alloc@std@@YAXXZ
api-ms-win-crt-runtime-l1-1-0.dll _initterm
api-ms-win-crt-runtime-l1-1-0.dll _initterm_e
api-ms-win-crt-private-l1-1-0.dll _o__purecall
api-ms-win-crt-private-l1-1-0.dll _o__register_onexit_function
api-ms-win-crt-private-l1-1-0.dll _o__seh_filter_dll
api-ms-win-crt-private-l1-1-0.dll _o__stricmp
api-ms-win-crt-private-l1-1-0.dll _o__wcsicmp
api-ms-win-crt-private-l1-1-0.dll _o__wcsnicmp
api-ms-win-crt-private-l1-1-0.dll _o_acos
api-ms-win-crt-private-l1-1-0.dll _o_atan2
api-ms-win-crt-private-l1-1-0.dll _o_bsearch
api-ms-win-crt-private-l1-1-0.dll _o_ceil
api-ms-win-crt-private-l1-1-0.dll _o_cos
api-ms-win-crt-private-l1-1-0.dll _o_floorf
api-ms-win-crt-private-l1-1-0.dll _o_fmod
api-ms-win-crt-private-l1-1-0.dll _o_fmodf
api-ms-win-crt-private-l1-1-0.dll _o_free
api-ms-win-crt-private-l1-1-0.dll memcpy
api-ms-win-crt-private-l1-1-0.dll _o_malloc
api-ms-win-crt-private-l1-1-0.dll _o_memset
api-ms-win-crt-private-l1-1-0.dll _o_pow
api-ms-win-crt-private-l1-1-0.dll _o_sqrt
api-ms-win-crt-private-l1-1-0.dll _o_sqrtf
api-ms-win-crt-private-l1-1-0.dll _o_tanf
api-ms-win-crt-private-l1-1-0.dll _o_terminate
api-ms-win-crt-private-l1-1-0.dll __C_specific_handler
api-ms-win-crt-private-l1-1-0.dll __CxxFrameHandler3
api-ms-win-crt-private-l1-1-0.dll _CxxThrowException
api-ms-win-crt-private-l1-1-0.dll _o__invalid_parameter_noinfo_noreturn
api-ms-win-crt-private-l1-1-0.dll _o__invalid_parameter_noinfo
api-ms-win-crt-private-l1-1-0.dll _o__initialize_onexit_table
api-ms-win-crt-private-l1-1-0.dll _o__initialize_narrow_environment
api-ms-win-crt-private-l1-1-0.dll _o__execute_onexit_table
api-ms-win-crt-private-l1-1-0.dll _o__errno
api-ms-win-crt-private-l1-1-0.dll _o__crt_atexit
api-ms-win-crt-private-l1-1-0.dll _o__configure_narrow_argv
api-ms-win-crt-private-l1-1-0.dll _o__cexit
api-ms-win-crt-private-l1-1-0.dll _o__callnewh
api-ms-win-crt-private-l1-1-0.dll _o___stdio_common_vswprintf_s
api-ms-win-crt-private-l1-1-0.dll _o___stdio_common_vswprintf
api-ms-win-crt-private-l1-1-0.dll _o___stdio_common_vsnprintf_s
api-ms-win-crt-private-l1-1-0.dll _o___std_type_info_destroy_list
api-ms-win-crt-private-l1-1-0.dll _o___std_exception_destroy
api-ms-win-crt-private-l1-1-0.dll _o___std_exception_copy
api-ms-win-crt-private-l1-1-0.dll __std_type_info_compare
api-ms-win-crt-private-l1-1-0.dll __std_terminate
api-ms-win-crt-private-l1-1-0.dll memmove
api-ms-win-crt-private-l1-1-0.dll _o__itow_s
api-ms-win-core-winrt-l1-1-0.dll RoActivateInstance
api-ms-win-core-winrt-l1-1-0.dll RoGetActivationFactory
api-ms-win-core-winrt-string-l1-1-0.dll WindowsDeleteString
api-ms-win-core-winrt-string-l1-1-0.dll WindowsGetStringRawBuffer
api-ms-win-core-winrt-string-l1-1-0.dll WindowsCreateStringReference
api-ms-win-core-libraryloader-l1-2-0.dll FreeLibrary
api-ms-win-core-libraryloader-l1-2-0.dll GetModuleHandleW
api-ms-win-core-libraryloader-l1-2-0.dll LoadStringW
api-ms-win-core-libraryloader-l1-2-0.dll DisableThreadLibraryCalls
api-ms-win-core-libraryloader-l1-2-0.dll GetModuleHandleExW
api-ms-win-core-libraryloader-l1-2-0.dll LoadResource
api-ms-win-core-libraryloader-l1-2-0.dll GetProcAddress
api-ms-win-core-libraryloader-l1-2-0.dll GetModuleFileNameA
api-ms-win-core-libraryloader-l1-2-0.dll FreeLibraryAndExitThread
api-ms-win-core-libraryloader-l1-2-0.dll LoadLibraryExW
api-ms-win-core-libraryloader-l1-2-0.dll FindResourceExW
api-ms-win-core-synch-l1-2-0.dll ReleaseMutex
api-ms-win-core-synch-l1-2-0.dll OpenSemaphoreW
api-ms-win-core-synch-l1-2-0.dll CreateMutexExW
api-ms-win-core-synch-l1-2-0.dll DeleteCriticalSection
api-ms-win-core-synch-l1-2-0.dll WaitForSingleObject
api-ms-win-core-synch-l1-2-0.dll ReleaseSemaphore
api-ms-win-core-synch-l1-2-0.dll WaitForSingleObjectEx
api-ms-win-core-synch-l1-2-0.dll Sleep
api-ms-win-core-synch-l1-2-0.dll InitializeCriticalSection
api-ms-win-core-synch-l1-2-0.dll CreateEventW
api-ms-win-core-synch-l1-2-0.dll SetWaitableTimer
api-ms-win-core-synch-l1-2-0.dll CreateWaitableTimerExW
api-ms-win-core-synch-l1-2-0.dll SetEvent
api-ms-win-core-synch-l1-2-0.dll EnterCriticalSection
api-ms-win-core-synch-l1-2-0.dll LeaveCriticalSection
api-ms-win-core-synch-l1-2-0.dll CreateSemaphoreExW
api-ms-win-core-synch-l1-2-0.dll InitializeCriticalSectionEx
api-ms-win-core-synch-l1-2-0.dll CreateEventExW
api-ms-win-core-synch-l1-2-0.dll AcquireSRWLockShared
api-ms-win-core-synch-l1-2-0.dll ReleaseSRWLockShared
api-ms-win-core-synch-l1-2-0.dll ReleaseSRWLockExclusive
api-ms-win-core-synch-l1-2-0.dll AcquireSRWLockExclusive
api-ms-win-core-synch-l1-2-0.dll InitializeSRWLock
api-ms-win-core-heap-l1-2-0.dll HeapFree
api-ms-win-core-heap-l1-2-0.dll GetProcessHeap
api-ms-win-core-heap-l1-2-0.dll HeapAlloc
api-ms-win-core-errorhandling-l1-1-1.dll SetUnhandledExceptionFilter
api-ms-win-core-errorhandling-l1-1-1.dll SetLastError
api-ms-win-core-errorhandling-l1-1-1.dll UnhandledExceptionFilter
api-ms-win-core-errorhandling-l1-1-1.dll RaiseException
api-ms-win-core-errorhandling-l1-1-1.dll GetLastError
api-ms-win-core-processthreads-l1-1-2.dll CreateThread
api-ms-win-core-processthreads-l1-1-2.dll GetCurrentThreadId
api-ms-win-core-processthreads-l1-1-2.dll IsProcessorFeaturePresent
api-ms-win-core-processthreads-l1-1-2.dll TerminateProcess
api-ms-win-core-processthreads-l1-1-2.dll GetCurrentProcessId
api-ms-win-core-processthreads-l1-1-2.dll GetCurrentProcess
api-ms-win-core-processthreads-l1-1-2.dll GetCurrentThread
api-ms-win-core-localization-l1-2-1.dll GetUserPreferredUILanguages
api-ms-win-core-localization-l1-2-1.dll GetLocaleInfoW
api-ms-win-core-localization-l1-2-1.dll FormatMessageW
api-ms-win-core-debug-l1-1-1.dll IsDebuggerPresent
api-ms-win-core-debug-l1-1-1.dll OutputDebugStringW
api-ms-win-core-handle-l1-1-0.dll CloseHandle
api-ms-win-eventing-provider-l1-1-0.dll EventWrite
api-ms-win-eventing-provider-l1-1-0.dll EventSetInformation
api-ms-win-eventing-provider-l1-1-0.dll EventUnregister
api-ms-win-eventing-provider-l1-1-0.dll EventWriteTransfer
api-ms-win-eventing-provider-l1-1-0.dll EventRegister
api-ms-win-core-registry-l1-1-0.dll RegQueryValueExW
api-ms-win-core-registry-l1-1-0.dll RegCloseKey
api-ms-win-core-registry-l1-1-0.dll RegOpenKeyExW
api-ms-win-core-registry-l1-1-0.dll RegGetValueW
api-ms-win-core-sysinfo-l1-2-1.dll GetVersionExW
api-ms-win-core-sysinfo-l1-2-1.dll GetSystemInfo
api-ms-win-core-sysinfo-l1-2-1.dll GetTickCount64
api-ms-win-core-sysinfo-l1-2-1.dll GetSystemTimeAsFileTime
api-ms-win-core-com-l1-1-1.dll CoTaskMemFree
api-ms-win-core-com-l1-1-1.dll CoCreateInstance
api-ms-win-core-com-l1-1-1.dll CoTaskMemAlloc
api-ms-win-core-synch-l1-2-1.dll WaitForMultipleObjects
api-ms-win-core-path-l1-1-0.dll PathCchAppend
api-ms-win-core-path-l1-1-0.dll PathCchCombine
api-ms-win-core-path-l1-1-0.dll PathCchCanonicalize
api-ms-win-core-profile-l1-1-0.dll QueryPerformanceFrequency
api-ms-win-core-profile-l1-1-0.dll QueryPerformanceCounter
api-ms-win-core-timezone-l1-1-0.dll GetTimeZoneInformation
api-ms-win-core-winrt-error-l1-1-1.dll RoFailFastWithErrorContext
api-ms-win-core-winrt-error-l1-1-1.dll RoReportUnhandledError
api-ms-win-core-winrt-error-l1-1-1.dll GetRestrictedErrorInfo
api-ms-win-core-winrt-error-l1-1-1.dll RoOriginateError
api-ms-win-core-threadpool-l1-2-0.dll CloseThreadpoolTimer
api-ms-win-core-threadpool-l1-2-0.dll WaitForThreadpoolTimerCallbacks
api-ms-win-core-threadpool-l1-2-0.dll CreateThreadpoolTimer
api-ms-win-core-threadpool-l1-2-0.dll SetThreadpoolTimer
api-ms-win-core-threadpool-l1-2-0.dll IsThreadpoolTimerSet
api-ms-win-core-heap-l2-1-0.dll LocalAlloc
api-ms-win-core-heap-l2-1-0.dll LocalReAlloc
api-ms-win-core-heap-l2-1-0.dll LocalFree
api-ms-win-core-file-l1-2-1.dll CreateDirectoryW
api-ms-win-core-file-l1-2-1.dll CreateFileW
api-ms-win-core-file-l1-2-1.dll DeleteFileW
api-ms-win-core-file-l1-2-1.dll GetFileInformationByHandle
api-ms-win-core-file-l1-2-1.dll GetFileSize
api-ms-win-core-string-l1-1-0.dll CompareStringOrdinal
api-ms-win-core-rtlsupport-l1-2-0.dll RtlLookupFunctionEntry
api-ms-win-core-rtlsupport-l1-2-0.dll RtlVirtualUnwind
api-ms-win-core-rtlsupport-l1-2-0.dll RtlCaptureContext
api-ms-win-core-interlocked-l1-2-0.dll InitializeSListHead
api-ms-win-core-threadpool-legacy-l1-1-0.dll QueueUserWorkItem
api-ms-win-core-processtopology-obsolete-l1-1-0.dll SetThreadAffinityMask
ntdll.dll RtlSubscribeWnfStateChangeNotification
ntdll.dll RtlQueryWnfStateData
ntdll.dll RtlUnsubscribeWnfNotificationWaitForCompletion
moshostclient.dll MosGetDataDirectory
moshostclient.dll MosHostOpen
moshostclient.dll MosHostClose
moshostclient.dll MosGetBrowseCacheSizeInMBytes
moshostclient.dll MosGetResourceDirectory
ztrace_maps.dll ZTraceInit
ztrace_maps.dll ZTraceClose
ztrace_maps.dll ZTraceReportPropagation
ztrace_maps.dll ZTraceReportIgnore
ztrace_maps.dll ZTraceReportOriginationNoThis
ztrace_maps.dll ZTraceReportPropagationNoThis
ztrace_maps.dll ZTraceHelperNoThis
ztrace_maps.dll ZTraceHelper
ztrace_maps.dll ZTraceReportOrigination
mos.dll ??9ngeo@@YA_NAEBVGeoCoordinates@0@0@Z
mos.dll ?set_color@BuildingAttributes@ngeo@@QEAA?AW4ErrorCode@2@W4ColorType@12@AEBVColor@2@@Z
mos.dll ?get_red@Color@ngeo@@QEBAEXZ
mos.dll ?get_green@Color@ngeo@@QEBAEXZ
mos.dll ?get_blue@Color@ngeo@@QEBAEXZ
mos.dll ??0Color@ngeo@@QEAA@EEEE@Z
mos.dll ?get_color@BuildingAttributes@ngeo@@QEBA?AW4ErrorCode@2@W4ColorType@12@AEAVColor@2@@Z
mos.dll ??0Color@ngeo@@QEAA@XZ
mos.dll ??0BuildingAttributes@ngeo@@QEAA@M@Z
mos.dll ?is_all_display_layer_groups_disabled@Map@ngeo@@QEBA_NXZ
mos.dll ?display_layer_groups@Map@ngeo@@QEAA?AW4ErrorCode@2@I@Z
mos.dll ?get_buffer@SoftwareSurface@ngeo@@QEBAPEAEXZ
mos.dll ?get_capture_surface@View@ngeo@@QEBAPEBVSurface@2@XZ
mos.dll ?capture@View@ngeo@@QEAA?AW4ErrorCode@2@XZ
mos.dll ?set_capture_surface@View@ngeo@@QEAA?AW4ErrorCode@2@PEBVSurface@2@@Z
mos.dll ??0SoftwareSurface@ngeo@@QEAA@PEAXW4PixelFormat@1@III@Z
mos.dll ?get_render_buffer@View@ngeo@@QEBAAEBVRenderBuffer@2@XZ
mos.dll ?get_native_pixel_format@Surface@ngeo@@SA?AW4PixelFormat@2@XZ
mos.dll ?remove_raster_tile_source@Map@ngeo@@QEAA?AW4ErrorCode@2@PEAVMapRasterTileSource@2@@Z
mos.dll ?add_raster_tile_source@Map@ngeo@@QEAA?AW4ErrorCode@2@PEAVMapRasterTileSource@2@@Z
mos.dll ??9ngeo@@YA_NAEBVPixelCoordinates@0@0@Z
mos.dll ?to_geo@Map@ngeo@@QEBA?AVGeoCoordinates@2@AEBVPixelCoordinates@2@W4AltitudeMode@12@@Z
mos.dll ?to_pixel@Map@ngeo@@QEBA?AW4ErrorCode@2@AEBVGeoCoordinates@2@AEAVPixelCoordinates@2@AEA_NW4AltitudeMode@12@@Z
mos.dll ?to_pixel@Map@ngeo@@QEBA?AW4ErrorCode@2@AEBVGeoCoordinates@2@AEAVPixelCoordinates@2@W4AltitudeMode@12@@Z
mos.dll ?is_below_horizon@Map@ngeo@@QEBA_NAEBVPixelCoordinates@2@@Z
mos.dll ?is_close_to@PixelCoordinates@ngeo@@QEBA_NAEBV12@M@Z
mos.dll ?get_is_view_change_pending@Map@ngeo@@QEAA?AW4ErrorCode@2@PEA_N@Z
mos.dll ?add_listener@View@ngeo@@QEAA?AW4ErrorCode@2@PEAVViewListener@2@@Z
mos.dll ?display_pedestrian_features@Map@ngeo@@QEAA?AW4ErrorCode@2@_NW4PedestrianFeatureCategory@12@@Z
mos.dll ?remove_listener@View@ngeo@@QEAA?AW4ErrorCode@2@PEAVViewListener@2@@Z
mos.dll ??1MapListener@ngeo@@UEAA@XZ
mos.dll ?on_initialize_map_model_end@MapModelListener@ngeo@@UEAAXAEBVMapModelOptions@2@W4ErrorCode@2@@Z
mos.dll ?get_build_num@Version@ngeo@@QEBAIXZ
mos.dll ?get_feature_num@Version@ngeo@@QEBAIXZ
mos.dll ?get_minor_num@Version@ngeo@@QEBAIXZ
mos.dll ?get_major_num@Version@ngeo@@QEBAIXZ
mos.dll ??1DynamicPenalty@ngeo@@QEAA@XZ
mos.dll ??1RouteWaypoint@ngeo@@UEAA@XZ
mos.dll ??0DynamicPenalty@ngeo@@QEAA@XZ
mos.dll ?set_route_options@RoutePlan@ngeo@@QEAAXAEBVRouteOptions@2@@Z
mos.dll ?insert_stopover@RoutePlan@ngeo@@QEAA?AW4ErrorCode@2@AEBVRouteWaypoint@2@I@Z
mos.dll ??0RouteWaypoint@ngeo@@QEAA@AEBVLocation@1@W4Type@01@@Z
mos.dll ??1RoutePlan@ngeo@@QEAA@XZ
mos.dll ??0RoutePlan@ngeo@@QEAA@XZ
mos.dll ?on_size_changed@MapListener@ngeo@@UEAAXII@Z
mos.dll ?on_copyright_updated@MapListener@ngeo@@UEAAXAEBVustring@2@@Z
mos.dll ?on_move_end@MapListener@ngeo@@UEAAXAEBVGeoCoordinates@2@@Z
mos.dll ?on_move@MapListener@ngeo@@UEAAXAEBVGeoCoordinates@2@@Z
mos.dll ?on_move_start@MapListener@ngeo@@UEAAXAEBVGeoCoordinates@2@@Z
mos.dll ?on_perspective@MapListener@ngeo@@UEAAXM@Z
mos.dll ?on_orientation@MapListener@ngeo@@UEAAXM@Z
mos.dll ?on_scale_end@MapListener@ngeo@@UEAAXN@Z
mos.dll ?on_scale@MapListener@ngeo@@UEAAXN@Z
mos.dll ?on_scale_start@MapListener@ngeo@@UEAAXN@Z
mos.dll ?on_max_scale_changed@MapListener@ngeo@@UEAAXNN@Z
mos.dll ?on_automatic_minimum_zoom_level_changed@MapListener@ngeo@@UEAAXM@Z
mos.dll ?on_zoom_level_end@MapListener@ngeo@@UEAAXM@Z
mos.dll ?on_zoom_level@MapListener@ngeo@@UEAAXM@Z
mos.dll ?on_zoom_level_start@MapListener@ngeo@@UEAAXM@Z
mos.dll ?on_remove_object@MapListener@ngeo@@UEAAXAEBUMapObjectHandle@2@@Z
mos.dll ?on_add_object@MapListener@ngeo@@UEAAXAEBUMapObjectHandle@2@@Z
mos.dll ?on_pois_hide@MapListener@ngeo@@UEAAXPEBD@Z
mos.dll ?on_pois_show@MapListener@ngeo@@UEAAXPEBD@Z
mos.dll ?on_set_render_buffer_start@MapListener@ngeo@@UEAAXPEBVRenderBuffer@2@@Z
mos.dll ?on_configuration_scheme_changed@MapListener@ngeo@@UEAAXAEBVustring@2@@Z
mos.dll ?on_remove_all_objects@ViewListener@ngeo@@UEAAXXZ
mos.dll ?on_draw_blocking@ViewListener@ngeo@@UEAAXXZ
mos.dll ?on_get_object@ViewListener@ngeo@@UEAAXAEBUViewObjectHandle@2@@Z
mos.dll ?on_get_object_count@ViewListener@ngeo@@UEAAXI@Z
mos.dll ?get_version@Version@ngeo@@QEBA?AVustring@2@XZ
mos.dll ?is_valid@Version@ngeo@@QEBA_NXZ
mos.dll ?set_http_user_agent_header_value@Connection@ngeo@@QEAA?AW4ErrorCode@2@AEBVustring@2@@Z
mos.dll ??0RasterTileSourceBase@ngeo@@QEAA@XZ
mos.dll ?set_semantic_type@RasterTileSourceBase@ngeo@@QEAAXW4MapSemanticType@2@@Z
mos.dll ?set_z_order@RasterTileSourceBase@ngeo@@QEAAXI@Z
mos.dll ?set_visibility@RasterTileSourceBase@ngeo@@QEAAXW4Visibility@MapRasterTileSource@2@@Z
mos.dll ?set_transparency@RasterTileSourceBase@ngeo@@QEAAXW4Transparency@12@@Z
mos.dll ?enable_fallback@RasterTileSourceBase@ngeo@@QEAAX_N@Z
mos.dll ?enable_fading@RasterTileSourceBase@ngeo@@QEAAX_N@Z
mos.dll ?set_coordinate_shift@RasterTileSourceBase@ngeo@@QEAAX_N@Z
mos.dll ?set_bounding_area@RasterTileSourceBase@ngeo@@QEAAXVGeoRect@2@@Z
mos.dll ?set_tile_size@RasterTileSourceBase@ngeo@@QEAAXI@Z
mos.dll ?set_valid_zoom_levels@RasterTileSourceBase@ngeo@@QEAAXVZoomAttributes@2@@Z
mos.dll ?set_country@RasterTileSourceBase@ngeo@@QEAAXW4CountryEnum@2@@Z
mos.dll ?set_half_scaled@RasterTileSourceBase@ngeo@@QEAAX_N@Z
mos.dll ?is_half_scaled@MapRasterTileSource@ngeo@@QEBA_NXZ
mos.dll ?get_country@MapRasterTileSource@ngeo@@QEBA?AW4CountryEnum@2@XZ
mos.dll ?get_visibility@MapRasterTileSource@ngeo@@QEBA?AW4Visibility@12@XZ
mos.dll ?has_coordinate_shift@MapRasterTileSource@ngeo@@QEBA_NXZ
mos.dll ?get_z_order@MapRasterTileSource@ngeo@@QEBAIXZ
mos.dll ?get_tile_size@MapRasterTileSource@ngeo@@QEBAIXZ
mos.dll ?has_transparency@MapRasterTileSource@ngeo@@QEBA_NXZ
mos.dll ?is_fading_enabled@MapRasterTileSource@ngeo@@QEBA_NXZ
mos.dll ?is_fallback_enabled@MapRasterTileSource@ngeo@@QEBA_NXZ
mos.dll ?get_semantic_type@MapRasterTileSource@ngeo@@QEBA?AW4MapSemanticType@2@XZ
mos.dll ?get_bounding_area@MapRasterTileSource@ngeo@@QEBA?AVGeoRect@2@I@Z
mos.dll ?show_at@ZoomAttributes@ngeo@@QEAAXII@Z
mos.dll ?is_shown_at@ZoomAttributes@ngeo@@QEBA_NI@Z
mos.dll ?get_valid_zoom_levels@MapRasterTileSource@ngeo@@QEBA?AVZoomAttributes@2@XZ
mos.dll ??0ZoomAttributes@ngeo@@QEAA@W4Visibility@01@@Z
mos.dll ?release@RefCountable@internal@ngeo@@QEAAXXZ
mos.dll ?increment_ref_count@RefCountable@internal@ngeo@@QEAAX_N@Z
mos.dll ?decrement_ref_count@RefCountable@internal@ngeo@@QEAAH_N@Z
mos.dll ?get_size_in_bytes@MapRasterTileData@ngeo@@QEBAIXZ
mos.dll ?get_writable_ptr@MapRasterTileData@ngeo@@QEAAPEAEXZ
mos.dll ?create@MapRasterTileData@ngeo@@SA?AV?$SharedPointer@VMapRasterTileData@ngeo@@$0A@@2@IW4PixelFormat@2@I@Z
mos.dll ??AGeoPolyline@ngeo@@QEBAAEBVGeoCoordinates@1@_K@Z
mos.dll ?push_back@GeoPolyline@ngeo@@QEAAXAEBVGeoCoordinates@2@@Z
mos.dll ?reserve@GeoPolyline@ngeo@@QEAAX_K@Z
mos.dll ??0GeoPolyline@ngeo@@QEAA@XZ
mos.dll ??0GeoCoordinates@ngeo@@QEAA@AEBVIGeoCoordinates@msngeo@@@Z
mos.dll ??0GeoRect@ngeo@@QEAA@AEBVIGeoRect@msngeo@@@Z
mos.dll ?get_dataAttribution@MapModel@ngeo@@QEBA?AW4ErrorCode@2@AEAV?$basic_string@GU?$char_traits@G@std@@V?$allocator@G@2@@std@@@Z
mos.dll ?set_bing_authentication_key@MapModel@ngeo@@QEAA?AW4ErrorCode@2@AEBVustring@2@@Z
mos.dll ?set_application_id@Connection@ngeo@@QEAA?AW4ErrorCode@2@AEBVustring@2@@Z
mos.dll ??0ustring@ngeo@@QEAA@AEBV?$basic_string@GU?$char_traits@G@std@@V?$allocator@G@2@@std@@@Z
mos.dll ?set_application_code@Connection@ngeo@@QEAA?AW4ErrorCode@2@AEBVustring@2@@Z
mos.dll ?get_connection@MapModel@ngeo@@QEBA?AW4ErrorCode@2@AEAVConnection@2@@Z
mos.dll ??1Connection@ngeo@@QEAA@XZ
mos.dll ??0Connection@ngeo@@QEAA@XZ
mos.dll ?create_bmp_from_svg@util@ngeo@@YAPEAEPEAEIPEAI@Z
mos.dll ?get_image_type@util@ngeo@@YA?AW4ImageType@2@PEAEI@Z
mos.dll ??0ustring@ngeo@@QEAA@PEBG_K@Z
mos.dll ?on_internal_draw_end@MapListener@ngeo@@UEAAXXZ
mos.dll ?invalidate@View@ngeo@@QEAA?AW4ErrorCode@2@XZ
mos.dll ??1Identifier@ngeo@@QEAA@XZ
mos.dll ??0Identifier@ngeo@@QEAA@AEBV01@@Z
mos.dll ??AGeoPolyline@ngeo@@QEAAAEAVGeoCoordinates@1@_K@Z
mos.dll ?number_of_points@GeoPolyline@ngeo@@QEBA_KXZ
mos.dll ??0GeoPolygon@ngeo@@QEAA@XZ
mos.dll ?IGNORE_ORIENTATION@Map@ngeo@@2MB
mos.dll ?IGNORE_SCALE@Map@ngeo@@2NB
mos.dll ??1GeoPolygon@ngeo@@UEAA@XZ
mos.dll ??0GeoPolygon@ngeo@@QEAA@$$QEAV01@@Z
mos.dll ?get_length_m@GeoPolygon@ngeo@@UEBANXZ
mos.dll ?get_class_type@GeoPolygon@ngeo@@UEBA_JXZ
mos.dll ?is_valid@GeoPolygon@ngeo@@UEBA_NXZ
mos.dll ?bbox@GeoPolyline@ngeo@@UEBA?AVGeoRect@2@XZ
mos.dll ?contains@GeoPolygon@ngeo@@UEBA_NAEBVGeoCoordinates@2@@Z
mos.dll ??0GeoPolygon@ngeo@@QEAA@PEBVGeoCoordinates@1@_K@Z
mos.dll ?set_color@FillAttributes@ngeo@@QEAAXAEBVColor@2@@Z
mos.dll ?get_color@FillAttributes@ngeo@@QEBAAEBVColor@2@XZ
mos.dll ?set_width@LineAttributes@ngeo@@QEAAXI@Z
mos.dll ?enable_dash_style@LineAttributes@ngeo@@QEAAX_N@Z
mos.dll ?set_color@LineAttributes@ngeo@@QEAAXAEBVColor@2@@Z
mos.dll ??0GeoPolyline@ngeo@@QEAA@PEBVGeoCoordinates@1@_K@Z
mos.dll ?get_width@LineAttributes@ngeo@@QEBAIXZ
mos.dll ?get_color@LineAttributes@ngeo@@QEBAAEBVColor@2@XZ
mos.dll ?set_user_defined_outline_color@MapRouteObject@ngeo@@QEAAXAEBVColor@2@@Z
mos.dll ?get_outline_color@MapRouteObject@ngeo@@QEBA?AVColor@2@XZ
mos.dll ??0Color@ngeo@@QEAA@I@Z
mos.dll ?get_rgba@Color@ngeo@@QEBAIXZ
mos.dll ?set_dash_pattern@LineAttributes@ngeo@@QEAAXII@Z
mos.dll ?set_info@Location@ngeo@@QEAAXAEBVLocationInfo@2@@Z
mos.dll ?get_info@Location@ngeo@@QEBAAEBVLocationInfo@2@XZ
mos.dll ?set_bbox@Location@ngeo@@QEAAXAEBVGeoRect@2@@Z
mos.dll ?get_bbox@Location@ngeo@@QEBAAEBVGeoRect@2@XZ
mos.dll ?get_coordinates@Location@ngeo@@QEBAAEBVGeoCoordinates@2@XZ
mos.dll ?is_valid@Location@ngeo@@QEBA_NXZ
mos.dll ?set_coordinates@Location@ngeo@@QEAAXAEBVGeoCoordinates@2@@Z
mos.dll ?c_str@ustring@ngeo@@QEBAPEBGXZ
mos.dll ?length@ustring@ngeo@@QEBA_KXZ
mos.dll ?get@LocationInfo@ngeo@@QEBAAEBVustring@2@W4Field@12@@Z
mos.dll ?set@LocationInfo@ngeo@@QEAAXW4Field@12@AEBVustring@2@@Z
mos.dll ??0ustring@ngeo@@QEAA@PEBG@Z
mos.dll ?get_center@GeoRect@ngeo@@QEBA?AVGeoCoordinates@2@XZ
mos.dll ?get_bottom_right@GeoRect@ngeo@@QEBAAEBVGeoCoordinates@2@XZ
mos.dll ?get_top_left@GeoRect@ngeo@@QEBAAEBVGeoCoordinates@2@XZ
mos.dll ?is_valid@GeoRect@ngeo@@UEBA_NXZ
mos.dll ?contains@GeoRect@ngeo@@UEBA_NAEBVGeoCoordinates@2@@Z
mos.dll ??0GeoRect@ngeo@@QEAA@AEBVGeoCoordinates@1@0@Z
mos.dll ?set_height@SizeInPixels@ngeo@@QEAAXM@Z
mos.dll ?get_height@SizeInPixels@ngeo@@QEBAMXZ
mos.dll ?set_width@SizeInPixels@ngeo@@QEAAXM@Z
mos.dll ?get_width@SizeInPixels@ngeo@@QEBAMXZ
mos.dll ?is_valid@SizeInPixels@ngeo@@QEBA_NXZ
mos.dll ??0SizeInPixels@ngeo@@QEAA@MM@Z
mos.dll ?get_bottom_right@PixelRect@ngeo@@QEBA?AVPixelCoordinates@2@XZ
mos.dll ?get_top_left@PixelRect@ngeo@@QEBAAEBVPixelCoordinates@2@XZ
mos.dll ?is_valid@PixelRect@ngeo@@QEBA_NXZ
mos.dll ??0PixelRect@ngeo@@QEAA@MMMM@Z
mos.dll ?set_y@PixelCoordinates@ngeo@@QEAAXM@Z
mos.dll ?get_y@PixelCoordinates@ngeo@@QEBAMXZ
mos.dll ?set_x@PixelCoordinates@ngeo@@QEAAXM@Z
mos.dll ?get_x@PixelCoordinates@ngeo@@QEBAMXZ
mos.dll ?is_valid@PixelCoordinates@ngeo@@QEBA_NXZ
mos.dll ??0PixelCoordinates@ngeo@@QEAA@MM@Z
mos.dll ?set_altitude@GeoCoordinates@ngeo@@QEAAXM@Z
mos.dll ?get_altitude@GeoCoordinates@ngeo@@UEBAMXZ
mos.dll ?set_longitude@GeoCoordinates@ngeo@@QEAAXN@Z
mos.dll ?get_longitude@GeoCoordinates@ngeo@@UEBANXZ
mos.dll ?set_latitude@GeoCoordinates@ngeo@@QEAAXN@Z
mos.dll ?get_latitude@GeoCoordinates@ngeo@@UEBANXZ
mos.dll ?is_valid@GeoCoordinates@ngeo@@UEBA_NXZ
mos.dll ??0GeoCoordinates@ngeo@@QEAA@NNM@Z
mos.dll ??0GeoRect@ngeo@@QEAA@NNNN@Z
mos.dll ??1GeoCoordinates@ngeo@@UEAA@XZ
mos.dll ??1GeoRect@ngeo@@UEAA@XZ
mos.dll ??1RasterTileSourceBase@ngeo@@UEAA@XZ
mos.dll ??4GeoRect@ngeo@@QEAAAEAV01@AEBV01@@Z
mos.dll ??4GeoCoordinates@ngeo@@QEAAAEAV01@AEBV01@@Z
mos.dll ?get_current_version@RasterTileSourceBase@ngeo@@UEBAIXZ
mos.dll ?do_get_semantic_type@RasterTileSourceBase@ngeo@@MEBA?AW4MapSemanticType@2@XZ
mos.dll ?do_get_z_order@RasterTileSourceBase@ngeo@@MEBAIXZ
mos.dll ?do_get_visibility@RasterTileSourceBase@ngeo@@MEBA?AW4Visibility@MapRasterTileSource@2@XZ
mos.dll ?do_has_transparency@RasterTileSourceBase@ngeo@@MEBA_NXZ
mos.dll ?do_is_fallback_enabled@RasterTileSourceBase@ngeo@@MEBA_NXZ
mos.dll ?do_is_fading_enabled@RasterTileSourceBase@ngeo@@MEBA_NXZ
mos.dll ?do_has_coordinate_shift@RasterTileSourceBase@ngeo@@MEBA_NXZ
mos.dll ?do_get_bounding_area@RasterTileSourceBase@ngeo@@MEBA?AVGeoRect@2@I@Z
mos.dll ??0GeoRect@ngeo@@QEAA@AEBV01@@Z
mos.dll ??0GeoCoordinates@ngeo@@QEAA@AEBV01@@Z
mos.dll ?do_get_tile_size@RasterTileSourceBase@ngeo@@MEBAIXZ
mos.dll ?do_get_pixel_format@RasterTileSourceBase@ngeo@@MEBA?AW4PixelFormat@2@XZ
mos.dll ?do_query_version_state@RasterTileSourceBase@ngeo@@MEAA?AW4VersionState@MapRasterTileSource@2@I@Z
mos.dll ?do_get_valid_zoom_levels@RasterTileSourceBase@ngeo@@MEBA?AVZoomAttributes@2@XZ
mos.dll ?do_get_country@RasterTileSourceBase@ngeo@@MEBA?AW4CountryEnum@2@XZ
mos.dll ?do_is_half_scaled@RasterTileSourceBase@ngeo@@MEBA_NXZ
mos.dll ?do_reset_non_existing_tiles@RasterTileSourceBase@ngeo@@MEAAXXZ
mos.dll ??0GeoCoordinates@ngeo@@QEAA@$$QEAV01@@Z
mos.dll ??4GeoCoordinates@ngeo@@QEAAAEAV01@$$QEAV01@@Z
mos.dll ??0GeoRect@ngeo@@QEAA@$$QEAV01@@Z
mos.dll ??4GeoRect@ngeo@@QEAAAEAV01@$$QEAV01@@Z
mos.dll ??4Location@ngeo@@QEAAAEAV01@AEBV01@@Z
mos.dll ??1GeoPolyline@ngeo@@UEAA@XZ
mos.dll ??0GeoPolyline@ngeo@@QEAA@AEBV01@@Z
mos.dll ??4GeoPolyline@ngeo@@QEAAAEAV01@AEBV01@@Z
mos.dll ??0Location@ngeo@@QEAA@AEBV01@@Z
mos.dll ??1Location@ngeo@@UEAA@XZ
mos.dll ??0Location@ngeo@@QEAA@XZ
mos.dll ??4LocationInfo@ngeo@@QEAAAEAV01@AEBV01@@Z
mos.dll ??0LocationInfo@ngeo@@QEAA@AEBV01@@Z
mos.dll ??1LocationInfo@ngeo@@QEAA@XZ
mos.dll ??0LocationInfo@ngeo@@QEAA@XZ
mos.dll ??0GeoRect@ngeo@@QEAA@XZ
mos.dll ??0SizeInPixels@ngeo@@QEAA@XZ
mos.dll ??8ngeo@@YA_NAEBVSizeInPixels@0@0@Z
mos.dll ??0PixelRect@ngeo@@QEAA@XZ
mos.dll ??8ngeo@@YA_NAEBVPixelRect@0@0@Z
mos.dll ??0PixelCoordinates@ngeo@@QEAA@XZ
mos.dll ??8ngeo@@YA_NAEBVPixelCoordinates@0@0@Z
mos.dll ??0GeoCoordinates@ngeo@@QEAA@XZ
mos.dll ??8ngeo@@YA_NAEBVGeoCoordinates@0@0@Z
mos.dll ??_7GeoCoordinates@ngeo@@6B@
mos.dll ??_7IGeoCoordinates@msngeo@@6B@
mos.dll ?on_view_changing@MapListener@ngeo@@UEAAXAEBVGeoCoordinates@2@@Z
mos.dll ?on_transfer_graphics_buffer@MapListener@ngeo@@UEAAXXZ
mos.dll ?on_view_changed@MapListener@ngeo@@UEAAXAEBVGeoCoordinates@2@@Z
mos.dll ?on_target_view_changed@MapListener@ngeo@@UEAAXAEBVGeoCoordinates@2@@Z
mos.dll ?clone@SoftwareSurface@ngeo@@UEBAPEAVSurface@2@XZ
mos.dll ?get_type@SoftwareSurface@ngeo@@UEBA?AW4SurfaceType@Surface@2@XZ
mos.dll ?get_width@Surface@ngeo@@UEBAIXZ
mos.dll ?get_height@Surface@ngeo@@UEBAIXZ
mos.dll ??1SoftwareSurface@ngeo@@UEAA@XZ
mos.dll ?is_valid@SoftwareSurface@ngeo@@UEBA_NXZ
mos.dll ??4GeoPolygon@ngeo@@QEAAAEAV01@$$QEAV01@@Z
mos.dll ??0MapListener@ngeo@@QEAA@XZ
mos.dll ??0Location@ngeo@@QEAA@AEBVGeoCoordinates@1@AEBVLocationInfo@1@@Z
nmaa.dll ??0MapLabeledIcon@nmacore@@QEAA@AEBVLocation@ngeo@@@Z
nmaa.dll ?getChildren@MapDataPackage@nmacore@@QEAAAEAV?$list@VMapDataPackage@nmacore@@V?$allocator@VMapDataPackage@nmacore@@@std@@@std@@XZ
nmaa.dll ?unselectForInstallation@MapDataPackage@nmacore@@QEAA?AW4TErrorCode@@I@Z
nmaa.dll ?selectForInstallation@MapDataPackage@nmacore@@QEAA?AW4TErrorCode@@I@Z
nmaa.dll ?getPackageId@MapDataPackage@nmacore@@QEAA?AW4TErrorCode@@AEAI@Z
nmaa.dll ?getSelectionState@MapDataPackage@nmacore@@QEBA?AW4TSelectionState@12@I@Z
nmaa.dll ?getName@MapDataPackage@nmacore@@QEBA?AVustring@ngeo@@XZ
nmaa.dll ?getBoundingBox@MapPolygon@nmacore@@QEBA?AVGeoRect@ngeo@@XZ
nmaa.dll ?setFocused@MapPolygon@nmacore@@QEAAX_N@Z
nmaa.dll ?setFillAttributes@MapPolygon@nmacore@@QEAAXAEBVFillAttributes@ngeo@@@Z
nmaa.dll ?setLineAttributes@MapPolygon@nmacore@@QEAAXAEBVLineAttributes@ngeo@@@Z
nmaa.dll ?setPolygonData@MapPolygon@nmacore@@QEAA?AW4TErrorCode@@AEBV?$vector@VGeoPolygon@ngeo@@V?$allocator@VGeoPolygon@ngeo@@@std@@@std@@@Z
nmaa.dll ?getFillAttributes@MapPolygon@nmacore@@QEAAAEAVFillAttributes@ngeo@@XZ
nmaa.dll ?getLineAttributes@MapPolygon@nmacore@@QEAAAEAVLineAttributes@ngeo@@XZ
nmaa.dll ??0MapPolygon@nmacore@@QEAA@XZ
nmaa.dll ?setLineAttributes@MapPolyline@nmacore@@QEAAXAEBVLineAttributes@ngeo@@@Z
nmaa.dll ?setGeoPolyline@MapPolyline@nmacore@@QEAAXAEBVGeoPolyline@ngeo@@@Z
nmaa.dll ?getLineAttributes@MapPolyline@nmacore@@QEAAAEAVLineAttributes@ngeo@@XZ
nmaa.dll ??0MapPolyline@nmacore@@QEAA@XZ
nmaa.dll ?setRouteType@MapRoute@nmacore@@QEAAXW4RouteDisplayType@ngeo@@@Z
nmaa.dll ?getRouteType@MapRoute@nmacore@@QEBA?AW4RouteDisplayType@ngeo@@XZ
nmaa.dll ?setOutlineDisplayed@MapRoute@nmacore@@QEAAX_N@Z
nmaa.dll ?getOutlineDisplayed@MapRoute@nmacore@@QEBA_NXZ
nmaa.dll ?setColor@MapRoute@nmacore@@QEAAXAEBVColor@ngeo@@@Z
nmaa.dll ?getColor@MapRoute@nmacore@@QEBA?AVColor@ngeo@@XZ
nmaa.dll ?getRoute@MapRoute@nmacore@@QEBAAEBVRoute@2@XZ
nmaa.dll ?setRoute@MapRoute@nmacore@@QEAAXAEBVRoute@2@@Z
nmaa.dll ??0MapRoute@nmacore@@QEAA@XZ
nmaa.dll ?getMapRoute@MapRoute@nmacore@@IEAAPEAVMapRouteObject@ngeo@@XZ
nmaa.dll ?setVisible@MapUserObject@nmacore@@QEAAX_N@Z
nmaa.dll ?isVisible@MapUserObject@nmacore@@QEBA_NXZ
nmaa.dll ?setZIndex@MapUserObject@nmacore@@QEAAXK@Z
nmaa.dll ?getZIndex@MapUserObject@nmacore@@QEBAKXZ
nmaa.dll ??0MapRoute@nmacore@@QEAA@AEBV01@@Z
nmaa.dll ??4MapRoute@nmacore@@QEAAAEAV01@AEBV01@@Z
nmaa.dll ??1MapRoute@nmacore@@UEAA@XZ
nmaa.dll ?getMapDownloadPollInterval@MosConfigurationImpl@nmacore@@UEAAIXZ
nmaa.dll ?getCategoryTreeDirectory@MosConfigurationImpl@nmacore@@UEAA?AVustring@ngeo@@XZ
nmaa.dll ?getSettingsPath@MosConfigurationImpl@nmacore@@UEAA?AVustring@ngeo@@XZ
nmaa.dll ?getVoiceListUpdateInterval@MosConfigurationImpl@nmacore@@UEAAHXZ
nmaa.dll ?getLibraryPath@MosConfigurationImpl@nmacore@@UEAA?AVustring@ngeo@@XZ
nmaa.dll ?getFakeMCCFile@MosConfigurationImpl@nmacore@@UEAA?AVustring@ngeo@@XZ
nmaa.dll ?getUrlFile@MosConfigurationImpl@nmacore@@UEAA?AVustring@ngeo@@XZ
nmaa.dll ?getPlacesDirectory@MosConfigurationImpl@nmacore@@UEAA?AVustring@ngeo@@XZ
nmaa.dll ?getPlacesApiServer@MosConfigurationImpl@nmacore@@UEAA?AVustring@ngeo@@XZ
nmaa.dll ?getPlacesApiChinaServer@MosConfigurationImpl@nmacore@@UEAA?AVustring@ngeo@@XZ
nmaa.dll ?getPlaceApiShareBaseUrl@MosConfigurationImpl@nmacore@@UEAA?AVustring@ngeo@@XZ
nmaa.dll ?getPlatformName@MosConfigurationImpl@nmacore@@UEAA?AVustring@ngeo@@XZ
nmaa.dll ?getPlatformVersion@MosConfigurationImpl@nmacore@@UEAA?AVustring@ngeo@@XZ
nmaa.dll ?getDeviceName@MosConfigurationImpl@nmacore@@UEAA?AVustring@ngeo@@XZ
nmaa.dll ?getApplicationId@MosConfigurationImpl@nmacore@@UEAA?AVustring@ngeo@@XZ
nmaa.dll ?getApplicationCode@MosConfigurationImpl@nmacore@@UEAA?AVustring@ngeo@@XZ
nmaa.dll ?getBingAuthenticationKey@MosConfigurationImpl@nmacore@@UEAA?AVustring@ngeo@@XZ
nmaa.dll ?getApplicationVersion@MosConfigurationImpl@nmacore@@UEAA?AVustring@ngeo@@XZ
nmaa.dll ?hasTransportInfo@MosConfigurationImpl@nmacore@@UEAA_NXZ
nmaa.dll ?getTransportInfo@MosConfigurationImpl@nmacore@@UEAA?AVustring@ngeo@@XZ
nmaa.dll ?useProdServer@MosConfigurationImpl@nmacore@@UEAA_NXZ
nmaa.dll ?useBingServer@MosConfigurationImpl@nmacore@@UEAA_NXZ
nmaa.dll ??0MosConfigurationImpl@nmacore@@QEAA@XZ
nmaa.dll ??0Runtime@nmacore@@IEAA@XZ
nmaa.dll ??1Runtime@nmacore@@MEAA@XZ
nmaa.dll ?doInit@Runtime@nmacore@@IEAA?AW4TErrorCode@@PEAVMosConfigurationImpl@2@_N1@Z
nmaa.dll ?setMultipleLocales@DeviceConfiguration@nmacore@@SAXAEBVustring@ngeo@@@Z
nmaa.dll ?mapVersion@MapModelEngine@nmacore@@QEAAAEBVVersion@ngeo@@XZ
nmaa.dll ?setTimerSource@Runtime@nmacore@@QEAAXAEBV?$shared_ptr@VITimerSource@msnma@@@std@@@Z
nmaa.dll ?suspend@Runtime@nmacore@@QEAA?AW4TErrorCode@@XZ
nmaa.dll ?resetCachedir@MapModelEngine@nmacore@@QEAA?AW4TErrorCode@@XZ
nmaa.dll ?resume@Runtime@nmacore@@QEAA?AW4TErrorCode@@XZ
nmaa.dll ?isOnline@Connection@nmacore@@QEBA_NXZ
nmaa.dll ?getConnection@Runtime@nmacore@@QEAAAEAVConnection@2@XZ
nmaa.dll ?setOnline@Connection@nmacore@@QEAAX_N@Z
nmaa.dll ?useD3DScreenRenderBuffer@MapView@nmacore@@QEAA_NPEAXHHW4AntiAliasingQualityHint@RenderBuffer@ngeo@@@Z
nmaa.dll ?useD3DRenderBuffer@MapView@nmacore@@QEAA_NPEAX0_KHHHHHHW4AntiAliasingQualityHint@RenderBuffer@ngeo@@@Z
nmaa.dll ?render@MapView@nmacore@@QEAA?AW4ErrorCode@ngeo@@_N@Z
nmaa.dll ?renderBufferChanged@IMapListener@nmacore@@UEAAXXZ
nmaa.dll ?safetySpotVisibilityChanged@IMapListener@nmacore@@UEAAX_N@Z
nmaa.dll ?needMapDataChanged@IMapListener@nmacore@@UEAAXXZ
nmaa.dll ?fadingAnimationsChanged@IMapListener@nmacore@@UEAAXXZ
nmaa.dll ?getFinderEngine@Runtime@nmacore@@QEAAAEAVFinderEngine@2@XZ
nmaa.dll ?cancelRequestWithoutCallback@FinderEngine@nmacore@@QEAA_NI@Z
nmaa.dll ??0FinderRequest@nmacore@@QEAA@XZ
nmaa.dll ?createGeoCodeRequest@FinderRequest@nmacore@@QEAAXW4TSearchType@12@AEBVustring@ngeo@@AEBVGeoCoordinates@5@I_NI3@Z
nmaa.dll ?getId@FinderRequest@nmacore@@QEBAIXZ
nmaa.dll ?setListener@FinderRequest@nmacore@@QEAAXPEAVIFinderEngineListener@2@@Z
nmaa.dll ?doRequest@FinderEngine@nmacore@@QEAAXAEBVFinderRequest@2@@Z
nmaa.dll ?createRevGeoCodeRequest@FinderRequest@nmacore@@QEAAXW4TSearchType@12@AEBVGeoCoordinates@ngeo@@_N@Z
nmaa.dll ?createOfflinePlaceGeoCodeRequest@FinderRequest@nmacore@@QEAAXW4TSearchType@12@AEBVustring@ngeo@@1W4TPlaceSearchType@12@AEBVGeoCoordinates@5@II_NI4@Z
nmaa.dll ?createPlaceGeoCodeRequest@FinderRequest@nmacore@@QEAAXW4TSearchType@12@AEBVustring@ngeo@@1W4TPlaceSearchType@12@AEBVGeoCoordinates@5@II_NI@Z
nmaa.dll ?cancelRequest@FinderEngine@nmacore@@QEAA_NI@Z
nmaa.dll ??1FinderRequest@nmacore@@QEAA@XZ
nmaa.dll ??0RouterEngine@nmacore@@QEAA@XZ
nmaa.dll ?setListener@RouterEngine@nmacore@@QEAAXPEAVIRouterEngineListener@2@@Z
nmaa.dll ??1RouterEngine@nmacore@@UEAA@XZ
nmaa.dll ??0RouteOptions@nmacore@@QEAA@XZ
nmaa.dll ??1RouteOptions@nmacore@@QEAA@XZ
nmaa.dll ?setRouteMode@RouteOptions@nmacore@@QEAAXW4TRouteMode@12@@Z
nmaa.dll ?setRouteType@RouteOptions@nmacore@@QEAAXW4TRouteType@12@@Z
nmaa.dll ?setAllowHighways@RouteOptions@nmacore@@QEAAX_N@Z
nmaa.dll ?setAllowTollRoads@RouteOptions@nmacore@@QEAAX_N@Z
nmaa.dll ?setAllowBoatFerries@RouteOptions@nmacore@@QEAAX_N@Z
nmaa.dll ?setAllowTunnels@RouteOptions@nmacore@@QEAAX_N@Z
nmaa.dll ?setAllowDirtRoads@RouteOptions@nmacore@@QEAAX_N@Z
nmaa.dll ?setAllowRailFerries@RouteOptions@nmacore@@QEAAX_N@Z
nmaa.dll ?setAllowParks@RouteOptions@nmacore@@QEAAX_N@Z
nmaa.dll ?setRouteAlternativesCount@RouteOptions@nmacore@@QEAAXI@Z
nmaa.dll ?setStartDirection@RouteOptions@nmacore@@QEAAXI@Z
nmaa.dll ?routeOptions@RouteOptions@nmacore@@QEBAAEBV1ngeo@@XZ
nmaa.dll ?setThirdParty@MapLabeledIcon@nmacore@@QEAAX_N@Z
nmaa.dll ?setFallbackMode@RouterEngine@nmacore@@QEAAXW4TFallbackMode@12@@Z
nmaa.dll ?setUseBingForJpnAndKor@RouterEngine@nmacore@@QEAAX_N@Z
nmaa.dll ?calculate@RouterEngine@nmacore@@QEAA?AW4TErrorCode@@AEBVRoutePlan@ngeo@@AEBVDynamicPenalty@5@@Z
nmaa.dll ?cancel@RouterEngine@nmacore@@QEAAXXZ
nmaa.dll ?getViolatedOptions@RouterEngine@nmacore@@QEBAHXZ
nmaa.dll ?getAlternativeRoutes@RouterEngine@nmacore@@QEBAAEBV?$vector@U?$pair@VRoute@nmacore@@H@std@@V?$allocator@U?$pair@VRoute@nmacore@@H@std@@@2@@std@@XZ
nmaa.dll ?getEngineId@RouterEngine@nmacore@@MEBA?AW4TEngineID@BaseEngine@2@XZ
nmaa.dll ?poll@RouterEngine@nmacore@@MEAAXXZ
nmaa.dll ?start@BaseEngine@nmacore@@UEAAXXZ
nmaa.dll ?stop@BaseEngine@nmacore@@UEAAXXZ
nmaa.dll ?suspendEngine@BaseEngine@nmacore@@UEAA_NXZ
nmaa.dll ?resumeEngine@BaseEngine@nmacore@@UEAA_NXZ
nmaa.dll ?getPollInterval@RouterEngine@nmacore@@MEAAHXZ
nmaa.dll ?on_progress@RouterEngine@nmacore@@EEAAXI@Z
nmaa.dll ?on_result@RouterEngine@nmacore@@EEAAXAEBV?$vector@VRoute@ngeo@@V?$allocator@VRoute@ngeo@@@std@@@std@@@Z
nmaa.dll ?on_end@RouterEngine@nmacore@@EEAAXW4ErrorCode@ngeo@@AEBV?$vector@V?$bitset@$08@std@@V?$allocator@V?$bitset@$08@std@@@2@@std@@@Z
nmaa.dll ??0IRouterEngineListener@nmacore@@QEAA@XZ
nmaa.dll ??0MapLoader@nmacore@@QEAA@XZ
nmaa.dll ?setListener@MapLoader@nmacore@@QEAAXPEAVIMapLoaderListener@2@@Z
nmaa.dll ??1MapLoader@nmacore@@UEAA@XZ
nmaa.dll ?setAccessPoint@Connection@nmacore@@QEAAXW4TConnectionAccessPoint@12@@Z
nmaa.dll ?initialize@MapLoader@nmacore@@QEAA?AW4TErrorCode@@XZ
nmaa.dll ?startOperation@MapLoader@nmacore@@QEAA?AW4TErrorCode@@W4TOperationType@12@_N@Z
nmaa.dll ?cancelInstallation@MapLoader@nmacore@@QEAAXXZ
nmaa.dll ?suspendInstallation@MapLoader@nmacore@@QEAAXXZ
nmaa.dll ?reportMisses@MapLoader@nmacore@@QEAA?AW4TErrorCode@@HPEB_KHPEBDPEAH@Z
nmaa.dll ?checkForUpdates@MapLoader@nmacore@@QEAA?AW4TErrorCode@@XZ
nmaa.dll ?continueInstallation@MapLoader@nmacore@@QEAAXXZ
nmaa.dll ?getCurrentVersion@MapLoader@nmacore@@QEBAPEBVVersion@ngeo@@XZ
nmaa.dll ?getCopyrightString@MapLoader@nmacore@@QEAA?AW4TErrorCode@@PEAV?$basic_string@GU?$char_traits@G@std@@V?$allocator@G@2@@std@@@Z
nmaa.dll ?getDataGroupCount@MapLoader@nmacore@@QEBA?AW4TErrorCode@@AEAG@Z
nmaa.dll ?getDataGroupId@MapLoader@nmacore@@QEBA?AW4TErrorCode@@GAEAG@Z
nmaa.dll ?getEngineId@MapLoader@nmacore@@MEBA?AW4TEngineID@BaseEngine@2@XZ
nmaa.dll ?poll@MapLoader@nmacore@@MEAAXXZ
nmaa.dll ?getPollInterval@BaseEngine@nmacore@@UEAAHXZ
nmaa.dll ?on_query_current_map_version_end@MapLoader@nmacore@@MEAAXAEBVVersion@ngeo@@W4ErrorCode@4@@Z
nmaa.dll ?on_query_compatible_map_versions_end@MapLoader@nmacore@@MEAAXAEBV?$vector@VVersion@ngeo@@V?$allocator@VVersion@ngeo@@@std@@@std@@W4ErrorCode@ngeo@@@Z
nmaa.dll ??1MapLabeledIcon@nmacore@@UEAA@XZ
nmaa.dll ?on_install_version_end@MapLoader@nmacore@@MEAAXAEBVVersion@ngeo@@W4ErrorCode@4@@Z
nmaa.dll ?on_install_selection_ready@MapLoader@nmacore@@MEAAXPEAVMapPackageSelection@ngeo@@@Z
nmaa.dll ?on_install_size_info_ready@MapLoader@nmacore@@MEAAXII@Z
nmaa.dll ??0IMapLoaderListener@nmacore@@QEAA@XZ
nmaa.dll ?onMapLoaderReady@IMapLoaderListener@nmacore@@UEAAXXZ
nmaa.dll ?removeListener@Map@nmacore@@QEAAXAEAVIMapListener@2@@Z
nmaa.dll ?removeObserver@GestureEngine@nmacore@@QEAAXAEAVIGestureEngineObserver@2@@Z
nmaa.dll ?getGestureEngine@MapEngine@nmacore@@QEAAAEAVGestureEngine@2@XZ
nmaa.dll ?removeObserver@KineticEngine@nmacore@@QEAAXAEAVIKineticEngineObserver@2@@Z
nmaa.dll ?getKineticEngine@MapEngine@nmacore@@QEAAAEAVKineticEngine@2@XZ
nmaa.dll ??0MapEngine@nmacore@@QEAA@XZ
nmaa.dll ?map@Map@nmacore@@QEAAAEAV1ngeo@@XZ
nmaa.dll ?addListener@Map@nmacore@@QEAAXAEAVIMapListener@2@@Z
nmaa.dll ?addObserver@GestureEngine@nmacore@@QEAAXAEAVIGestureEngineObserver@2@@Z
nmaa.dll ?addObserver@KineticEngine@nmacore@@QEAAXAEAVIKineticEngineObserver@2@@Z
nmaa.dll ?setFadingAnimations@Map@nmacore@@QEAA?AW4TErrorCode@@_N@Z
nmaa.dll ?setViewType@Map@nmacore@@QEAA?AW4TErrorCode@@W4TViewType@12@@Z
nmaa.dll ?invalidate@MapEngine@nmacore@@UEAAX_N@Z
nmaa.dll ??1MapEngine@nmacore@@UEAA@XZ
nmaa.dll ?freeSystemResources@MapView@nmacore@@UEAA_NXZ
nmaa.dll ?beginRotateContinuously@Map@nmacore@@QEAAXM@Z
nmaa.dll ?beginTiltContinuously@Map@nmacore@@QEAAXM@Z
nmaa.dll ?beginZoomContinuously@Map@nmacore@@QEAAXM@Z
nmaa.dll ?cancelContinuousMotion@Map@nmacore@@QEAAXXZ
nmaa.dll ?setAllowCopyrightHiding@Map@nmacore@@QEAAX_N@Z
nmaa.dll ?isOnline@MapEngine@nmacore@@QEBA_NXZ
nmaa.dll ?isMostlyRendered@MapEngine@nmacore@@QEBA_NXZ
nmaa.dll ?geoAreaInView@Map@nmacore@@QEAA?AVGeoPolygon@ngeo@@XZ
nmaa.dll ?geoAreaInNearView@Map@nmacore@@QEAA?AVGeoPolygon@ngeo@@XZ
nmaa.dll ?setUseHighlyVisibleFocusKind@Map@nmacore@@QEAAX_N@Z
nmaa.dll ?getZoomLevel@Map@nmacore@@QEBAMXZ
nmaa.dll ?getTransitLayerMode@Map@nmacore@@QEBA?AW4Mode@MapTransitLayer@ngeo@@XZ
nmaa.dll ?getCameraVerticalFieldOfViewInDegrees@Map@nmacore@@QEAA?AW4TErrorCode@@PEAN@Z
nmaa.dll ?getCenter@Map@nmacore@@QEBA?AVGeoCoordinates@ngeo@@XZ
nmaa.dll ?setCenter@Map@nmacore@@QEAAXAEBVGeoCoordinates@ngeo@@@Z
nmaa.dll ?getTransformCenter@Map@nmacore@@QEBA?AVPixelCoordinates@ngeo@@XZ
nmaa.dll ?setTransformCenter@Map@nmacore@@QEAA?AW4TErrorCode@@AEBVPixelCoordinates@ngeo@@@Z
nmaa.dll ?setZoomLevel@Map@nmacore@@QEAA?AW4TErrorCode@@M@Z
nmaa.dll ?setMinZoomLevel@Map@nmacore@@QEAAXM@Z
nmaa.dll ?setMaxPerspective@Map@nmacore@@QEAAXM@Z
nmaa.dll ?getTargetPerspective@Map@nmacore@@QEBAMXZ
nmaa.dll ?getOrientation@Map@nmacore@@QEBAMXZ
nmaa.dll ?setOrientation@Map@nmacore@@QEAA?AW4TErrorCode@@M@Z
nmaa.dll ?getPerspective@Map@nmacore@@QEBAMXZ
nmaa.dll ?getConfigurationScheme@Map@nmacore@@QEBA?AW4TMapScheme@12@XZ
nmaa.dll ?setConfigurationScheme@Map@nmacore@@QEAA?AW4TErrorCode@@W4TMapScheme@12@@Z
nmaa.dll ?setTransitLayerMode@Map@nmacore@@QEAAXW4Mode@MapTransitLayer@ngeo@@@Z
nmaa.dll ?getDetailLevel@Map@nmacore@@QEBA?AW4MapDetailLevel@12@XZ
nmaa.dll ?setDetailLevel@Map@nmacore@@QEAA?AW4TErrorCode@@W4MapDetailLevel@12@@Z
nmaa.dll ?trafficVisible@Map@nmacore@@QEBA_NXZ
nmaa.dll ?setTrafficVisible@Map@nmacore@@QEAA?AW4TErrorCode@@_N@Z
nmaa.dll ?isPoiCategoryVisible@Map@nmacore@@QEBA_NI@Z
nmaa.dll ?showPoiCategory@Map@nmacore@@QEAA_NI_N@Z
nmaa.dll ?automaticMinimumZoomLevelEnabled@Map@nmacore@@QEBA_NXZ
nmaa.dll ?setAutomaticMinimumZoomLevelEnabled@Map@nmacore@@QEAA_N_N@Z
nmaa.dll ?getLandmarksVisible@Map@nmacore@@QEBA_NXZ
nmaa.dll ?setLandmarksVisible@Map@nmacore@@QEAA?AW4TErrorCode@@_N@Z
nmaa.dll ?setWatermarkEnabled@Map@nmacore@@QEAAX_N@Z
nmaa.dll ?extrudedBuildingsVisible@Map@nmacore@@QEBA_NXZ
nmaa.dll ?setExtrudedBuildingsVisible@Map@nmacore@@QEAA?AW4TErrorCode@@_N@Z
nmaa.dll ?getFontScalingFactor@MapView@nmacore@@QEBAMXZ
nmaa.dll ?setFontScalingFactor@MapView@nmacore@@QEAA_NM@Z
nmaa.dll ?getPixelDensityForScale@Map@nmacore@@QEBAIXZ
nmaa.dll ?horizonYCoordinate@Map@nmacore@@QEBAHXZ
nmaa.dll ?moveTo@Map@nmacore@@QEAA?AW4TErrorCode@@AEBVGeoRect@ngeo@@AEBVPixelRect@5@W4Movement@15@@Z
nmaa.dll ?moveTo@Map@nmacore@@QEAA?AW4TErrorCode@@AEBVGeoRect@ngeo@@AEBVPixelRect@5@W4Movement@15@MM@Z
nmaa.dll ?moveToUsingZoomLevel@Map@nmacore@@QEAAXAEBVGeoCoordinates@ngeo@@MMMW4Movement@14@@Z
nmaa.dll ?getZoomScale@Map@nmacore@@QEBANXZ
nmaa.dll ?pan@Map@nmacore@@QEAA?AW4TErrorCode@@AEBVPixelCoordinates@ngeo@@0@Z
nmaa.dll ?moveTo@Map@nmacore@@QEAA?AW4TErrorCode@@AEBVGeoCoordinates@ngeo@@NMMW4Movement@15@@Z
nmaa.dll ?getTargetLocationAndZoomLevel@Map@nmacore@@QEAA?AW4TErrorCode@@AEBVGeoCoordinates@ngeo@@MMPEAV45@PEAM@Z
nmaa.dll ?cancelAnimation@Map@nmacore@@QEAA?AW4TErrorCode@@XZ
nmaa.dll ?setMapStatistics@Map@nmacore@@QEAAX_N@Z
nmaa.dll ?GetMapLabels@Map@nmacore@@QEAAXPEAV?$vector@UMapLabel@@V?$allocator@UMapLabel@@@std@@@std@@@Z
nmaa.dll ?getGestureReceiver@GestureEngine@nmacore@@QEAAAEAVIGestureEngineObserver@2@XZ
nmaa.dll ?pixelToGeo@Map@nmacore@@QEBA?AVGeoCoordinates@ngeo@@AEBVPixelCoordinates@4@@Z
nmaa.dll ?hasValidGeoCoordinates@Map@nmacore@@QEBA_NAEBVPixelCoordinates@ngeo@@@Z
nmaa.dll ?geoToPixel@Map@nmacore@@QEBA?AVPixelCoordinates@ngeo@@AEBVGeoCoordinates@4@@Z
nmaa.dll ?getMaxZoomScale@Map@nmacore@@QEAANXZ
nmaa.dll ?getMinZoomScale@Map@nmacore@@QEAANXZ
nmaa.dll ?setZoomScale@Map@nmacore@@QEAA?AW4TErrorCode@@N@Z
nmaa.dll ?setPerspective@Map@nmacore@@QEAA?AW4TErrorCode@@M@Z
nmaa.dll ?setZoomScale@Map@nmacore@@QEAA?AW4TErrorCode@@NW4Movement@1ngeo@@@Z
nmaa.dll ?cancel@KineticEngine@nmacore@@QEAAXXZ
nmaa.dll ?addMapObject@Map@nmacore@@QEAA?AW4TErrorCode@@PEAVMapUserObject@2@W4MapSemanticType@ngeo@@@Z
nmaa.dll ?removeMapObject@Map@nmacore@@QEAA_NPEAVMapUserObject@2@@Z
nmaa.dll ?selectObjects@MapView@nmacore@@UEAAXAEBVPixelCoordinates@ngeo@@AEAV?$vector@PEAVMapObject@nmacore@@V?$allocator@PEAVMapObject@nmacore@@@std@@@std@@@Z
nmaa.dll ?setHover@Map@nmacore@@QEAAXAEBVPixelCoordinates@ngeo@@@Z
nmaa.dll ?clearHoverState@Map@nmacore@@QEAAXXZ
nmaa.dll ?setBusinessLandmarksEnabled@Map@nmacore@@QEAAX_N@Z
nmaa.dll ?setTransitFeaturesEnabled@Map@nmacore@@QEAAX_N@Z
nmaa.dll ?setFocusedBusiness@Map@nmacore@@QEAAXAEBVGeoCoordinates@ngeo@@AEBVustring@4@@Z
nmaa.dll ?setFocusedTransit@Map@nmacore@@QEAAXAEBVGeoCoordinates@ngeo@@AEBVIdentifier@4@@Z
nmaa.dll ?selectObjects@MapView@nmacore@@UEAAXAEBVPixelRect@ngeo@@AEAV?$vector@PEAVMapObject@nmacore@@V?$allocator@PEAVMapObject@nmacore@@@std@@@std@@@Z
nmaa.dll ?setPixelDensityForScale@Map@nmacore@@QEAA_NI@Z
nmaa.dll ?setPixelDensityForGraphics@MapView@nmacore@@QEAA_NI@Z
nmaa.dll ??0MapBuildingLayer@nmacore@@QEAA@AEAVMap@1@@Z
nmaa.dll ??1MapBuildingLayer@nmacore@@QEAA@XZ
nmaa.dll ?getDefaultBuildingGroup@MapBuildingLayer@nmacore@@QEAAPEAVBuildingGroup@2@W4DefaultBuildingGroupType@1ngeo@@@Z
nmaa.dll ?getAttributes@BuildingGroup@nmacore@@QEBA_NAEAVBuildingAttributes@ngeo@@@Z
nmaa.dll ?setAttributes@BuildingGroup@nmacore@@QEAA_NAEBVBuildingAttributes@ngeo@@@Z
nmaa.dll ?setCameraVerticalFieldOfViewInDegrees@Map@nmacore@@QEAA?AW4TErrorCode@@N@Z
nmaa.dll ?isAnimating@MapEngine@nmacore@@UEBA_NXZ
nmaa.dll ?setViewArea@MapView@nmacore@@UEAAXAEBVPixelRect@ngeo@@@Z
nmaa.dll ?getViewArea@MapView@nmacore@@UEAAXAEAVPixelRect@ngeo@@@Z
nmaa.dll ?renderBufferReady@MapEngine@nmacore@@MEAAXXZ
nmaa.dll ?mapInvalidated@MapEngine@nmacore@@MEAAXXZ
nmaa.dll ?mapDrawStarting@MapEngine@nmacore@@MEAAXXZ
nmaa.dll ?mapDrawn@MapEngine@nmacore@@MEAAXXZ
nmaa.dll ?isSlave@MapView@nmacore@@MEAA_NXZ
nmaa.dll ?onDataDownloaded@MapUpdateOnDownload@nmacore@@EEAAXW4TErrorCode@@@Z
nmaa.dll ?on_configuration_scheme_changed@Map@nmacore@@EEAAXAEBVustring@ngeo@@@Z
nmaa.dll ?on_automatic_minimum_zoom_level_changed@Map@nmacore@@EEAAXM@Z
nmaa.dll ?on_max_scale_changed@Map@nmacore@@EEAAXNN@Z
nmaa.dll ?on_scale_start@Map@nmacore@@EEAAXN@Z
nmaa.dll ?on_scale@Map@nmacore@@EEAAXN@Z
nmaa.dll ?on_scale_end@Map@nmacore@@EEAAXN@Z
nmaa.dll ?on_orientation_start@Map@nmacore@@EEAAXM@Z
nmaa.dll ?on_orientation@Map@nmacore@@EEAAXM@Z
nmaa.dll ?on_orientation_end@Map@nmacore@@EEAAXM@Z
nmaa.dll ?on_perspective_start@Map@nmacore@@EEAAXM@Z
nmaa.dll ?on_perspective@Map@nmacore@@EEAAXM@Z
nmaa.dll ?on_perspective_end@Map@nmacore@@EEAAXM@Z
nmaa.dll ?on_move_start@Map@nmacore@@EEAAXAEBVGeoCoordinates@ngeo@@@Z
nmaa.dll ?on_move@Map@nmacore@@EEAAXAEBVGeoCoordinates@ngeo@@@Z
nmaa.dll ?on_move_end@Map@nmacore@@EEAAXAEBVGeoCoordinates@ngeo@@@Z
nmaa.dll ?on_copyright_updated@Map@nmacore@@EEAAXAEBVustring@ngeo@@@Z
nmaa.dll ?on_size_changed@Map@nmacore@@EEAAXII@Z
nmaa.dll ??0IGestureEngineObserver@nmacore@@QEAA@XZ
nmaa.dll ??0IMapListener@nmacore@@QEAA@XZ
nmaa.dll ?view@MapView@nmacore@@QEAAAEAVView@ngeo@@XZ
nmaa.dll ?onDownloadingChanged@IMapModelEngineListener@nmacore@@UEAAXXZ
nmaa.dll ?onMapVersionAvailable@IMapModelEngineListener@nmacore@@UEAAXXZ
nmaa.dll ?setLocation@MapIcon@nmacore@@QEAAXAEBVLocation@ngeo@@@Z
nmaa.dll ?setEnableFadingAnimation@MapLabeledIcon@nmacore@@QEAAX_N@Z
nmaa.dll ?setDrawAboveLabels@MapLabeledIcon@nmacore@@QEAAX_N@Z
nmaa.dll ?setFocused@MapLabeledIcon@nmacore@@QEAAX_N@Z
nmaa.dll ?setHovered@MapLabeledIcon@nmacore@@QEAAX_N@Z
nmaa.dll ?setLocalizedText@MapLabeledIcon@nmacore@@QEAAXAEBVustring@ngeo@@0@Z
nmaa.dll ?getLanguage@DeviceConfiguration@nmacore@@SAAEBVustring@ngeo@@XZ
nmaa.dll ?getLocation@MapIcon@nmacore@@QEBAAEBVLocation@ngeo@@XZ
nmaa.dll ?getSize@MapIcon@nmacore@@QEBA?AVSizeInPixels@ngeo@@XZ
nmaa.dll ?getAnchorPoint@MapIcon@nmacore@@QEBA?AVPixelCoordinates@ngeo@@XZ
nmaa.dll ?getLocalizedText@MapLabeledIcon@nmacore@@QEBA?AVustring@ngeo@@AEBV34@@Z
nmaa.dll ?setAnchorPoint@MapIcon@nmacore@@QEAAXJJ@Z
nmaa.dll ??4MapLabeledIcon@nmacore@@QEAAAEAV01@AEBV01@@Z
nmaa.dll ??0MapLabeledIcon@nmacore@@QEAA@AEBV01@@Z
nmaa.dll ?mapModel@MapModelEngine@nmacore@@QEAAAEAVMapModel@ngeo@@XZ
nmaa.dll ?getMapModelEngine@Runtime@nmacore@@QEAAAEAVMapModelEngine@2@XZ
nmaa.dll ??1ITimerSource@msnma@@UEAA@XZ
nmaa.dll ?deserialize@Route@nmacore@@SAIAEAVIInStream@msnma@@PEAPEAV12@@Z
nmaa.dll ?getInstance@Runtime@nmacore@@SAAEAV12@XZ
nmaa.dll ?getMosConfiguration@Runtime@nmacore@@QEAAAEAVMosConfigurationImpl@2@XZ
nmaa.dll ?getId@MapObject@nmacore@@QEBAKXZ
nmaa.dll ??1MapPolyline@nmacore@@UEAA@XZ
nmaa.dll ??1MapPolygon@nmacore@@UEAA@XZ
nmaa.dll ?on_install_version_progress@MapLoader@nmacore@@MEAAXI@Z
nmaa.dll ??1MosConfigurationImpl@nmacore@@UEAA@XZ
nmaa.dll ?getResourceDbFile@MosConfigurationImpl@nmacore@@UEAA?AVustring@ngeo@@XZ
nmaa.dll ?getMwconfigFile@MosConfigurationImpl@nmacore@@UEAA?AVustring@ngeo@@XZ
nmaa.dll ?getInitalCdtFile@MosConfigurationImpl@nmacore@@UEAA?AVustring@ngeo@@XZ
nmaa.dll ?getGenericJunctionViewSkin@MosConfigurationImpl@nmacore@@UEAA?AVustring@ngeo@@XZ
nmaa.dll ?getJunctionViewSkinDirectory@MosConfigurationImpl@nmacore@@UEAA?AVustring@ngeo@@XZ
nmaa.dll ?getCacheDirectory@MosConfigurationImpl@nmacore@@UEAA?AVustring@ngeo@@XZ
nmaa.dll ?setUseTraffic@RouterEngine@nmacore@@QEAAX_N@Z
nmaa.dll ?getVoicesDirectory@MosConfigurationImpl@nmacore@@UEAA?AVustring@ngeo@@XZ
nmaa.dll ?getCategoryResourceDirectory@MosConfigurationImpl@nmacore@@UEAA?AVustring@ngeo@@XZ
maprouter.dll ?deserialize@Route@nmacore@Microsoft@@SAIAEAVIInStream@msnma@@PEAPEAV123@@Z
maprouter.dll ?setAllowTollRoads@RouteOptions@nmacore@Microsoft@@QEAAX_N@Z
maprouter.dll ?setAllowTunnels@RouteOptions@nmacore@Microsoft@@QEAAX_N@Z
maprouter.dll ?setAllowDirtRoads@RouteOptions@nmacore@Microsoft@@QEAAX_N@Z
maprouter.dll ??0Runtime@nmacore@Microsoft@@QEAA@XZ
maprouter.dll ??1Runtime@nmacore@Microsoft@@UEAA@XZ
maprouter.dll ?doInit@Runtime@nmacore@Microsoft@@QEAA?AW4TErrorCode@@AEBV?$basic_string@GU?$char_traits@G@std@@V?$allocator@G@2@@std@@0@Z
maprouter.dll ?setAllowParks@RouteOptions@nmacore@Microsoft@@QEAAX_N@Z
maprouter.dll ?setStartDirection@RouteOptions@nmacore@Microsoft@@QEAAXI@Z
maprouter.dll ?set_route_options@RoutePlan@ngeo@Microsoft@@QEAAXAEBVRouteOptions@23@@Z
maprouter.dll ?routeOptions@RouteOptions@nmacore@Microsoft@@QEBAAEBV1ngeo@3@XZ
maprouter.dll ?setTimerSource@Runtime@nmacore@Microsoft@@QEAAXAEBV?$shared_ptr@VITimerSource@msnma@@@std@@@Z
maprouter.dll ?suspend@Runtime@nmacore@Microsoft@@QEAA?AW4TErrorCode@@XZ
maprouter.dll ?resume@Runtime@nmacore@Microsoft@@QEAA?AW4TErrorCode@@XZ
maprouter.dll ?is_online@MapModel@ngeo@Microsoft@@QEBA_NXZ
maprouter.dll ?getMapModel@Runtime@nmacore@Microsoft@@QEAAAEAVMapModel@ngeo@3@XZ
maprouter.dll ?set_online@MapModel@ngeo@Microsoft@@QEAA?AW4ErrorCode@23@_N@Z
maprouter.dll ??0RouterEngine@nmacore@Microsoft@@QEAA@XZ
maprouter.dll ?setListener@RouterEngine@nmacore@Microsoft@@QEAAXPEAVIRouterEngineListener@23@@Z
maprouter.dll ??1RouterEngine@nmacore@Microsoft@@UEAA@XZ
maprouter.dll ??0RoutePlan@ngeo@Microsoft@@QEAA@XZ
maprouter.dll ??1RoutePlan@ngeo@Microsoft@@QEAA@XZ
maprouter.dll ??0RouteOptions@nmacore@Microsoft@@QEAA@XZ
maprouter.dll ??1RouteOptions@nmacore@Microsoft@@QEAA@XZ
maprouter.dll ??0GeoCoordinates@ngeo@Microsoft@@QEAA@AEBVIGeoCoordinates@msngeo@@@Z
maprouter.dll ??0RouteWaypoint@ngeo@Microsoft@@QEAA@AEBVLocation@12@W4Type@012@@Z
maprouter.dll ??0Location@ngeo@Microsoft@@QEAA@AEBVGeoCoordinates@12@AEBVLocationInfo@12@@Z
maprouter.dll ??0LocationInfo@ngeo@Microsoft@@QEAA@XZ
maprouter.dll ??1LocationInfo@ngeo@Microsoft@@QEAA@XZ
maprouter.dll ??1Location@ngeo@Microsoft@@UEAA@XZ
maprouter.dll ?insert_stopover@RoutePlan@ngeo@Microsoft@@QEAA?AW4ErrorCode@23@AEBVRouteWaypoint@23@I@Z
maprouter.dll ?setRouteMode@RouteOptions@nmacore@Microsoft@@QEAAXW4TRouteMode@123@@Z
maprouter.dll ?setRouteType@RouteOptions@nmacore@Microsoft@@QEAAXW4TRouteType@123@@Z
maprouter.dll ?setAllowHighways@RouteOptions@nmacore@Microsoft@@QEAAX_N@Z
maprouter.dll ?setAllowRailFerries@RouteOptions@nmacore@Microsoft@@QEAAX_N@Z
maprouter.dll ?setAllowBoatFerries@RouteOptions@nmacore@Microsoft@@QEAAX_N@Z
maprouter.dll ?setUseTraffic@RouterEngine@nmacore@Microsoft@@QEAAX_N@Z
maprouter.dll ?setBingMapsKey@RouterEngine@nmacore@Microsoft@@QEAAXAEBV?$basic_string@GU?$char_traits@G@std@@V?$allocator@G@2@@std@@@Z
maprouter.dll ?setFallbackMode@RouterEngine@nmacore@Microsoft@@QEAAXW4TFallbackMode@123@@Z
maprouter.dll ?calculate@RouterEngine@nmacore@Microsoft@@QEAA?AW4TErrorCode@@AEBVRoutePlan@ngeo@3@AEBVDynamicPenalty@63@@Z
maprouter.dll ??1GeoCoordinates@ngeo@Microsoft@@UEAA@XZ
maprouter.dll ??1DynamicPenalty@ngeo@Microsoft@@QEAA@XZ
maprouter.dll ??0IRouterEngineListener@nmacore@Microsoft@@QEAA@XZ
maprouter.dll ??1RouteWaypoint@ngeo@Microsoft@@UEAA@XZ
maprouter.dll ?on_end@RouterEngine@nmacore@Microsoft@@EEAAXW4ErrorCode@ngeo@3@AEBV?$vector@V?$bitset@$08@std@@V?$allocator@V?$bitset@$08@std@@@2@@std@@@Z
maprouter.dll ?on_result@RouterEngine@nmacore@Microsoft@@EEAAXAEBV?$vector@VRoute@ngeo@Microsoft@@V?$allocator@VRoute@ngeo@Microsoft@@@std@@@std@@@Z
maprouter.dll ?on_progress@RouterEngine@nmacore@Microsoft@@EEAAXI@Z
maprouter.dll ?getPollInterval@RouterEngine@nmacore@Microsoft@@MEAAHXZ
maprouter.dll ?resumeEngine@BaseEngine@nmacore@Microsoft@@UEAA_NXZ
maprouter.dll ?suspendEngine@BaseEngine@nmacore@Microsoft@@UEAA_NXZ
maprouter.dll ?stop@BaseEngine@nmacore@Microsoft@@UEAAXXZ
maprouter.dll ?start@BaseEngine@nmacore@Microsoft@@UEAAXXZ
maprouter.dll ?poll@RouterEngine@nmacore@Microsoft@@MEAAXXZ
maprouter.dll ?getEngineId@RouterEngine@nmacore@Microsoft@@MEBA?AW4TEngineID@BaseEngine@23@XZ
maprouter.dll ?getAlternativeRoutes@RouterEngine@nmacore@Microsoft@@QEBAAEBV?$vector@U?$pair@VRoute@nmacore@Microsoft@@H@std@@V?$allocator@U?$pair@VRoute@nmacore@Microsoft@@H@std@@@2@@std@@XZ
maprouter.dll ?getViolatedOptions@RouterEngine@nmacore@Microsoft@@QEBAHXZ
maprouter.dll ?cancel@RouterEngine@nmacore@Microsoft@@QEAAXXZ
maprouter.dll ??0DynamicPenalty@ngeo@Microsoft@@QEAA@XZ
mosstorage.dll MosStorageGetResourceDirectory
mosstorage.dll MosStorageGetBrowseCacheSizeInMBytes
mosstorage.dll MosStorageGetDataDirectory
mapconfiguration.dll ConfigurationManager_GetLocaleMapConfiguration
mapconfiguration.dll ConfigurationManager_Create
mapconfiguration.dll ConfigurationManager_Initialize
mapconfiguration.dll ConfigurationManager_Uninitialize
bingonlineservices.dll ?getHttpStatus@OnlineServiceData@BingOnlineServices@@QEBA?BHXZ
bingonlineservices.dll ?wait@event_impl@details@pplx@@QEAAII@Z
bingonlineservices.dll ??0critical_section_impl@details@pplx@@QEAA@XZ
bingonlineservices.dll ??1critical_section_impl@details@pplx@@QEAA@XZ
bingonlineservices.dll ?GetCurrentThreadId@platform@details@pplx@@YAJXZ
bingonlineservices.dll ?lock@critical_section_impl@details@pplx@@QEAAXXZ
bingonlineservices.dll ?unlock@critical_section_impl@details@pplx@@QEAAXXZ
bingonlineservices.dll ?set@event_impl@details@pplx@@QEAAXXZ
bingonlineservices.dll ??0event_impl@details@pplx@@QEAA@XZ
bingonlineservices.dll ??1event_impl@details@pplx@@QEAA@XZ
bingonlineservices.dll ?get_ambient_scheduler@pplx@@YA?AV?$shared_ptr@Uscheduler_interface@pplx@@@std@@XZ
bingonlineservices.dll ??0KeyVerificationRequest@BingOnlineServices@@QEAA@AEBV?$basic_string@GU?$char_traits@G@std@@V?$allocator@G@2@@std@@00@Z
bingonlineservices.dll ?ExecuteAsync@KeyVerificationRequest@BingOnlineServices@@QEAA?AV?$task@VKeyVerificationData@BingOnlineServices@@@pplx@@XZ
bingonlineservices.dll ??0KeyVerificationData@BingOnlineServices@@QEAA@AEBV01@@Z
bingonlineservices.dll ??1KeyVerificationRequest@BingOnlineServices@@QEAA@XZ
bingonlineservices.dll ??4KeyVerificationData@BingOnlineServices@@QEAAAEAV01@$$QEAV01@@Z
bingonlineservices.dll ??1KeyVerificationData@BingOnlineServices@@UEAA@XZ
bingonlineservices.dll ??0KeyVerificationData@BingOnlineServices@@QEAA@XZ
bingonlineservices.dll ?GetBingSessionId@KeyVerificationData@BingOnlineServices@@QEAAAEBV?$basic_string@GU?$char_traits@G@std@@V?$allocator@G@2@@std@@XZ
bingonlineservices.dll ?IsKeyValid@KeyVerificationData@BingOnlineServices@@QEAA_NXZ
api-ms-win-core-delayload-l1-1-1.dll DelayLoadFailureHook
api-ms-win-core-delayload-l1-1-1.dll ResolveDelayLoadedAPI
api-ms-win-crt-string-l1-1-0.dll wcsncmp
bcp47langs.dll GetUserLanguages
api-ms-win-core-processenvironment-l1-2-0.dll SearchPathW
api-ms-win-core-memory-l1-1-2.dll CreateFileMappingW
api-ms-win-core-memory-l1-1-2.dll UnmapViewOfFile
api-ms-win-core-memory-l1-1-2.dll MapViewOfFile
api-ms-win-core-registry-l1-1-1.dll RegSetKeyValueW
api-ms-win-core-localization-obsolete-l1-3-0.dll GetUserDefaultUILanguage
api-ms-win-core-localization-obsolete-l1-3-0.dll GetSystemDefaultUILanguage
api-ms-win-shcore-stream-l1-1-0.dll SHCreateStreamOnFileEx
