msvcrt.dll free
msvcrt.dll malloc
msvcrt.dll _initterm
msvcrt.dll __C_specific_handler
msvcrt.dll _XcptFilter
msvcrt.dll memcpy
msvcrt.dll _amsg_exit
msvcrt.dll memset
ntdll.dll RtlFreeHeap
ntdll.dll RtlInitUnicodeString
ntdll.dll NtQueryAttributesFile
ntdll.dll NtQuerySystemInformation
ntdll.dll NtSetThreadExecutionState
ntdll.dll RtlLocalTimeToSystemTime
ntdll.dll RtlCaptureContext
ntdll.dll RtlLookupFunctionEntry
ntdll.dll RtlVirtualUnwind
ntdll.dll RtlAllocateHeap
kernel32.dll GetSystemTimeAsFileTime
kernel32.dll GetTickCount
kernel32.dll GetCurrentThreadId
kernel32.dll Sleep
kernel32.dll UnhandledExceptionFilter
kernel32.dll SetUnhandledExceptionFilter
kernel32.dll GetCurrentProcess
kernel32.dll TerminateProcess
kernel32.dll QueryPerformanceCounter
kernel32.dll GetCurrentProcessId
ulib.dll ??0OBJECT@@IEAA@XZ
ulib.dll ??1OBJECT@@UEAA@XZ
ulib.dll ?ComputeCountSet@BITVECTOR@@AEBAKXZ
ulib.dll ?Initialize@CLASS_DESCRIPTOR@@QEAAEPEBD@Z
ulib.dll ??0CLASS_DESCRIPTOR@@QEAA@XZ
ulib.dll ?Stricmp@WSTRING@@SAHPEAG0@Z
ulib.dll ?Stricmp@WSTRING@@QEBAJPEBV1@@Z
ulib.dll ?ResetBit@BITVECTOR@@QEAAXKK@Z
ulib.dll ?FreeLibraryHandle@SYSTEM@@SAXPEAX@Z
ulib.dll ?QueryLibraryEntryPoint@SYSTEM@@SAP6A_JXZPEBVWSTRING@@0PEAPEAX@Z
ulib.dll ?Initialize@WSTRING@@QEAAEPEBGK@Z
ulib.dll ?Strcat@WSTRING@@QEAAEPEBV1@@Z
ulib.dll ?Initialize@WSTRING@@QEAAEPEBV1@KK@Z
ulib.dll ?Initialize@WSTRING@@QEAAEPEBDK@Z
ulib.dll ??1DSTRING@@UEAA@XZ
ulib.dll ??0DSTRING@@QEAA@XZ
ulib.dll ?Display@MESSAGE@@QEAAEPEBDZZ
ulib.dll ?SetBit@BITVECTOR@@QEAAXKK@Z
ulib.dll ??0HMEM@@QEAA@XZ
ulib.dll ??1HMEM@@UEAA@XZ
ulib.dll ?QuerySTR@WSTRING@@QEBAPEADKKPEADKE@Z
ulib.dll ?Initialize@HMEM@@QEAAEXZ
ulib.dll ??0FSTRING@@QEAA@XZ
ulib.dll ?DebugDump@OBJECT@@UEBAXE@Z
ulib.dll ?Compare@OBJECT@@UEBAJPEBV1@@Z
ulib.dll ??1FSTRING@@UEAA@XZ
ulib.dll ?QueryWSTR@WSTRING@@QEBAPEAGKKPEAGKE@Z
ufat.dll ?QueryEaSetClusterNumber@EA_HEADER@@QEBAGG@Z
ufat.dll ??1EA_SET@@UEAA@XZ
ufat.dll ?Initialize@EA_SET@@QEAAEPEAVMEM@@PEAVLOG_IO_DP_DRIVE@@PEAVFAT_SA@@PEBVFAT@@KK@Z
ufat.dll ?Read@EA_SET@@UEAAEXZ
ufat.dll ?GetEa@EA_SET@@QEAAPEAU_EA@@KPEAJPEAE@Z
ufat.dll ??0CLUSTER_CHAIN@@QEAA@XZ
ufat.dll ??1CLUSTER_CHAIN@@UEAA@XZ
ufat.dll ?Initialize@CLUSTER_CHAIN@@QEAAEPEAVMEM@@PEAVLOG_IO_DP_DRIVE@@PEAVFAT_SA@@PEBVFAT@@KK@Z
ufat.dll ?Initialize@FAT_DIRENT@@QEAAEPEAX@Z
ufat.dll ?Initialize@EA_HEADER@@QEAAEPEAVMEM@@PEAVLOG_IO_DP_DRIVE@@PEAVFAT_SA@@PEBVFAT@@KK@Z
ufat.dll ?QueryNthCluster@FAT@@QEBAKKK@Z
ufat.dll ??0EA_SET@@QEAA@XZ
ufat.dll ?Initialize@FILEDIR@@QEAAEPEAVMEM@@PEAVLOG_IO_DP_DRIVE@@PEAVFAT_SA@@PEBVFAT@@K@Z
ufat.dll ?QueryLongName@FATDIR@@QEAAEJPEAVWSTRING@@@Z
ufat.dll ?QueryName@FAT_DIRENT@@QEBAEPEAVWSTRING@@@Z
ufat.dll ?QueryLastAccessTime@FAT_DIRENT@@QEBAEPEAT_LARGE_INTEGER@@@Z
ufat.dll ?IsValidLastAccessTime@FAT_DIRENT@@QEBAEXZ
ufat.dll ?QueryCreationTime@FAT_DIRENT@@QEBAEPEAT_LARGE_INTEGER@@@Z
ufat.dll ?IsValidCreationTime@FAT_DIRENT@@QEBAEXZ
ufat.dll ?QueryLastWriteTime@FAT_DIRENT@@QEBAEPEAT_LARGE_INTEGER@@@Z
ufat.dll ??1FILEDIR@@UEAA@XZ
ufat.dll ??0FILEDIR@@QEAA@XZ
ufat.dll ?QueryCensusAndRelocate@FAT_SA@@QEAAEPEAU_CENSUS_REPORT@@PEAVINTSTACK@@PEAE@Z
ufat.dll ?QueryFreeSectors@REAL_FAT_SA@@QEBAKXZ
ufat.dll ?SearchForDirEntry@FATDIR@@QEAAPEAXPEBVWSTRING@@@Z
ufat.dll ?Initialize@FAT_DIRENT@@QEAAEPEAXE@Z
ufat.dll ??1FAT_DIRENT@@UEAA@XZ
ufat.dll ??0FAT_DIRENT@@QEAA@XZ
ufat.dll ??1EA_HEADER@@UEAA@XZ
ufat.dll ??0EA_HEADER@@QEAA@XZ
ufat.dll ?Read@CLUSTER_CHAIN@@UEAAEXZ
ufat.dll ?Index12@FAT@@AEBAKK@Z
ufat.dll ?Read@REAL_FAT_SA@@UEAAEPEAVMESSAGE@@@Z
ufat.dll ??0REAL_FAT_SA@@QEAA@XZ
ufat.dll ??1REAL_FAT_SA@@UEAA@XZ
ufat.dll ?Initialize@REAL_FAT_SA@@UEAAEPEAVLOG_IO_DP_DRIVE@@PEAVMESSAGE@@E@Z
untfs.dll ?AddExtent@NTFS_EXTENT_LIST@@QEAAEVBIG_INT@@00@Z
untfs.dll ?Initialize@NTFS_ATTRIBUTE@@QEAAEPEAVLOG_IO_DP_DRIVE@@KPEBVNTFS_EXTENT_LIST@@VBIG_INT@@2KPEBVWSTRING@@G@Z
untfs.dll ?Initialize@NTFS_BITMAP@@QEAAEVBIG_INT@@EPEAVLOG_IO_DP_DRIVE@@KE@Z
untfs.dll ??0NTFS_UPCASE_FILE@@QEAA@XZ
untfs.dll ??1NTFS_UPCASE_FILE@@UEAA@XZ
untfs.dll ??0NTFS_LOG_FILE@@QEAA@XZ
untfs.dll ??1NTFS_LOG_FILE@@UEAA@XZ
untfs.dll ?CreateElementaryStructures@NTFS_SA@@QEAAEPEAVNTFS_BITMAP@@KKKKPEBVNUMBER_SET@@EEEEEKPEAVMESSAGE@@PEAUBIOS_PARAMETER_BLOCK@@PEBVWSTRING@@@Z
untfs.dll ?Initialize@NTFS_MFT_FILE@@QEAAEW4FIX_LEVEL@@PEAVLOG_IO_DP_DRIVE@@VBIG_INT@@KK2PEAVNTFS_BITMAP@@PEAVNTFS_UPCASE_TABLE@@PEAVNTFS_ATTRIBUTE@@@Z
untfs.dll ?Initialize@NTFS_UPCASE_FILE@@QEAAEW4FIX_LEVEL@@PEAVNTFS_MASTER_FILE_TABLE@@@Z
untfs.dll ?QueryAttribute@NTFS_FILE_RECORD_SEGMENT@@QEAAEPEAVNTFS_ATTRIBUTE@@PEAEKPEBVWSTRING@@@Z
untfs.dll ?Initialize@NTFS_UPCASE_TABLE@@QEAAEPEAVNTFS_ATTRIBUTE@@PEA_K@Z
untfs.dll ?Flush@NTFS_MFT_FILE@@QEAAEXZ
untfs.dll ?Initialize@NTFS_LOG_FILE@@QEAAEW4FIX_LEVEL@@PEAVNTFS_MASTER_FILE_TABLE@@@Z
untfs.dll ??0NTFS_BITMAP_FILE@@QEAA@XZ
untfs.dll ??1NTFS_BITMAP_FILE@@UEAA@XZ
untfs.dll ?IsFree@NTFS_BITMAP@@QEBAEVBIG_INT@@0@Z
untfs.dll ?Initialize@NTFS_BITMAP_FILE@@QEAAEW4FIX_LEVEL@@PEAVNTFS_MASTER_FILE_TABLE@@@Z
untfs.dll ?Write@NTFS_BITMAP@@QEAAEPEAVNTFS_ATTRIBUTE@@PEAV1@@Z
untfs.dll ?QuerySectorsInElementaryStructures@NTFS_SA@@SAKPEAVDP_DRIVE@@KKKK@Z
untfs.dll ?WriteRemainingBootCode@NTFS_SA@@QEAAEXZ
untfs.dll ??1NTFS_EXTENT_LIST@@UEAA@XZ
untfs.dll ??0NTFS_EXTENT_LIST@@QEAA@XZ
untfs.dll ?MakeNonresident@NTFS_ATTRIBUTE@@UEAAEPEAVNTFS_BITMAP@@@Z
untfs.dll ?InsertEntry@NTFS_INDEX_TREE@@QEAAEKPEAXU_MFT_SEGMENT_REFERENCE@@E@Z
untfs.dll ?AddFileNameAttribute@NTFS_FILE_RECORD_SEGMENT@@QEAAEPEAU_FILE_NAME@@@Z
untfs.dll ?QueryDuplicatedInformation@NTFS_FILE_RECORD_SEGMENT@@QEAAEPEAU_DUPLICATED_INFORMATION@@@Z
untfs.dll ?AddSecurityDescriptor@NTFS_FILE_RECORD_SEGMENT@@QEAAEW4_CANNED_SECURITY_TYPE@@PEAVNTFS_BITMAP@@@Z
untfs.dll ?Create@NTFS_FILE_RECORD_SEGMENT@@QEAAEPEBU_STANDARD_INFORMATION@@G@Z
untfs.dll NtfsUpcaseCompare
untfs.dll ?Initialize@NTFS_INDEX_TREE@@QEAAEKPEAVLOG_IO_DP_DRIVE@@KPEAVNTFS_BITMAP@@PEAVNTFS_UPCASE_TABLE@@KKKPEBVWSTRING@@@Z
untfs.dll ?Flush@NTFS_FILE_RECORD_SEGMENT@@QEAAEPEAVNTFS_BITMAP@@PEAVNTFS_INDEX_TREE@@E@Z
untfs.dll ?Save@NTFS_INDEX_TREE@@QEAAEPEAVNTFS_FILE_RECORD_SEGMENT@@@Z
untfs.dll ??0NTFS_BITMAP@@QEAA@XZ
untfs.dll ??1NTFS_BITMAP@@UEAA@XZ
untfs.dll ??0NTFS_ATTRIBUTE@@QEAA@XZ
untfs.dll ??1NTFS_ATTRIBUTE@@UEAA@XZ
untfs.dll ?Initialize@NTFS_ATTRIBUTE@@QEAAEPEAVLOG_IO_DP_DRIVE@@KPEBXKKPEBVWSTRING@@G@Z
untfs.dll ?InsertIntoFile@NTFS_ATTRIBUTE@@UEAAEPEAVNTFS_FILE_RECORD_SEGMENT@@PEAVNTFS_BITMAP@@@Z
untfs.dll ?IsAttributePresent@NTFS_FILE_RECORD_SEGMENT@@QEAAEKPEBVWSTRING@@E@Z
untfs.dll ?AllocateFileRecordSegment@NTFS_MASTER_FILE_TABLE@@QEAAEPEAVBIG_INT@@E@Z
untfs.dll ?Extend@NTFS_MASTER_FILE_TABLE@@QEAAEK@Z
untfs.dll ??0NTFS_SA@@QEAA@XZ
untfs.dll ??1NTFS_SA@@UEAA@XZ
untfs.dll ??0NTFS_UPCASE_TABLE@@QEAA@XZ
untfs.dll ??1NTFS_UPCASE_TABLE@@UEAA@XZ
untfs.dll ??0NTFS_MFT_FILE@@QEAA@XZ
untfs.dll ??1NTFS_MFT_FILE@@UEAA@XZ
untfs.dll ?QueryDefaultClustersPerIndexBuffer@NTFS_SA@@SAKPEBVDP_DRIVE@@K@Z
untfs.dll ?Initialize@NTFS_SA@@QEAAEPEAVLOG_IO_DP_DRIVE@@PEAVMESSAGE@@VBIG_INT@@2@Z
untfs.dll ??0NTFS_FILE_RECORD_SEGMENT@@QEAA@XZ
untfs.dll ??1NTFS_FILE_RECORD_SEGMENT@@UEAA@XZ
untfs.dll ??0NTFS_INDEX_TREE@@QEAA@XZ
untfs.dll ??1NTFS_INDEX_TREE@@UEAA@XZ
untfs.dll ?Initialize@NTFS_FILE_RECORD_SEGMENT@@QEAAEW4FIX_LEVEL@@VBIG_INT@@PEAVNTFS_MFT_FILE@@@Z
untfs.dll ?Read@NTFS_FRS_STRUCTURE@@UEAAEXZ
untfs.dll ?Initialize@NTFS_INDEX_TREE@@QEAAEPEAVLOG_IO_DP_DRIVE@@KPEAVNTFS_BITMAP@@PEAVNTFS_UPCASE_TABLE@@KPEAVNTFS_FILE_RECORD_SEGMENT@@PEBVWSTRING@@@Z
untfs.dll ?Initialize@NTFS_EXTENT_LIST@@QEAAEVBIG_INT@@0@Z
ifsutil.dll ?Add@NUMBER_SET@@QEAAEVBIG_INT@@0@Z
ifsutil.dll ?Initialize@READ_WRITE_CACHE@@QEAAEPEAVIO_DP_DRIVE@@KE@Z
ifsutil.dll ?SetCache@IO_DP_DRIVE@@QEAAXPEAVDRIVE_CACHE@@@Z
ifsutil.dll RestoreThreadExecutionState
ifsutil.dll ??0LOG_IO_DP_DRIVE@@QEAA@XZ
ifsutil.dll ?Initialize@LOG_IO_DP_DRIVE@@QEAAEPEBVWSTRING@@PEAVMESSAGE@@E@Z
ifsutil.dll ?Lock@IO_DP_DRIVE@@QEAAEXZ
ifsutil.dll ?DismountVolume@IFS_SYSTEM@@SAEPEBVWSTRING@@@Z
ifsutil.dll ?Remove@NUMBER_SET@@QEAAEVBIG_INT@@0@Z
ifsutil.dll ??0READ_WRITE_CACHE@@QEAA@XZ
ifsutil.dll ??0NUMBER_SET@@QEAA@XZ
ifsutil.dll ??1NUMBER_SET@@UEAA@XZ
ifsutil.dll ?Write@IO_DP_DRIVE@@QEAAEVBIG_INT@@KPEAX@Z
ifsutil.dll ?Push@INTSTACK@@QEAAEVBIG_INT@@@Z
ifsutil.dll ?Initialize@INTSTACK@@QEAAEXZ
ifsutil.dll ??1INTSTACK@@UEAA@XZ
ifsutil.dll ??0INTSTACK@@QEAA@XZ
ifsutil.dll ?Initialize@NUMBER_SET@@QEAAEXZ
