advapi32.dll RegGetValueW
advapi32.dll EventWriteTransfer
advapi32.dll EventUnregister
advapi32.dll EventSetInformation
advapi32.dll EventRegister
advapi32.dll RegQueryValueExW
advapi32.dll RegOpenKeyW
advapi32.dll RegCloseKey
ntdll.dll RtlVirtualUnwind
ntdll.dll RtlLookupFunctionEntry
ntdll.dll RtlCaptureContext
ntdll.dll NtQueryWnfStateData
ntdll.dll RtlUnsubscribeWnfStateChangeNotification
ntdll.dll RtlSubscribeWnfStateChangeNotification
ntdll.dll RtlQueryWnfStateData
ntdll.dll RtlIsMultiUsersInSessionSku
quickactionsdatamodel.dll GetQuickActionsProvider
setupapi.dll SetupDiDestroyDeviceInfoList
setupapi.dll SetupDiGetDeviceInterfaceDetailW
setupapi.dll SetupDiEnumDeviceInterfaces
setupapi.dll SetupDiGetClassDevsW
setupapi.dll SetupDiGetDevicePropertyW
setupapi.dll SetupDiEnumDeviceInfo
kernel32.dll TerminateProcess
kernel32.dll GetCurrentProcess
kernel32.dll SetUnhandledExceptionFilter
kernel32.dll UnhandledExceptionFilter
kernel32.dll Sleep
kernel32.dll EncodePointer
kernel32.dll GetStringTypeW
kernel32.dll OutputDebugStringW
kernel32.dll GetCurrentThreadId
kernel32.dll FormatMessageW
kernel32.dll IsDebuggerPresent
kernel32.dll GetProcessHeap
kernel32.dll HeapFree
kernel32.dll CloseThreadpoolTimer
kernel32.dll WaitForThreadpoolTimerCallbacks
kernel32.dll SetThreadpoolTimer
kernel32.dll SetLastError
kernel32.dll GetLastError
kernel32.dll InitOnceBeginInitialize
kernel32.dll InitOnceComplete
kernel32.dll GetModuleFileNameA
kernel32.dll CreateSemaphoreExW
kernel32.dll CreateEventExW
kernel32.dll EnterCriticalSection
kernel32.dll QueryPerformanceCounter
kernel32.dll GetModuleHandleExW
kernel32.dll LeaveCriticalSection
kernel32.dll InitializeCriticalSectionEx
kernel32.dll WaitForSingleObject
kernel32.dll ReleaseMutex
kernel32.dll ReleaseSRWLockExclusive
kernel32.dll SetEvent
kernel32.dll AcquireSRWLockExclusive
kernel32.dll WaitForSingleObjectEx
kernel32.dll OpenSemaphoreW
kernel32.dll CloseHandle
kernel32.dll ReleaseSRWLockShared
kernel32.dll CreateThreadpoolTimer
kernel32.dll ResetEvent
kernel32.dll HeapAlloc
kernel32.dll GetProcAddress
kernel32.dll CreateMutexExW
kernel32.dll AcquireSRWLockShared
kernel32.dll DeleteCriticalSection
kernel32.dll GetCurrentProcessId
kernel32.dll GetModuleHandleW
kernel32.dll DebugBreak
kernel32.dll InitializeCriticalSection
kernel32.dll CompareStringOrdinal
kernel32.dll GetTickCount
kernel32.dll LocalAlloc
kernel32.dll LocalFree
kernel32.dll MulDiv
kernel32.dll GetModuleHandleExA
kernel32.dll WideCharToMultiByte
kernel32.dll MultiByteToWideChar
kernel32.dll InitOnceExecuteOnce
kernel32.dll GetSystemTimeAsFileTime
kernel32.dll WakeAllConditionVariable
kernel32.dll ReleaseSemaphore
kernel32.dll DecodePointer
kernel32.dll SleepConditionVariableSRW
msvcrt.dll _lock
msvcrt.dll _unlock
msvcrt.dll ___mb_cur_max_func
msvcrt.dll ___lc_handle_func
msvcrt.dll ___lc_codepage_func
msvcrt.dll _ismbblead
msvcrt.dll __pctype_func
msvcrt.dll calloc
msvcrt.dll ___lc_collate_cp_func
msvcrt.dll memcmp
msvcrt.dll abort
msvcrt.dll _wcsdup
msvcrt.dll __crtCompareStringW
msvcrt.dll __crtLCMapStringW
msvcrt.dll _wsetlocale
msvcrt.dll __uncaught_exception
msvcrt.dll __dllonexit
msvcrt.dll __C_specific_handler
msvcrt.dll _onexit
msvcrt.dll ??1type_info@@UEAA@XZ
msvcrt.dll _XcptFilter
msvcrt.dll _amsg_exit
msvcrt.dll _initterm
msvcrt.dll ??0exception@@QEAA@XZ
msvcrt.dll ?terminate@@YAXXZ
msvcrt.dll __ExceptionPtrCreate
msvcrt.dll __ExceptionPtrCurrentException
msvcrt.dll __ExceptionPtrCopy
msvcrt.dll __ExceptionPtrDestroy
msvcrt.dll free
msvcrt.dll ??0bad_cast@@QEAA@PEBD@Z
msvcrt.dll ??1bad_cast@@UEAA@XZ
msvcrt.dll ??0bad_cast@@QEAA@AEBV0@@Z
msvcrt.dll ??0exception@@QEAA@AEBQEBD@Z
msvcrt.dll ??1exception@@UEAA@XZ
msvcrt.dll ?what@exception@@UEBAPEBDXZ
msvcrt.dll ??0exception@@QEAA@AEBV0@@Z
msvcrt.dll _purecall
msvcrt.dll _vsnwprintf
msvcrt.dll setlocale
msvcrt.dll memmove
msvcrt.dll memcpy
msvcrt.dll ??0exception@@QEAA@AEBQEBDH@Z
msvcrt.dll _callnewh
msvcrt.dll malloc
msvcrt.dll _CxxThrowException
msvcrt.dll wcslen
msvcrt.dll __ExceptionPtrRethrow
msvcrt.dll __CxxFrameHandler3
msvcrt.dll qsort
msvcrt.dll _wtoi
msvcrt.dll realloc
msvcrt.dll strchr
msvcrt.dll wcstol
msvcrt.dll _errno
msvcrt.dll wcsrchr
msvcrt.dll memmove_s
msvcrt.dll wcsstr
msvcrt.dll _vsnprintf_s
msvcrt.dll memcpy_s
msvcrt.dll ??3@YAXPEAX@Z
msvcrt.dll __CxxFrameHandler4
msvcrt.dll memset
msvcrt.dll floor
wincorlib.dll ?GetIidsFn@@YAJHPEAKPEBU__s_GUID@@PEAPEAVGuid@Platform@@@Z
wincorlib.dll ?GetActivationFactoryByPCWSTR@@YAJPEAXAEAVGuid@Platform@@PEAPEAX@Z
wincorlib.dll ?ReCreateFromException@Details@Platform@@YAJPE$AAVException@2@@Z
wincorlib.dll ?TerminateModule@Details@Platform@@YA_NPEAVModuleBase@1WRL@Microsoft@@@Z
wincorlib.dll ?UninitializeData@Details@Platform@@YAXH@Z
wincorlib.dll ?InitializeData@Details@Platform@@YAJH@Z
wincorlib.dll ?EventSourceGetTargetArrayEvent@Details@Platform@@YAPEAXPEAXIPEBXPEA_J@Z
wincorlib.dll ?EventSourceGetTargetArraySize@Details@Platform@@YAIPEAX@Z
wincorlib.dll ?EventSourceGetTargetArray@Details@Platform@@YAPEAXPEAXPEAUEventLock@12@@Z
wincorlib.dll ??0ChangedStateException@Platform@@QE$AAA@XZ
wincorlib.dll ??0OutOfBoundsException@Platform@@QE$AAA@XZ
wincorlib.dll ?__abi_FailFast@@YAXXZ
wincorlib.dll ?get@Message@Exception@Platform@@QE$AAAPE$AAVString@3@XZ
wincorlib.dll ?ReCreateException@Exception@Platform@@SAPE$AAV12@H@Z
wincorlib.dll ?get@FullName@Type@Platform@@QE$AAAPE$AAVString@3@XZ
wincorlib.dll ??0Exception@Platform@@QE$AAA@H@Z
wincorlib.dll ??0FailureException@Platform@@QE$AAA@PE$AAVString@1@@Z
wincorlib.dll ??0DisconnectedException@Platform@@QE$AAA@XZ
wincorlib.dll ?CreateValue@Details@Platform@@YAPE$AAVObject@2@W4TypeCode@2@PEBX@Z
wincorlib.dll ?GetTypeCode@Type@Platform@@SA?AW4TypeCode@2@PE$AAV12@@Z
wincorlib.dll ?__abi_ObjectToString@__abi_details@@YAPE$AAVString@Platform@@PE$AAVObject@3@_N@Z
wincorlib.dll ?GetIBoxVtable@Details@Platform@@YAPEAXPEAX@Z
wincorlib.dll ??0OutOfMemoryException@Platform@@QE$AAA@XZ
wincorlib.dll ?__abi_make_type_id@@YAPE$AAVType@Platform@@AEBU__abi_type_descriptor@@@Z
wincorlib.dll ??BType@Platform@@SA?AVTypeName@Interop@Xaml@UI@Windows@@PE$AAV01@@Z
wincorlib.dll ??0Delegate@Platform@@QE$AAA@XZ
wincorlib.dll ?Allocate@Heap@Details@Platform@@SAPEAX_K@Z
wincorlib.dll ?ResolveWeakReference@Details@Platform@@YAPE$AAVObject@2@AEBU_GUID@@PEAPEAU__abi_IUnknown@@@Z
wincorlib.dll ?Allocate@Heap@Details@Platform@@SAPEAX_K0@Z
wincorlib.dll ?__abi_cast_String_to_Object@__abi_details@@YAPE$AAVObject@Platform@@PE$AAVString@3@@Z
wincorlib.dll ??0NullReferenceException@Platform@@QE$AAA@XZ
wincorlib.dll ??0NotImplementedException@Platform@@QE$AAA@XZ
wincorlib.dll ?AllocateException@Heap@Details@Platform@@SAPEAX_K0@Z
wincorlib.dll ?EventSourceUninitialize@Details@Platform@@YAXPEAPEAX@Z
wincorlib.dll ?__abi_WinRTraiseNotImplementedException@@YAXXZ
wincorlib.dll ?__abi_WinRTraiseInvalidCastException@@YAXXZ
wincorlib.dll ?__abi_WinRTraiseNullReferenceException@@YAXXZ
wincorlib.dll ?__abi_WinRTraiseOperationCanceledException@@YAXXZ
wincorlib.dll ?__abi_WinRTraiseFailureException@@YAXXZ
wincorlib.dll ?__abi_WinRTraiseAccessDeniedException@@YAXXZ
wincorlib.dll ?__abi_WinRTraiseOutOfMemoryException@@YAXXZ
wincorlib.dll ?EventSourceRemove@Details@Platform@@YAXPEAPEAXPEAUEventLock@12@VEventRegistrationToken@Foundation@Windows@@@Z
wincorlib.dll ?EventSourceAdd@Details@Platform@@YA?AVEventRegistrationToken@Foundation@Windows@@PEAPEAXPEAUEventLock@12@PE$AAVDelegate@2@@Z
wincorlib.dll ??0InvalidArgumentException@Platform@@QE$AAA@PE$AAVString@1@@Z
wincorlib.dll ?Equals@Object@Platform@@QE$AAA_NPE$AAV12@@Z
wincorlib.dll ?__abi_cast_Object_to_String@__abi_details@@YAPE$AAVString@Platform@@_NPE$AAVObject@3@@Z
wincorlib.dll ?GetIBoxArrayVtable@Details@Platform@@YAPEAXPEAX@Z
wincorlib.dll ??0InvalidArgumentException@Platform@@QE$AAA@XZ
wincorlib.dll ?__abi_WinRTraiseInvalidArgumentException@@YAXXZ
wincorlib.dll ?__abi_WinRTraiseOutOfBoundsException@@YAXXZ
wincorlib.dll ?__abi_WinRTraiseChangedStateException@@YAXXZ
wincorlib.dll ?__abi_WinRTraiseClassNotRegisteredException@@YAXXZ
wincorlib.dll ?__abi_WinRTraiseWrongThreadException@@YAXXZ
wincorlib.dll ?__abi_WinRTraiseDisconnectedException@@YAXXZ
wincorlib.dll ?__abi_WinRTraiseObjectDisposedException@@YAXXZ
wincorlib.dll ?__abi_WinRTraiseCOMException@@YAXJ@Z
wincorlib.dll ?GetWeakReference@Details@Platform@@YAPEAU__abi_IUnknown@@QE$ADVObject@2@@Z
wincorlib.dll ?ReleaseTarget@ControlBlock@Details@Platform@@AEAAXXZ
wincorlib.dll ?AlignedFree@Heap@Details@Platform@@SAXPEAX@Z
wincorlib.dll ?Free@Heap@Details@Platform@@SAXPEAX@Z
wincorlib.dll ??0Object@Platform@@QE$AAA@XZ
wincorlib.dll ?EventSourceInitialize@Details@Platform@@YAXPEAPEAX@Z
wincorlib.dll ??0FailureException@Platform@@QE$AAA@XZ
wincorlib.dll ?CreateException@Exception@Platform@@SAPE$AAV12@H@Z
wincorlib.dll ?GetActivationFactory@Details@Platform@@YAJPEAVModuleBase@1WRL@Microsoft@@PEAUHSTRING__@@PEAPEAUIActivationFactory@@@Z
wincorlib.dll ?CreateException@Exception@Platform@@SAPE$AAV12@HPE$AAVString@2@@Z
ole32.dll CoTaskMemAlloc
ole32.dll CoCreateFreeThreadedMarshaler
ole32.dll CoGetInterfaceAndReleaseStream
ole32.dll CoMarshalInterThreadInterfaceInStream
ole32.dll CoGetApartmentType
ole32.dll CoGetObjectContext
ole32.dll CoTaskMemFree
api-ms-win-core-winrt-error-l1-1-0.dll RoOriginateError
api-ms-win-core-winrt-string-l1-1-0.dll WindowsCreateStringReference
api-ms-win-core-winrt-string-l1-1-0.dll WindowsDeleteString
api-ms-win-core-winrt-string-l1-1-0.dll WindowsDuplicateString
api-ms-win-core-winrt-string-l1-1-0.dll WindowsGetStringLen
api-ms-win-core-winrt-string-l1-1-0.dll WindowsGetStringRawBuffer
api-ms-win-core-winrt-string-l1-1-0.dll WindowsCreateString
api-ms-win-core-winrt-string-l1-1-0.dll WindowsConcatString
api-ms-win-core-winrt-string-l1-1-0.dll WindowsIsStringEmpty
api-ms-win-core-winrt-string-l1-1-0.dll WindowsCompareStringOrdinal
