msvcrt.dll _amsg_exit
msvcrt.dll free
msvcrt.dll malloc
msvcrt.dll _ftol2
msvcrt.dll atol
msvcrt.dll _vsnprintf
msvcrt.dll iswspace
msvcrt.dll ??1type_info@@UAE@XZ
msvcrt.dll ?terminate@@YAXXZ
msvcrt.dll __dllonexit
msvcrt.dll _onexit
msvcrt.dll sscanf_s
msvcrt.dll _except_handler4_common
msvcrt.dll memcmp
msvcrt.dll _XcptFilter
msvcrt.dll _initterm
msvcrt.dll _unlock
msvcrt.dll _lock
msvcrt.dll memmove
msvcrt.dll memcpy
msvcrt.dll _CxxThrowException
msvcrt.dll ?what@exception@@UBEPBDXZ
msvcrt.dll ??1exception@@UAE@XZ
msvcrt.dll ??0exception@@QAE@ABV0@@Z
msvcrt.dll ??0exception@@QAE@ABQBDH@Z
msvcrt.dll ??0exception@@QAE@ABQBD@Z
msvcrt.dll _vsnwprintf
msvcrt.dll wcschr
msvcrt.dll fprintf
msvcrt.dll _purecall
msvcrt.dll __CxxFrameHandler3
msvcrt.dll memset
oleaut32.dll SysFreeString
oleaut32.dll SysAllocString
oleaut32.dll VariantCopy
oleaut32.dll VariantInit
oleaut32.dll VariantClear
oleaut32.dll VariantChangeType
kernel32.dll TerminateProcess
kernel32.dll GetCurrentProcess
kernel32.dll SetUnhandledExceptionFilter
kernel32.dll UnhandledExceptionFilter
kernel32.dll GetTickCount
kernel32.dll GetCurrentThreadId
kernel32.dll QueryPerformanceCounter
kernel32.dll InitializeCriticalSectionEx
kernel32.dll DeleteCriticalSection
kernel32.dll DisableThreadLibraryCalls
kernel32.dll GetModuleFileNameW
kernel32.dll DebugBreak
kernel32.dll GetSystemTimeAsFileTime
kernel32.dll GetProcAddress
kernel32.dll LoadLibraryExW
kernel32.dll FreeLibrary
kernel32.dll SetLastError
kernel32.dll ResetEvent
kernel32.dll LCMapStringW
kernel32.dll WaitForMultipleObjectsEx
kernel32.dll VirtualFree
kernel32.dll VirtualAlloc
kernel32.dll VirtualQuery
kernel32.dll WaitForSingleObject
kernel32.dll EnterCriticalSection
kernel32.dll LeaveCriticalSection
kernel32.dll CloseHandle
kernel32.dll Sleep
kernel32.dll GetCurrentProcessId
kernel32.dll SetEvent
kernel32.dll CreateThread
kernel32.dll CreateEventW
kernel32.dll GetLastError
ole32.dll CoReleaseMarshalData
ole32.dll CoMarshalInterThreadInterfaceInStream
ole32.dll CoUnmarshalInterface
ole32.dll CoGetCallContext
ole32.dll CoMarshalInterface
ole32.dll CoGetMarshalSizeMax
ole32.dll CoTaskMemFree
ole32.dll CoInitializeEx
ole32.dll CoGetInterfaceAndReleaseStream
ole32.dll CoUninitialize
ole32.dll CoCreateInstance
ole32.dll StringFromGUID2
ntdll.dll RtlLengthSid
ntdll.dll RtlLengthSecurityDescriptor
ntdll.dll RtlEqualSid
ntdll.dll RtlFreeSid
api-ms-win-core-heap-l1-1-0.dll GetProcessHeap
api-ms-win-core-heap-l1-1-0.dll HeapAlloc
api-ms-win-core-heap-l1-1-0.dll HeapFree
api-ms-win-core-heap-l1-1-0.dll HeapReAlloc
api-ms-win-core-sysinfo-l1-1-0.dll GetVersion
api-ms-win-core-libraryloader-l1-1-0.dll GetModuleHandleW
wbemcomn.dll ??4CLike@@QAEAAV0@ABV0@@Z
wbemcomn.dll ??0CPropertyName@@QAE@ABV0@@Z
wbemcomn.dll ??0CWStringArray@@QAE@HH@Z
wbemcomn.dll ??1CWStringArray@@QAE@XZ
wbemcomn.dll ??4CFlexArray@@QAEAAV0@AAV0@@Z
wbemcomn.dll ?UnbindPtr@CFlexArray@@QAEPAPAXXZ
wbemcomn.dll ?CopyDataFrom@CFlexArray@@QAEHABV1@@Z
wbemcomn.dll ??0CFlexArray@@QAE@AAV0@@Z
wbemcomn.dll ??4CPropertyName@@QAEXABV0@@Z
wbemcomn.dll ??0WString@@QAE@XZ
wbemcomn.dll ??1CLike@@QAE@XZ
wbemcomn.dll ReadUI64
wbemcomn.dll ReadI64
wbemcomn.dll ??0WString@@QAE@PAGH@Z
wbemcomn.dll ??0WString@@QAE@PBG@Z
wbemcomn.dll ?Add@CWStringArray@@QAEHPBG@Z
wbemcomn.dll ?GetStringAt@CPropertyName@@QBEPBGJ@Z
wbemcomn.dll ?EnsureExtent@CFlexArray@@QAEHH@Z
wbemcomn.dll ?RemoveAt@CFlexArray@@QAEHH@Z
wbemcomn.dll ?AddElement@CPropertyName@@QAEXPBG@Z
wbemcomn.dll ??1CVar@@QAE@XZ
wbemcomn.dll ??4WString@@QAEAAV0@PBG@Z
wbemcomn.dll ?Match@CLike@@QAE_NPBG@Z
wbemcomn.dll ?SetExpression@CLike@@QAEXPBGG@Z
wbemcomn.dll ?UnbindPtr@WString@@QAEPAGXZ
wbemcomn.dll ??0QL1_Parser@@QAE@PAVCGenLexSource@@@Z
wbemcomn.dll ??1QL1_Parser@@UAE@XZ
wbemcomn.dll ?Parse@QL1_Parser@@QAEHPAPAUQL_LEVEL_1_RPN_EXPRESSION@@@Z
wbemcomn.dll ChangeVariantToCIMTYPE
wbemcomn.dll ??8CPropertyName@@QAEHABU_tag_WbemPropertyName@@@Z
wbemcomn.dll ??1QL_LEVEL_1_RPN_EXPRESSION@@QAE@XZ
wbemcomn.dll ??1CPropertyName@@QAE@XZ
wbemcomn.dll ??0CPropertyName@@QAE@XZ
wbemcomn.dll ??1WString@@QAE@XZ
wbemcomn.dll ??0WString@@QAE@ABV0@@Z
wbemcomn.dll ??0CVar@@QAE@XZ
wbemcomn.dll ??0QL_LEVEL_1_RPN_EXPRESSION@@QAE@XZ
wbemcomn.dll ?AddToken@QL_LEVEL_1_RPN_EXPRESSION@@QAEXABUQL_LEVEL_1_TOKEN@@@Z
wbemcomn.dll ??0QL_LEVEL_1_TOKEN@@QAE@XZ
wbemcomn.dll ?Empty@CWStringArray@@QAEXXZ
wbemcomn.dll ?Union@CWStringArray@@SGXAAV1@00@Z
wbemcomn.dll ??4CWStringArray@@QAEAAV0@AAV0@@Z
wbemcomn.dll ?FindStr@CWStringArray@@QAEHPBGH@Z
wbemcomn.dll ?AddProperty@QL_LEVEL_1_RPN_EXPRESSION@@UAEXABVCPropertyName@@@Z
wbemcomn.dll ?SetClassName@QL_LEVEL_1_RPN_EXPRESSION@@UAEXPBG@Z
wbemcomn.dll ?GetText@QL_LEVEL_1_RPN_EXPRESSION@@QAEPAGXZ
wbemcomn.dll NormalizeCimDateTime
wbemcomn.dll ??0CDateTimeParser@@QAE@PBG@Z
wbemcomn.dll ??1CDateTimeParser@@QAE@XZ
wbemcomn.dll ??ACFlexArray@@QBEPAXH@Z
wbemcomn.dll ?SetDMTF@CWbemTime@@QAEHPBG@Z
wbemcomn.dll ?SetVariant@CVar@@QAEHPAUtagVARIANT@@H@Z
wbemcomn.dll ?IsDataNull@CVar@@QAEHXZ
wbemcomn.dll ?ChangeTypeTo@CVar@@QAEHG@Z
wbemcomn.dll ?GetText@QL_LEVEL_1_TOKEN@@QAEPAGXZ
wbemcomn.dll ??0CLike@@QAE@PBGG@Z
wbemcomn.dll ?Enter@CWbemCriticalSection@@QAEHK@Z
wbemcomn.dll ?Leave@CWbemCriticalSection@@QAEXXZ
wbemcomn.dll ??0CWbemCriticalSection@@QAE@XZ
wbemcomn.dll ??1CWbemCriticalSection@@QAE@XZ
wbemcomn.dll ??0CNtSid@@QAE@W4SidType@0@@Z
wbemcomn.dll ??1CNtSid@@QAE@XZ
wbemcomn.dll ??_7CUnkInternal@@6B@
wbemcomn.dll ?InternalRelease@CUnkInternal@@QAEKXZ
wbemcomn.dll ?Release@CUnkInternal@@UAGKXZ
wbemcomn.dll ?AddRef@CUnkInternal@@UAGKXZ
wbemcomn.dll ?QueryInterface@CUnkInternal@@UAGJABU_GUID@@PAPAX@Z
wbemcomn.dll ??1CUnkInternal@@UAE@XZ
wbemcomn.dll ??0CUnkInternal@@QAE@PAVCLifeControl@@@Z
wbemcomn.dll ??0CStaticCritSec@@QAE@XZ
wbemcomn.dll ??1CStaticCritSec@@QAE@XZ
wbemcomn.dll ?anyFailure@CStaticCritSec@@SGHXZ
wbemcomn.dll ?InsertAt@CFlexArray@@QAEHHPAX@Z
wbemcomn.dll ??1CInCritSec@@QAE@XZ
wbemcomn.dll ?Add@CFlexArray@@QAEHPAX@Z
wbemcomn.dll ?GetQueueSize@CFlexQueue@@QBEHXZ
wbemcomn.dll ?Unqueue@CFlexQueue@@QAEPAXXZ
wbemcomn.dll ?Empty@CFlexArray@@QAEXXZ
wbemcomn.dll ?SetAt@CFlexArray@@QAEXHPAX@Z
wbemcomn.dll ??ACFlexArray@@QAEAAPAXH@Z
wbemcomn.dll ??1CFlexArray@@QAE@XZ
wbemcomn.dll ??0CFlexArray@@QAE@HH@Z
wbemcomn.dll ?GetAt@CFlexArray@@QBEPAXH@Z
wbemcomn.dll ??1QL_LEVEL_1_TOKEN@@QAE@XZ
wbemcomn.dll ??0QL_LEVEL_1_TOKEN@@QAE@ABU0@@Z
wbemcomn.dll ?Enqueue@CFlexQueue@@QAE_NPAX@Z
wbemcomn.dll ??1CFlexQueue@@QAE@XZ
wbemcomn.dll ??0CFlexQueue@@QAE@H@Z
wbemcomn.dll GetMemLogObject
wbemcomn.dll ?Write@CMemoryLog@@QAEXJ@Z
wbemcomn.dll ?WbemMemFree@CWin32DefaultArena@@SAHPAX@Z
wbemcomn.dll ?WbemMemAlloc@CWin32DefaultArena@@SAPAXK@Z
wbemcomn.dll ?Empty@CPropertyName@@QAEXXZ
wbemcomn.dll _ThrowMemoryException_
wbemcomn.dll ??0CCritSec@@QAE@XZ
wbemcomn.dll ?FillDMTF@CDateTimeParser@@QAEHPAGI@Z
wbemcomn.dll ??0CInCritSec@@QAE@PAU_RTL_CRITICAL_SECTION@@@Z
wbemcomn.dll ??1CCritSec@@QAE@XZ
fastprox.dll ?SetFromUnicode@CCompressedString@@QAEXPBG@Z
fastprox.dll ?GetLength@CCompressedString@@QBEHXZ
fastprox.dll ?ComputeNecessarySpace@CCompressedString@@SGHPBG@Z
fastprox.dll ?CompareNoCase@CCompressedString@@QBEHABV1@@Z
fastprox.dll ??0CInternalString@@QAE@PBG@Z
fastprox.dll ?CreateWStringCopy@CCompressedString@@QBE?AVWString@@XZ
fastprox.dll ??BCInternalString@@QBE?AVWString@@XZ
fastprox.dll ?CheapCompare@CCompressedString@@QBEHABV1@@Z
fastprox.dll ?CreateBSTRCopy@CCompressedString@@QBEPAGXZ
fastprox.dll ??4CInternalString@@QAEAAV0@ABV0@@Z
fastprox.dll ??0CInternalString@@QAE@ABV0@@Z
fastprox.dll ?GetParentAtIndex@CWbemObject@@QAEPAVCCompressedString@@H@Z
fastprox.dll ?AcquireCompressedString@CInternalString@@QAEXPAVCCompressedString@@@Z
fastprox.dll ??1CInternalString@@QAE@XZ
fastprox.dll ?GetVARTYPE@CType@@SGGK@Z
fastprox.dll WbemStringCopy
