msvcrt.dll _lock
msvcrt.dll _except_handler4_common
msvcrt.dll ?terminate@@YAXXZ
msvcrt.dll ??1type_info@@UAE@XZ
msvcrt.dll _initterm
msvcrt.dll malloc
msvcrt.dll free
msvcrt.dll _amsg_exit
msvcrt.dll _XcptFilter
msvcrt.dll memmove
msvcrt.dll memcpy
msvcrt.dll _CxxThrowException
msvcrt.dll ?what@exception@@UBEPBDXZ
msvcrt.dll ??0exception@@QAE@ABQBDH@Z
msvcrt.dll ??0exception@@QAE@ABQBD@Z
msvcrt.dll wcsncmp
msvcrt.dll wcsstr
msvcrt.dll _wcslwr_s
msvcrt.dll __dllonexit
msvcrt.dll _snwprintf_s
msvcrt.dll wcscpy_s
msvcrt.dll wcsncpy_s
msvcrt.dll _ultow
msvcrt.dll _beginthreadex
msvcrt.dll strchr
msvcrt.dll wcschr
msvcrt.dll memmove_s
msvcrt.dll ??0exception@@QAE@ABV0@@Z
msvcrt.dll _vsnprintf_s
msvcrt.dll memcpy_s
msvcrt.dll _vsnwprintf
msvcrt.dll ??1exception@@UAE@XZ
msvcrt.dll ??0exception@@QAE@XZ
msvcrt.dll _resetstkoflw
msvcrt.dll sscanf_s
msvcrt.dll atol
msvcrt.dll _vsnprintf
msvcrt.dll iswspace
msvcrt.dll _unlock
msvcrt.dll _onexit
msvcrt.dll wcscat_s
msvcrt.dll memcmp
msvcrt.dll _purecall
msvcrt.dll __CxxFrameHandler3
msvcrt.dll memset
kernel32.dll DuplicateHandle
kernel32.dll SetEvent
kernel32.dll CreateEventW
kernel32.dll InitializeCriticalSection
kernel32.dll GetSystemDirectoryW
kernel32.dll GetModuleFileNameW
kernel32.dll DisableThreadLibraryCalls
kernel32.dll LoadLibraryExW
kernel32.dll FreeLibrary
kernel32.dll LocalFree
kernel32.dll QueryPerformanceCounter
kernel32.dll UnhandledExceptionFilter
kernel32.dll lstrlenW
kernel32.dll ResumeThread
kernel32.dll SetUnhandledExceptionFilter
kernel32.dll GetCurrentProcess
kernel32.dll TerminateProcess
kernel32.dll GetCurrentThread
kernel32.dll GetSystemTimeAsFileTime
kernel32.dll GetComputerNameExW
kernel32.dll GetCurrentThreadId
kernel32.dll GetTickCount
kernel32.dll Sleep
kernel32.dll GetStringTypeExW
kernel32.dll HeapDestroy
kernel32.dll HeapCreate
kernel32.dll WideCharToMultiByte
kernel32.dll SetThreadpoolTimer
kernel32.dll HeapReAlloc
kernel32.dll LCMapStringW
kernel32.dll CreateSemaphoreExW
kernel32.dll CreateMutexExW
kernel32.dll GetCurrentProcessId
kernel32.dll CreateThreadpoolTimer
kernel32.dll OpenSemaphoreW
kernel32.dll WaitForSingleObject
kernel32.dll InitializeCriticalSectionEx
kernel32.dll WaitForSingleObjectEx
kernel32.dll CloseThreadpoolTimer
kernel32.dll WaitForThreadpoolTimerCallbacks
kernel32.dll ReleaseMutex
kernel32.dll InitializeCriticalSectionAndSpinCount
kernel32.dll DeleteCriticalSection
kernel32.dll EnterCriticalSection
kernel32.dll LeaveCriticalSection
kernel32.dll LocalAlloc
kernel32.dll ReleaseSemaphore
kernel32.dll SetLastError
kernel32.dll HeapAlloc
kernel32.dll HeapFree
kernel32.dll ReleaseSRWLockShared
kernel32.dll CloseHandle
kernel32.dll FormatMessageW
kernel32.dll GetProcessHeap
kernel32.dll GetModuleHandleExW
kernel32.dll GetModuleFileNameA
kernel32.dll DebugBreak
kernel32.dll GetModuleHandleW
kernel32.dll GetProcAddress
kernel32.dll GetLastError
kernel32.dll IsDebuggerPresent
kernel32.dll OutputDebugStringW
kernel32.dll AcquireSRWLockExclusive
kernel32.dll ReleaseSRWLockExclusive
kernel32.dll AcquireSRWLockShared
oleaut32.dll VariantInit
oleaut32.dll SysAllocString
oleaut32.dll SafeArrayGetElement
oleaut32.dll SysReAllocString
oleaut32.dll VariantClear
oleaut32.dll SafeArrayAccessData
oleaut32.dll SafeArrayUnaccessData
oleaut32.dll SysStringLen
oleaut32.dll SafeArrayGetLBound
oleaut32.dll SafeArrayGetUBound
oleaut32.dll SafeArrayGetElemsize
oleaut32.dll SafeArrayCreate
oleaut32.dll GetErrorInfo
oleaut32.dll SetErrorInfo
oleaut32.dll VariantCopy
oleaut32.dll SafeArrayPutElement
oleaut32.dll SysFreeString
oleaut32.dll SafeArrayDestroy
oleaut32.dll VariantChangeType
oleaut32.dll SysAllocStringLen
ole32.dll CoSetProxyBlanket
ole32.dll CLSIDFromString
ole32.dll CoTaskMemAlloc
ole32.dll CoRevertToSelf
ole32.dll CoImpersonateClient
ole32.dll CoCreateGuid
ole32.dll CoCreateInstance
ole32.dll CoUnmarshalInterface
ole32.dll CoSwitchCallContext
ole32.dll CoMarshalInterface
ole32.dll CoGetMarshalSizeMax
ole32.dll StringFromGUID2
ole32.dll CoGetCallContext
ole32.dll CoUninitialize
ole32.dll CoInitializeEx
ole32.dll CoMarshalInterThreadInterfaceInStream
ole32.dll CoQueryProxyBlanket
ole32.dll CoTaskMemRealloc
ole32.dll CoGetClassObject
ole32.dll CoGetInterfaceAndReleaseStream
ole32.dll CoTaskMemFree
advapi32.dll AdjustTokenPrivileges
advapi32.dll GetKernelObjectSecurity
advapi32.dll RegQueryValueExW
advapi32.dll GetTokenInformation
advapi32.dll RegCloseKey
advapi32.dll DuplicateTokenEx
advapi32.dll OpenThreadToken
advapi32.dll OpenProcessToken
advapi32.dll SetThreadToken
advapi32.dll RegCreateKeyExW
advapi32.dll GetLengthSid
advapi32.dll RegOpenKeyExW
advapi32.dll LookupAccountSidW
wbemcomn.dll ??0CFlexArray@@QAE@HH@Z
wbemcomn.dll ?Write@CMemoryLog@@QAEXJ@Z
wbemcomn.dll GetMemLogObject
wbemcomn.dll ?RemoveAt@CFlexArray@@QAEHH@Z
wbemcomn.dll ?GetAt@CFlexArray@@QBEPAXH@Z
wbemcomn.dll ??1WString@@QAE@XZ
wbemcomn.dll ?Add@CFlexArray@@QAEHPAX@Z
wbemcomn.dll ?SetAt@CFlexArray@@QAEXHPAX@Z
wbemcomn.dll ??1CInCritSec@@QAE@XZ
wbemcomn.dll ??0CInCritSec@@QAE@PAU_RTL_CRITICAL_SECTION@@@Z
wbemcomn.dll ??1CCritSec@@QAE@XZ
wbemcomn.dll ??0CCritSec@@QAE@XZ
wbemcomn.dll _ThrowMemoryException_
wbemcomn.dll BreakOnDbgAndRenterLoop
wbemcomn.dll ??1CNtSid@@QAE@XZ
wbemcomn.dll ??0CUnk@@QAE@PAVCLifeControl@@PAUIUnknown@@@Z
wbemcomn.dll ??1CUnk@@UAE@XZ
wbemcomn.dll ?QueryInterface@CUnk@@UAGJABU_GUID@@PAPAX@Z
wbemcomn.dll ?AddRef@CUnk@@UAGKXZ
wbemcomn.dll ?Release@CUnk@@UAGKXZ
wbemcomn.dll ?Initialize@CUnk@@UAEHXZ
wbemcomn.dll ?OnInitialize@CUnk@@UAEHXZ
wbemcomn.dll ?SetBSTR@CVar@@QAEHPAG@Z
wbemcomn.dll ?SetVarVector@CVar@@QAEXPAVCVarVector@@H@Z
wbemcomn.dll ?SetVariant@CVar@@QAEHPAUtagVARIANT@@H@Z
wbemcomn.dll ?IsDataNull@CVar@@QAEHXZ
wbemcomn.dll ?GetOleType@CVar@@QAEHXZ
wbemcomn.dll ?ChangeTypeTo@CVar@@QAEHG@Z
wbemcomn.dll IsValidElementName2
wbemcomn.dll ??0CVarVector@@QAE@HHH@Z
wbemcomn.dll ?Add@CVarVector@@QAEHPAVCVar@@@Z
wbemcomn.dll ??8CVar@@QAEHAAV0@@Z
wbemcomn.dll ?Add@CWStringArray@@QAEHPBG@Z
wbemcomn.dll ??0WString2@@QAE@XZ
wbemcomn.dll ??1WString2@@QAE@XZ
wbemcomn.dll ??4WString2@@QAEAAV0@PBG@Z
wbemcomn.dll ?FindStr@CWStringArray@@QAEHPBGH@Z
wbemcomn.dll ??4WString@@QAEAAV0@PBG@Z
wbemcomn.dll ?UnbindPtr@WString@@QAEPAGXZ
wbemcomn.dll IsValidElementName
wbemcomn.dll ??YWString@@QAEAAV0@PBG@Z
wbemcomn.dll ??YWString@@QAEAAV0@ABV0@@Z
wbemcomn.dll ??0WString@@QAE@PBG@Z
wbemcomn.dll ??0CWStringArray@@QAE@HH@Z
wbemcomn.dll ??1CWStringArray@@QAE@XZ
wbemcomn.dll ??1CVarVector@@QAE@XZ
wbemcomn.dll ?EqualNoCase@WString2@@QBEHPBG@Z
wbemcomn.dll ??0CVar@@QAE@FH@Z
wbemcomn.dll ??0CVar@@QAE@XZ
wbemcomn.dll ??ACWStringArray@@QBEPAGH@Z
wbemcomn.dll ?GetAt@CWStringArray@@QBEPAGH@Z
wbemcomn.dll ?GetEmbeddedObject@CVar@@QAEPAUIUnknown@@XZ
wbemcomn.dll ?SetEmbeddedObject@CVar@@QAEXPAUIUnknown@@@Z
wbemcomn.dll ?InsertAt@CFlexArray@@QAEHHPAX@Z
wbemcomn.dll ??YWString2@@QAEAAV0@G@Z
wbemcomn.dll ??4WString2@@QAEAAV0@ABV0@@Z
wbemcomn.dll ??0WString2@@QAE@PBD@Z
wbemcomn.dll ??YWString2@@QAEAAV0@ABV0@@Z
wbemcomn.dll ?UnbindPtr@WString2@@QAEPAGXZ
wbemcomn.dll ??0WString2@@QAE@I@Z
wbemcomn.dll ??YWString2@@QAEAAV0@PBG@Z
wbemcomn.dll ?GetText@CVar@@QAEPAGJJPBG@Z
wbemcomn.dll ?FillVariant@CVar@@QAEXPAUtagVARIANT@@H@Z
wbemcomn.dll ?Sort@CFlexArray@@QAEXXZ
wbemcomn.dll ?SetLPWSTR@CVar@@QAEHPAGH@Z
wbemcomn.dll ?GetArenaHeap@CWin32DefaultArena@@SGPAXXZ
wbemcomn.dll ?Size@CVarVector@@QAEHXZ
wbemcomn.dll ?FillCVarAt@CVarVector@@QAEXHAAVCVar@@@Z
wbemcomn.dll ??0CSafeArray@@QAE@HHHH@Z
wbemcomn.dll ??1CSafeArray@@QAE@XZ
wbemcomn.dll ?AddBSTR@CSafeArray@@QAEHPAG@Z
wbemcomn.dll ?Trim@CSafeArray@@QAEHXZ
wbemcomn.dll ?GetArrayCopy@CSafeArray@@QAEPAUtagSAFEARRAY@@XZ
wbemcomn.dll ?CompareTo@CVar@@QAEHAAV1@H@Z
wbemcomn.dll ??4CVar@@QAEAAV0@ABV0@@Z
wbemcomn.dll ?GetAt@CVarVector@@QAEAAVCVar@@H@Z
wbemcomn.dll ??0Registry@@QAE@PAUHKEY__@@KPBG@Z
wbemcomn.dll ??1Registry@@QAE@XZ
wbemcomn.dll ?GetDWORDStr@Registry@@QAEHPBGPAK@Z
wbemcomn.dll ?SetDMTF@CWbemTime@@QAEHPBG@Z
wbemcomn.dll ?GetText@CVarVector@@QAEPAGJJ@Z
wbemcomn.dll ?Empty@CSafeArray@@QAEXXZ
wbemcomn.dll ??4CVarVector@@QAEAAV0@AAV0@@Z
wbemcomn.dll ?Add@CVarVector@@QAEHAAVCVar@@@Z
wbemcomn.dll ??0WString2@@QAE@PBG@Z
wbemcomn.dll ?SetBSTR@CVar@@QAEHVauto_bstr@@@Z
wbemcomn.dll ??YWString@@QAEAAV0@G@Z
wbemcomn.dll ??0WString@@QAE@PAGH@Z
wbemcomn.dll ?SetUnknown@CVar@@QAEXPAUIUnknown@@@Z
wbemcomn.dll ?UnaccessRawArray@CVarVector@@QAEJXZ
wbemcomn.dll ?SetRaw@CVar@@QAEXHPAXH@Z
wbemcomn.dll ?ToSingleChar@CVar@@QAEHXZ
wbemcomn.dll ?ToUI4@CVar@@QAEHXZ
wbemcomn.dll ReadI64
wbemcomn.dll ReadUI64
wbemcomn.dll ?CheckDMTFDateTimeFormat@CDateTimeParser@@SGHPBGHH@Z
wbemcomn.dll ?CheckDMTFDateTimeInterval@CDateTimeParser@@SGHPBG@Z
wbemcomn.dll ??0CVarVector@@QAE@XZ
wbemcomn.dll ?MakeOptimized@CVarVector@@QAEHHHH@Z
wbemcomn.dll ?GetElementSize@CVarVector@@QAEHXZ
wbemcomn.dll ?SetRawArrayData@CVarVector@@QAEJPAXHH@Z
wbemcomn.dll ?AccessRawArray@CVarVector@@QAEJPAPAX@Z
wbemcomn.dll ?SetRawArraySize@CVarVector@@QAEHH@Z
wbemcomn.dll ?GetRawArrayData@CVarVector@@QAEJPAXH@Z
wbemcomn.dll ?InternalRawArrayAccess@CVarVector@@QAEJXZ
wbemcomn.dll ?GetUnknown@CVar@@QAEPAUIUnknown@@XZ
wbemcomn.dll ??4CNtSid@@QAEAAV0@ABV0@@Z
wbemcomn.dll ??0CNtSid@@QAE@PAX@Z
wbemcomn.dll ?GetSize@CNtSid@@QAEKXZ
wbemcomn.dll ??_7CUnkInternal@@6B@
wbemcomn.dll ?IsOffline@CWbemInstallObject@@SG_NXZ
wbemcomn.dll ?Trim@CFlexArray@@QAEXXZ
wbemcomn.dll ?UnbindPtr@CFlexArray@@QAEPAPAXXZ
wbemcomn.dll ??4CUnk@@QAEAAV0@ABV0@@Z
wbemcomn.dll ??0CUnk@@QAE@ABV0@@Z
wbemcomn.dll ?InternalRelease@CUnkInternal@@QAEKXZ
wbemcomn.dll ?Release@CUnkInternal@@UAGKXZ
wbemcomn.dll ?AddRef@CUnkInternal@@UAGKXZ
wbemcomn.dll ?QueryInterface@CUnkInternal@@UAGJABU_GUID@@PAPAX@Z
wbemcomn.dll ??1CUnkInternal@@UAE@XZ
wbemcomn.dll ??0CUnkInternal@@QAE@PAVCLifeControl@@@Z
wbemcomn.dll ??0CStaticCritSec@@QAE@XZ
wbemcomn.dll ??1CStaticCritSec@@QAE@XZ
wbemcomn.dll ?Enter@CStaticCritSec@@QAEXXZ
wbemcomn.dll ?Leave@CStaticCritSec@@QAEXXZ
wbemcomn.dll ?EqualNoCase@WString@@QBEHPBG@Z
wbemcomn.dll ?GetStr@Registry@@QAEHPBGPAPAG@Z
wbemcomn.dll ??8CNtSid@@QAEHAAV0@@Z
wbemcomn.dll ?IsValid@CNtSid@@QAEHXZ
wbemcomn.dll ?GetDWORD@Registry@@QAEHPBGPAK@Z
wbemcomn.dll ?anyFailure@CStaticCritSec@@SGHXZ
wbemcomn.dll ?Empty@CFlexArray@@QAEXXZ
wbemcomn.dll ??1CVar@@QAE@XZ
wbemcomn.dll ??0CVar@@QAE@ABV0@@Z
wbemcomn.dll ?Empty@CVar@@QAEXXZ
wbemcomn.dll ??0WString@@QAE@XZ
wbemcomn.dll ??4CFlexArray@@QAEAAV0@AAV0@@Z
wbemcomn.dll ??1CFlexArray@@QAE@XZ
wbemcomn.dll ??0CFlexArray@@QAE@AAV0@@Z
wbemcomn.dll ??4WString@@QAEAAV0@ABV0@@Z
wbemcomn.dll ?WbemMemFree@CWin32DefaultArena@@SAHPAX@Z
wbemcomn.dll ?WbemMemAlloc@CWin32DefaultArena@@SAPAXK@Z
wbemcomn.dll ??ACFlexArray@@QAEAAPAXH@Z
api-ms-win-core-sysinfo-l1-1-0.dll GetVersion
