api-ms-win-crt-runtime-l1-1-0.dll _initterm_e
api-ms-win-crt-runtime-l1-1-0.dll _initterm
api-ms-win-crt-private-l1-1-0.dll _o__purecall
api-ms-win-crt-private-l1-1-0.dll _o__register_onexit_function
api-ms-win-crt-private-l1-1-0.dll _o__seh_filter_dll
api-ms-win-crt-private-l1-1-0.dll memmove
api-ms-win-crt-private-l1-1-0.dll _o_floor
api-ms-win-crt-private-l1-1-0.dll _o_free
api-ms-win-crt-private-l1-1-0.dll _o_iswspace
api-ms-win-crt-private-l1-1-0.dll _o_malloc
api-ms-win-crt-private-l1-1-0.dll _o_realloc
api-ms-win-crt-private-l1-1-0.dll _o_terminate
api-ms-win-crt-private-l1-1-0.dll _o_wcstok_s
api-ms-win-crt-private-l1-1-0.dll __C_specific_handler
api-ms-win-crt-private-l1-1-0.dll __CxxFrameHandler3
api-ms-win-crt-private-l1-1-0.dll _CxxThrowException
api-ms-win-crt-private-l1-1-0.dll _o__invalid_parameter_noinfo
api-ms-win-crt-private-l1-1-0.dll _o__initialize_onexit_table
api-ms-win-crt-private-l1-1-0.dll _o__initialize_narrow_environment
api-ms-win-crt-private-l1-1-0.dll __CxxFrameHandler4
api-ms-win-crt-private-l1-1-0.dll _o__execute_onexit_table
api-ms-win-crt-private-l1-1-0.dll _o__errno
api-ms-win-crt-private-l1-1-0.dll _o__crt_atexit
api-ms-win-crt-private-l1-1-0.dll _o__configure_narrow_argv
api-ms-win-crt-private-l1-1-0.dll _o__cexit
api-ms-win-crt-private-l1-1-0.dll _o__callnewh
api-ms-win-crt-private-l1-1-0.dll _o___stdio_common_vswprintf
api-ms-win-crt-private-l1-1-0.dll _o___stdio_common_vsnprintf_s
api-ms-win-crt-private-l1-1-0.dll _o___std_type_info_destroy_list
api-ms-win-crt-private-l1-1-0.dll _o___std_exception_destroy
api-ms-win-crt-private-l1-1-0.dll _o___std_exception_copy
api-ms-win-crt-private-l1-1-0.dll memcpy
api-ms-win-crt-string-l1-1-0.dll memset
shcore.dll SHTaskPoolQueueTask
shcore.dll RegisterScaleChangeNotifications
shcore.dll RevokeScaleChangeNotifications
shcore.dll GetScaleFactorForDevice
shlwapi.dll StrStrW
api-ms-win-core-libraryloader-l1-2-0.dll LockResource
api-ms-win-core-libraryloader-l1-2-0.dll LoadResource
api-ms-win-core-libraryloader-l1-2-0.dll GetModuleFileNameA
api-ms-win-core-libraryloader-l1-2-0.dll GetModuleHandleExW
api-ms-win-core-libraryloader-l1-2-0.dll LoadStringW
api-ms-win-core-libraryloader-l1-2-0.dll FindResourceExW
api-ms-win-core-libraryloader-l1-2-0.dll GetProcAddress
api-ms-win-core-libraryloader-l1-2-0.dll GetModuleHandleW
api-ms-win-core-libraryloader-l1-2-0.dll FreeLibrary
api-ms-win-core-libraryloader-l1-2-0.dll LoadLibraryExW
api-ms-win-core-libraryloader-l1-2-0.dll DisableThreadLibraryCalls
api-ms-win-core-synch-l1-1-0.dll LeaveCriticalSection
api-ms-win-core-synch-l1-1-0.dll DeleteCriticalSection
api-ms-win-core-synch-l1-1-0.dll OpenSemaphoreW
api-ms-win-core-synch-l1-1-0.dll WaitForSingleObjectEx
api-ms-win-core-synch-l1-1-0.dll AcquireSRWLockExclusive
api-ms-win-core-synch-l1-1-0.dll CreateMutexExW
api-ms-win-core-synch-l1-1-0.dll SetEvent
api-ms-win-core-synch-l1-1-0.dll InitializeCriticalSectionEx
api-ms-win-core-synch-l1-1-0.dll ReleaseMutex
api-ms-win-core-synch-l1-1-0.dll WaitForSingleObject
api-ms-win-core-synch-l1-1-0.dll WaitForMultipleObjectsEx
api-ms-win-core-synch-l1-1-0.dll ReleaseSemaphore
api-ms-win-core-synch-l1-1-0.dll CreateEventW
api-ms-win-core-synch-l1-1-0.dll CreateMutexW
api-ms-win-core-synch-l1-1-0.dll CreateSemaphoreExW
api-ms-win-core-synch-l1-1-0.dll EnterCriticalSection
api-ms-win-core-synch-l1-1-0.dll ReleaseSRWLockExclusive
api-ms-win-core-synch-l1-1-0.dll OpenEventW
api-ms-win-core-heap-l1-1-0.dll HeapReAlloc
api-ms-win-core-heap-l1-1-0.dll HeapFree
api-ms-win-core-heap-l1-1-0.dll GetProcessHeap
api-ms-win-core-heap-l1-1-0.dll HeapAlloc
api-ms-win-core-errorhandling-l1-1-0.dll SetUnhandledExceptionFilter
api-ms-win-core-errorhandling-l1-1-0.dll RaiseException
api-ms-win-core-errorhandling-l1-1-0.dll SetLastError
api-ms-win-core-errorhandling-l1-1-0.dll GetLastError
api-ms-win-core-errorhandling-l1-1-0.dll UnhandledExceptionFilter
api-ms-win-core-processthreads-l1-1-0.dll TerminateProcess
api-ms-win-core-processthreads-l1-1-0.dll GetCurrentProcess
api-ms-win-core-processthreads-l1-1-0.dll GetCurrentProcessId
api-ms-win-core-processthreads-l1-1-0.dll CreateThread
api-ms-win-core-processthreads-l1-1-0.dll GetCurrentThreadId
api-ms-win-core-localization-l1-2-0.dll SetThreadUILanguage
api-ms-win-core-localization-l1-2-0.dll FormatMessageW
api-ms-win-core-localization-l1-2-0.dll GetThreadUILanguage
api-ms-win-core-debug-l1-1-0.dll OutputDebugStringW
api-ms-win-core-debug-l1-1-0.dll IsDebuggerPresent
api-ms-win-core-debug-l1-1-0.dll DebugBreak
api-ms-win-core-handle-l1-1-0.dll CloseHandle
oleaut32.dll SysStringLen
oleaut32.dll VariantInit
oleaut32.dll VariantClear
oleaut32.dll SysAllocString
oleaut32.dll SysFreeString
oleaut32.dll SetErrorInfo
api-ms-win-core-com-l1-1-0.dll CoTaskMemRealloc
api-ms-win-core-com-l1-1-0.dll CoTaskMemAlloc
api-ms-win-core-com-l1-1-0.dll CoCreateInstance
api-ms-win-core-com-l1-1-0.dll CoTaskMemFree
api-ms-win-core-com-l1-1-0.dll CoGetApartmentType
api-ms-win-core-com-l1-1-0.dll CoWaitForMultipleHandles
api-ms-win-core-registry-l1-1-0.dll RegSetValueExW
api-ms-win-core-registry-l1-1-0.dll RegOpenKeyExW
api-ms-win-core-registry-l1-1-0.dll RegGetValueW
api-ms-win-core-registry-l1-1-0.dll RegCloseKey
api-ms-win-core-registry-l1-1-0.dll RegCreateKeyExW
api-ms-win-core-registry-l1-1-0.dll RegDeleteValueW
api-ms-win-core-registry-l1-1-0.dll RegQueryValueExW
api-ms-win-eventing-provider-l1-1-0.dll EventActivityIdControl
api-ms-win-eventing-provider-l1-1-0.dll EventSetInformation
api-ms-win-eventing-provider-l1-1-0.dll EventUnregister
api-ms-win-eventing-provider-l1-1-0.dll EventRegister
api-ms-win-eventing-provider-l1-1-0.dll EventWriteTransfer
api-ms-win-core-libraryloader-l1-2-1.dll LoadLibraryW
api-ms-win-core-sysinfo-l1-1-0.dll GetSystemDirectoryW
api-ms-win-core-sysinfo-l1-1-0.dll GetTickCount64
api-ms-win-core-sysinfo-l1-1-0.dll GetTickCount
api-ms-win-core-sysinfo-l1-1-0.dll GetSystemTimeAsFileTime
api-ms-win-core-path-l1-1-0.dll PathCchCombine
api-ms-win-core-synch-l1-2-0.dll InitOnceBeginInitialize
api-ms-win-core-synch-l1-2-0.dll InitOnceComplete
api-ms-win-core-rtlsupport-l1-1-0.dll RtlLookupFunctionEntry
api-ms-win-core-rtlsupport-l1-1-0.dll RtlVirtualUnwind
api-ms-win-core-rtlsupport-l1-1-0.dll RtlCaptureContext
api-ms-win-core-processthreads-l1-1-1.dll IsProcessorFeaturePresent
api-ms-win-core-profile-l1-1-0.dll QueryPerformanceCounter
api-ms-win-core-interlocked-l1-1-0.dll InitializeSListHead
api-ms-win-eventing-classicprovider-l1-1-0.dll TraceMessage
urlmon.dll RegisterWebPlatformPermanentSecurityManager
urlmon.dll UnregisterWebPlatformPermanentSecurityManager
imm32.dll ImmDisableIME
kernel32.dll GetSystemPowerStatus
dui70.dll ?QueryInterface@Element@DirectUI@@UEAAJAEBU_GUID@@PEAPEAX@Z
dui70.dll ?Create@FillLayout@DirectUI@@SAJPEAPEAVLayout@2@@Z
dui70.dll ?SetLayout@Element@DirectUI@@QEAAJPEAVLayout@2@@Z
dui70.dll ?CreateElement@DUIXmlParser@DirectUI@@QEAAJPEBGPEAVElement@2@1PEAKPEAPEAV32@@Z
dui70.dll ?GetHWND@HWNDElement@DirectUI@@UEAAPEAUHWND__@@XZ
dui70.dll ?SetBackgroundColor@Element@DirectUI@@QEAAJK@Z
dui70.dll ?Destroy@DUIXmlParser@DirectUI@@QEAAXXZ
dui70.dll ?SetActive@Element@DirectUI@@QEAAJH@Z
dui70.dll ?Host@NativeHWNDHost@DirectUI@@QEAAXPEAVElement@2@@Z
dui70.dll InitProcessPriv
dui70.dll UnInitProcessPriv
dui70.dll ?Register@TouchHWNDElement@DirectUI@@SAJXZ
dui70.dll ?GetFactoryLock@Element@DirectUI@@SAPEAU_RTL_CRITICAL_SECTION@@XZ
dui70.dll ??0NativeHWNDHost@DirectUI@@QEAA@XZ
dui70.dll ??1NativeHWNDHost@DirectUI@@UEAA@XZ
dui70.dll ?Destroy@NativeHWNDHost@DirectUI@@QEAAXXZ
dui70.dll ?Initialize@NativeHWNDHost@DirectUI@@QEAAJPEBGPEAUHWND__@@PEAUHICON__@@HHHHHHI@Z
dui70.dll ??0TouchHWNDElement@DirectUI@@QEAA@XZ
dui70.dll ??1TouchHWNDElement@DirectUI@@UEAA@XZ
dui70.dll ?FindDescendent@Element@DirectUI@@QEAAPEAV12@G@Z
dui70.dll StrToID
dui70.dll DuiCreateObject
dui70.dll ?SetVisible@Element@DirectUI@@QEAAJ_N@Z
dui70.dll ?SetContentString@Element@DirectUI@@QEAAJPEBG@Z
dui70.dll ?TriggeredAnimationComplete@PVLAnimation@DirectUI@@SA?AVUID@@XZ
dui70.dll ?OnEvent@TouchHWNDElement@DirectUI@@UEAAXPEAUEvent@2@@Z
dui70.dll ?WndProc@TouchHWNDElement@DirectUI@@UEAA_JPEAUHWND__@@I_K_J@Z
dui70.dll InitThread
dui70.dll AllowAllScalingPlateaus
dui70.dll RegisterPVLBehaviorFactory
dui70.dll UnInitThread
dui70.dll ?Destroy@Element@DirectUI@@QEAAJ_N@Z
dui70.dll ?Initialize@TouchHWNDElement@DirectUI@@QEAAJPEAUHWND__@@_NIPEAVElement@2@PEAK@Z
dui70.dll ?Create@DUIXmlParser@DirectUI@@SAJPEAPEAV12@P6APEAVValue@2@PEBGPEAX@Z2P6AX11H2@Z2@Z
dui70.dll ?SetXMLFromResource@DUIXmlParser@DirectUI@@QEAAJIPEAUHINSTANCE__@@0@Z
dui70.dll ?StartDefer@Element@DirectUI@@QEAAXPEAK@Z
dui70.dll ??1CritSecLock@DirectUI@@QEAA@XZ
dui70.dll ?ClassExist@ClassInfoBase@DirectUI@@SA_NPEAPEAUIClassInfo@2@PEBQEBUPropertyInfo@2@IPEAU32@PEAUHINSTANCE__@@PEBG_N@Z
dui70.dll ?Register@ClassInfoBase@DirectUI@@QEAAJXZ
dui70.dll ?Initialize@ClassInfoBase@DirectUI@@QEAAJPEAUHINSTANCE__@@PEBG_NPEBQEBUPropertyInfo@2@I@Z
dui70.dll ?GetClassInfoPtr@TouchHWNDElement@DirectUI@@SAPEAUIClassInfo@2@XZ
dui70.dll ?SetForegroundColor@Element@DirectUI@@QEAAJK@Z
dui70.dll GetScaleFactor
dui70.dll ?AssertPIZeroRef@ClassInfoBase@DirectUI@@UEBAXXZ
dui70.dll ?GetChildren@ClassInfoBase@DirectUI@@UEBAHXZ
dui70.dll ?RemoveChild@ClassInfoBase@DirectUI@@UEAAXXZ
dui70.dll ?AddChild@ClassInfoBase@DirectUI@@UEAAXXZ
dui70.dll ?IsGlobal@ClassInfoBase@DirectUI@@UEBA_NXZ
dui70.dll ?GetModule@ClassInfoBase@DirectUI@@UEBAPEAUHINSTANCE__@@XZ
dui70.dll ?IsSubclassOf@ClassInfoBase@DirectUI@@UEBA_NPEAUIClassInfo@2@@Z
dui70.dll ?IsValidProperty@ClassInfoBase@DirectUI@@UEBA_NPEBUPropertyInfo@2@@Z
dui70.dll ?GetName@ClassInfoBase@DirectUI@@UEBAPEBGXZ
dui70.dll ?GetGlobalIndex@ClassInfoBase@DirectUI@@UEBAIXZ
dui70.dll ?GetPICount@ClassInfoBase@DirectUI@@UEBAIXZ
dui70.dll ?GetByClassIndex@ClassInfoBase@DirectUI@@UEAAPEBUPropertyInfo@2@I@Z
dui70.dll ?EnumPropertyInfo@ClassInfoBase@DirectUI@@UEAAPEBUPropertyInfo@2@I@Z
dui70.dll ?Release@ClassInfoBase@DirectUI@@UEAAHXZ
dui70.dll ?AddRef@ClassInfoBase@DirectUI@@UEAAXXZ
dui70.dll ?_OnUIStateChanged@TouchHWNDElement@DirectUI@@MEAAXGG@Z
dui70.dll ?GetWindowClassNameAndStyle@HWNDElement@DirectUI@@UEAAXPEAPEBGPEAI@Z
dui70.dll ?CreateStyleParser@HWNDElement@DirectUI@@UEAAJPEAPEAVDUIXmlParser@2@@Z
dui70.dll ?IsMSAAEnabled@TouchHWNDElement@DirectUI@@UEAA_NXZ
dui70.dll ?CanSetFocus@HWNDElement@DirectUI@@UEAA_NXZ
dui70.dll ?OnCompositionChanged@HWNDElement@DirectUI@@UEAAXXZ
dui70.dll ?OnWmSettingChanged@HWNDElement@DirectUI@@UEAAX_K_J@Z
dui70.dll ?OnWmThemeChanged@HWNDElement@DirectUI@@UEAAX_K_J@Z
dui70.dll ?OnGetDlgCode@HWNDElement@DirectUI@@UEAAXPEAUtagMSG@@PEA_J@Z
dui70.dll ?OnNoChildWithShortcutFound@HWNDElement@DirectUI@@UEAAXPEAUKeyboardEvent@2@@Z
dui70.dll ?OnImmersiveColorSchemeChanged@HWNDElement@DirectUI@@UEAAXXZ
dui70.dll ?OnThemeChanged@HWNDElement@DirectUI@@UEAAXPEAUThemeChangedEvent@2@@Z
dui70.dll ?GetUiaFocusDelegate@Element@DirectUI@@UEAAPEAV12@XZ
dui70.dll ?HandleUiaEventListener@Element@DirectUI@@UEAAXPEAUEvent@2@@Z
dui70.dll ?HandleUiaPropertyChangingListener@Element@DirectUI@@UEAAXPEBUPropertyInfo@2@@Z
dui70.dll ?HandleUiaPropertyListener@Element@DirectUI@@UEAAXPEBUPropertyInfo@2@HPEAVValue@2@1@Z
dui70.dll ?HandleUiaDestroyListener@Element@DirectUI@@UEAAXXZ
dui70.dll ?GetElementProviderImpl@Element@DirectUI@@UEAAJPEAVInvokeHelper@2@PEAPEAVElementProvider@2@@Z
dui70.dll ?GetUIAElementProvider@Element@DirectUI@@UEAAJAEBU_GUID@@PEAPEAX@Z
dui70.dll ?DefaultAction@Element@DirectUI@@UEAAJXZ
dui70.dll ?GetAccessibleImpl@HWNDElement@DirectUI@@UEAAJPEAPEAUIAccessible@@@Z
dui70.dll ?GetKeyFocused@Element@DirectUI@@UEAA_NXZ
dui70.dll ?RemoveTooltip@TouchHWNDElement@DirectUI@@UEAAXPEAVElement@2@@Z
dui70.dll ?ActivateTooltip@TouchHWNDElement@DirectUI@@UEAAXPEAVElement@2@K@Z
dui70.dll ?UpdateTooltip@TouchHWNDElement@DirectUI@@UEAAXPEAVElement@2@@Z
dui70.dll ?OnUnHosted@Element@DirectUI@@MEAAXPEAV12@@Z
dui70.dll ?OnHosted@Element@DirectUI@@MEAAXPEAV12@@Z
dui70.dll ?_SelfLayoutUpdateDesiredSize@Element@DirectUI@@MEAA?AUtagSIZE@@HHPEAVSurface@2@@Z
dui70.dll ?_SelfLayoutDoLayout@Element@DirectUI@@MEAAXHH@Z
dui70.dll ?GetImmersiveFocusRectOffsets@Element@DirectUI@@UEAAXPEAUtagRECT@@@Z
dui70.dll ??0ClassInfoBase@DirectUI@@QEAA@XZ
dui70.dll ?MessageCallback@TouchHWNDElement@DirectUI@@UEAAIPEAUtagGMSG@@@Z
dui70.dll ?RemoveBehavior@Element@DirectUI@@UEAAJPEAUIDuiBehavior@@@Z
dui70.dll ?AddBehavior@Element@DirectUI@@UEAAJPEAUIDuiBehavior@@@Z
dui70.dll ?SetKeyFocus@Element@DirectUI@@UEAAXXZ
dui70.dll ?EnsureVisible@Element@DirectUI@@UEAA_NHHHH@Z
dui70.dll ?GetAdjacent@Element@DirectUI@@UEAAPEAV12@PEAV12@HPEBUNavReference@2@K@Z
dui70.dll ?Remove@Element@DirectUI@@UEAAJPEAPEAV12@I@Z
dui70.dll ?Insert@Element@DirectUI@@UEAAJPEAPEAV12@II@Z
dui70.dll ?Add@Element@DirectUI@@UEAAJPEAPEAV12@I@Z
dui70.dll ?GetContentSize@Element@DirectUI@@UEAA?AUtagSIZE@@HHPEAVSurface@2@@Z
dui70.dll ?Paint@Element@DirectUI@@UEAAXPEAUHDC__@@PEBUtagRECT@@1PEAU4@2@Z
dui70.dll ?OnDestroy@TouchHWNDElement@DirectUI@@UEAAXXZ
dui70.dll ?OnMouseFocusMoved@Element@DirectUI@@UEAAXPEAV12@0@Z
dui70.dll ?OnKeyFocusMoved@TouchHWNDElement@DirectUI@@UEAAXPEAVElement@2@0@Z
dui70.dll ?OnInput@TouchHWNDElement@DirectUI@@UEAAXPEAUInputEvent@2@@Z
dui70.dll ?OnGroupChanged@HWNDElement@DirectUI@@UEAAXH_N@Z
dui70.dll ?OnPropertyChanged@Element@DirectUI@@UEAAXPEAUPropertyInfo@2@HPEAVValue@2@1@Z
dui70.dll ?OnPropertyChanged@TouchHWNDElement@DirectUI@@UEAAXPEBUPropertyInfo@2@HPEAVValue@2@1@Z
dui70.dll ?OnPropertyChanging@Element@DirectUI@@UEAA_NPEAUPropertyInfo@2@HPEAVValue@2@1@Z
dui70.dll ?OnPropertyChanging@Element@DirectUI@@UEAA_NPEBUPropertyInfo@2@HPEAVValue@2@1@Z
dui70.dll ?GetContentStringAsDisplayed@Element@DirectUI@@UEAAPEBGPEAPEAVValue@2@@Z
dui70.dll ?IsContentProtected@Element@DirectUI@@UEAA_NXZ
dui70.dll ?IsRTLReading@Element@DirectUI@@UEAA_NXZ
dui70.dll ??1ClassInfoBase@DirectUI@@UEAA@XZ
dui70.dll ?EndDefer@Element@DirectUI@@QEAAXK@Z
duser.dll SetGadgetFlags
duser.dll AddLayeredRef
duser.dll GetGadget
dwmapi.dll DwmIsCompositionEnabled
user32.dll DispatchMessageW
user32.dll PeekMessageW
user32.dll TranslateMessage
user32.dll SetTimer
user32.dll UnhookWinEvent
user32.dll GetMonitorInfoW
user32.dll MonitorFromWindow
user32.dll SetWindowsHookExW
user32.dll LoadCursorW
user32.dll SetCursor
user32.dll PostQuitMessage
user32.dll MsgWaitForMultipleObjectsEx
user32.dll UnhookWindowsHookEx
user32.dll LockSetForegroundWindow
user32.dll UnregisterClassW
user32.dll DefWindowProcW
user32.dll RegisterClassExW
user32.dll EnumDisplayMonitors
user32.dll DestroyWindow
user32.dll WaitMessage
user32.dll ShowWindow
user32.dll PostMessageW
user32.dll PostThreadMessageW
user32.dll KillTimer
user32.dll SetWindowPos
user32.dll InvalidateRect
user32.dll SetDisplayAutoRotationPreferences
user32.dll RegisterPowerSettingNotification
user32.dll SystemParametersInfoW
user32.dll FindWindowExW
user32.dll RegisterClassW
user32.dll GetThreadDesktop
user32.dll GetUserObjectInformationW
user32.dll CloseDesktop
user32.dll UnregisterPowerSettingNotification
user32.dll GetSystemMetrics
user32.dll GetClientRect
user32.dll SetWindowCompositionAttribute
user32.dll GetParent
user32.dll GetMessageW
user32.dll CreateWindowInBand
user32.dll SetWinEventHook
user32.dll EnableWindow
user32.dll CreateWindowExW
user32.dll SetWindowLongPtrW
user32.dll SetFocus
user32.dll GetWindowLongPtrW
api-ms-win-core-delayload-l1-1-1.dll ResolveDelayLoadedAPI
api-ms-win-core-delayload-l1-1-0.dll DelayLoadFailureHook
