msvcrt.dll _amsg_exit
msvcrt.dll _XcptFilter
msvcrt.dll memmove
msvcrt.dll memcpy
msvcrt.dll _CxxThrowException
msvcrt.dll ?what@exception@@UBEPBDXZ
msvcrt.dll ??1exception@@UAE@XZ
msvcrt.dll ??0exception@@QAE@ABV0@@Z
msvcrt.dll ??0exception@@QAE@ABQBDH@Z
msvcrt.dll ??0exception@@QAE@ABQBD@Z
msvcrt.dll _initterm
msvcrt.dll malloc
msvcrt.dll _vsnwprintf
msvcrt.dll ??_V@YAXPAX@Z
msvcrt.dll wcsstr
msvcrt.dll ??3@YAXPAX@Z
msvcrt.dll wcschr
msvcrt.dll _itow_s
msvcrt.dll _wtoi
msvcrt.dll swscanf
msvcrt.dll _purecall
msvcrt.dll _wcsicmp
msvcrt.dll ??1type_info@@UAE@XZ
msvcrt.dll iswspace
msvcrt.dll _vsnprintf
msvcrt.dll atol
msvcrt.dll sscanf_s
msvcrt.dll ?terminate@@YAXXZ
msvcrt.dll __CxxFrameHandler3
msvcrt.dll _lock
msvcrt.dll _except_handler4_common
msvcrt.dll _onexit
msvcrt.dll free
msvcrt.dll __dllonexit
msvcrt.dll _callnewh
msvcrt.dll _unlock
wbemcomn.dll ??1CStaticCritSec@@QAE@XZ
wbemcomn.dll ??0CStaticCritSec@@QAE@XZ
wbemcomn.dll GetMemLogObject
wbemcomn.dll ?Write@CMemoryLog@@QAEXJ@Z
wbemcomn.dll ?anyFailure@CStaticCritSec@@SGHXZ
wbemcomn.dll ??0CUnkInternal@@QAE@PAVCLifeControl@@@Z
wbemcomn.dll ??1CUnkInternal@@UAE@XZ
wbemcomn.dll ?QueryInterface@CUnkInternal@@UAGJABU_GUID@@PAPAX@Z
wbemcomn.dll ?AddRef@CUnkInternal@@UAGKXZ
wbemcomn.dll ?Release@CUnkInternal@@UAGKXZ
wbemcomn.dll ?InternalRelease@CUnkInternal@@QAEKXZ
wbemcomn.dll ??_7CUnkInternal@@6B@
wbemcomn.dll ??0CUnk@@QAE@PAVCLifeControl@@PAUIUnknown@@@Z
wbemcomn.dll ?OnInitialize@CUnk@@UAEHXZ
wbemcomn.dll ??1CCritSec@@QAE@XZ
wbemcomn.dll ??0CInCritSec@@QAE@PAU_RTL_CRITICAL_SECTION@@@Z
wbemcomn.dll ??1CInCritSec@@QAE@XZ
wbemcomn.dll ??1CUnk@@UAE@XZ
wbemcomn.dll ?Initialize@CUnk@@UAEHXZ
wbemcomn.dll ?QueryInterface@CUnk@@UAGJABU_GUID@@PAPAX@Z
wbemcomn.dll ?AddRef@CUnk@@UAGKXZ
wbemcomn.dll ?Release@CUnk@@UAGKXZ
wbemcomn.dll ??0CNtSecurityDescriptor@@QAE@XZ
wbemcomn.dll ??1CNtSecurityDescriptor@@QAE@XZ
wbemcomn.dll ?GetSize@CNtSecurityDescriptor@@QAEKXZ
wbemcomn.dll ErrorTrace
wbemcomn.dll ?GetStringAt@CPropertyName@@QBEPBGJ@Z
wbemcomn.dll ??0CNtAce@@QAE@KKKAAVCNtSid@@@Z
wbemcomn.dll ??1CNtAce@@UAE@XZ
wbemcomn.dll ??0CNtAcl@@QAE@K@Z
wbemcomn.dll ??1CNtAcl@@QAE@XZ
wbemcomn.dll ?AddAce@CNtAcl@@QAEHPAVCNtAce@@@Z
wbemcomn.dll ?Resize@CNtAcl@@QAEHK@Z
wbemcomn.dll ?SetDacl@CNtSecurityDescriptor@@QAEHPAVCNtAcl@@@Z
wbemcomn.dll ?SetOwner@CNtSecurityDescriptor@@QAEHPAVCNtSid@@@Z
wbemcomn.dll ??0CNtSid@@QAE@PAG@Z
wbemcomn.dll ??0CNtSid@@QAE@W4SidType@0@@Z
wbemcomn.dll ??1CNtSid@@QAE@XZ
wbemcomn.dll ??0QL1_Parser@@QAE@PAVCGenLexSource@@@Z
wbemcomn.dll ??1QL1_Parser@@UAE@XZ
wbemcomn.dll ?Parse@QL1_Parser@@QAEHPAPAUQL_LEVEL_1_RPN_EXPRESSION@@@Z
wbemcomn.dll ?Release@QL_LEVEL_1_RPN_EXPRESSION@@QAEXXZ
wbemcomn.dll ??0CCritSec@@QAE@XZ
ntdll.dll EtwGetTraceEnableFlags
ntdll.dll EtwGetTraceEnableLevel
ntdll.dll EtwGetTraceLoggerHandle
ntdll.dll EtwTraceMessage
ntdll.dll EtwRegisterTraceGuidsW
ntdll.dll EtwUnregisterTraceGuids
framedynos.dll ?GetDMTF@WBEMTime@@QBEPAGH@Z
framedynos.dll ??4WBEMTime@@QAEABV0@ABU_SYSTEMTIME@@@Z
api-ms-win-core-registry-l1-1-0.dll RegCreateKeyExW
api-ms-win-core-registry-l1-1-0.dll RegDeleteKeyExW
api-ms-win-core-registry-l1-1-0.dll RegDeleteValueW
api-ms-win-core-registry-l1-1-0.dll RegOpenKeyExW
api-ms-win-core-registry-l1-1-0.dll RegCloseKey
api-ms-win-core-registry-l1-1-0.dll RegSetValueExW
api-ms-win-security-base-l1-1-0.dll SetSecurityDescriptorControl
kernel32.dll GetSystemTime
kernel32.dll WaitForSingleObject
kernel32.dll OpenEventW
kernel32.dll CloseHandle
kernel32.dll EnterCriticalSection
kernel32.dll LeaveCriticalSection
kernel32.dll DebugBreak
kernel32.dll GetModuleFileNameW
kernel32.dll DisableThreadLibraryCalls
kernel32.dll Sleep
kernel32.dll QueryPerformanceCounter
kernel32.dll GetCurrentProcessId
kernel32.dll GetCurrentThreadId
kernel32.dll GetSystemTimeAsFileTime
kernel32.dll GetTickCount
kernel32.dll UnhandledExceptionFilter
kernel32.dll SetUnhandledExceptionFilter
kernel32.dll GetCurrentProcess
kernel32.dll TerminateProcess
kernel32.dll LCMapStringW
kernel32.dll HeapAlloc
kernel32.dll GetProcessHeap
kernel32.dll SetLastError
kernel32.dll HeapFree
kernel32.dll HeapReAlloc
kernel32.dll ResolveDelayLoadedAPI
kernel32.dll DelayLoadFailureHook
