msvcrt.dll memset
msvcrt.dll _callnewh
msvcrt.dll __CxxFrameHandler3
msvcrt.dll ?terminate@@YAXXZ
msvcrt.dll __C_specific_handler
msvcrt.dll _initterm
msvcrt.dll malloc
msvcrt.dll _amsg_exit
msvcrt.dll _XcptFilter
msvcrt.dll free
msvcrt.dll _purecall
msvcrt.dll __CxxFrameHandler4
ntdll.dll RtlLookupFunctionEntry
ntdll.dll RtlVirtualUnwind
ntdll.dll RtlCaptureContext
kernel32.dll SetUnhandledExceptionFilter
kernel32.dll GetCurrentProcess
kernel32.dll TerminateProcess
kernel32.dll UnhandledExceptionFilter
kernel32.dll GetSystemTimeAsFileTime
kernel32.dll GetCurrentThreadId
kernel32.dll GetCurrentProcessId
kernel32.dll QueryPerformanceCounter
kernel32.dll Sleep
kernel32.dll HeapAlloc
kernel32.dll GetProcessHeap
kernel32.dll ResolveDelayLoadedAPI
kernel32.dll FormatMessageW
kernel32.dll SubmitThreadpoolWork
kernel32.dll CreateThreadpoolWork
kernel32.dll DelayLoadFailureHook
kernel32.dll LockResource
kernel32.dll CloseThreadpoolWork
kernel32.dll WaitForThreadpoolWorkCallbacks
kernel32.dll GetLastError
kernel32.dll FreeLibrary
kernel32.dll LoadLibraryExW
kernel32.dll FindResourceExW
kernel32.dll LoadResource
kernel32.dll GetTickCount
advapi32.dll UnregisterTraceGuids
advapi32.dll GetTraceLoggerHandle
advapi32.dll GetTraceEnableLevel
advapi32.dll GetTraceEnableFlags
advapi32.dll RegisterTraceGuidsW
advapi32.dll TraceMessage
ole32.dll CoCreateInstance
ole32.dll CoTaskMemFree
ole32.dll CoGetInterfaceAndReleaseStream
ole32.dll CoTaskMemRealloc
ole32.dll CoTaskMemAlloc
ole32.dll CoInitializeEx
ole32.dll CoUninitialize
ole32.dll CoMarshalInterThreadInterfaceInStream
api-ms-win-core-winrt-error-l1-1-0.dll SetRestrictedErrorInfo
api-ms-win-core-winrt-error-l1-1-1.dll RoGetMatchingRestrictedErrorInfo
dui70.dll ?Click@TouchButton@DirectUI@@SA?AVUID@@XZ
dui70.dll ?AddListener@Element@DirectUI@@QEAAJPEAUIElementListener@2@@Z
dui70.dll ?RemoveListener@Element@DirectUI@@QEAAXPEAUIElementListener@2@@Z
dui70.dll UnInitProcessPriv
dui70.dll ?Create@DUIXmlParser@DirectUI@@SAJPEAPEAV12@P6APEAVValue@2@PEBGPEAX@Z2P6AX11H2@Z2@Z
dui70.dll StartMessagePump
dui70.dll RegisterPVLBehaviorFactory
dui70.dll InitThread
dui70.dll ?_PostEvent@Element@DirectUI@@AEAAXPEAUEvent@2@H@Z
dui70.dll ?GetContentString@Element@DirectUI@@QEAAPEBGPEAPEAVValue@2@@Z
dui70.dll ?SetValue@Element@DirectUI@@QEAAJP6APEBUPropertyInfo@2@XZHPEAVValue@2@@Z
dui70.dll ?Release@Value@DirectUI@@QEAAXXZ
dui70.dll ?SetLayoutPos@Element@DirectUI@@QEAAJH@Z
dui70.dll ?Destroy@Element@DirectUI@@QEAAJ_N@Z
dui70.dll ?FindDescendent@Element@DirectUI@@QEAAPEAV12@G@Z
dui70.dll StrToID
dui70.dll ?SetContentString@Element@DirectUI@@QEAAJPEBG@Z
dui70.dll ?ContentProp@Element@DirectUI@@SAPEBUPropertyInfo@2@XZ
dui70.dll ?CreateGraphic@Value@DirectUI@@SAPEAV12@PEAUHICON__@@_N11@Z
dui70.dll UnInitThread
dui70.dll ?GetEncodedContentString@Element@DirectUI@@QEAAJPEAG_K@Z
dui70.dll ?SetXMLFromResource@DUIXmlParser@DirectUI@@QEAAJIPEAUHINSTANCE__@@0@Z
dui70.dll ?SetVisible@Element@DirectUI@@QEAAJ_N@Z
dui70.dll ?CreateElement@DUIXmlParser@DirectUI@@QEAAJPEBGPEAVElement@2@1PEAKPEAPEAV32@@Z
dui70.dll InitProcessPriv
dui70.dll ?Destroy@DUIXmlParser@DirectUI@@QEAAXXZ
winhttp.dll WinHttpOpen
winhttp.dll WinHttpCloseHandle
winhttp.dll WinHttpProbeConnectivity
