api-ms-win-core-com-l1-1-0.dll CoGetApartmentType
api-ms-win-core-com-l1-1-0.dll CoMarshalInterThreadInterfaceInStream
api-ms-win-core-com-l1-1-0.dll CoCreateInstance
api-ms-win-core-com-l1-1-0.dll CoGetInterfaceAndReleaseStream
api-ms-win-core-com-l1-1-0.dll CoGetObjectContext
api-ms-win-core-localization-l1-2-0.dll FormatMessageW
api-ms-win-core-errorhandling-l1-1-0.dll SetUnhandledExceptionFilter
api-ms-win-core-errorhandling-l1-1-0.dll GetLastError
api-ms-win-core-errorhandling-l1-1-0.dll UnhandledExceptionFilter
api-ms-win-core-errorhandling-l1-1-0.dll SetLastError
api-ms-win-core-debug-l1-1-0.dll OutputDebugStringW
api-ms-win-core-debug-l1-1-0.dll IsDebuggerPresent
api-ms-win-core-debug-l1-1-0.dll DebugBreak
api-ms-win-core-processthreads-l1-1-0.dll TerminateProcess
api-ms-win-core-processthreads-l1-1-0.dll GetCurrentProcess
api-ms-win-core-processthreads-l1-1-0.dll GetCurrentProcessId
api-ms-win-core-processthreads-l1-1-0.dll GetCurrentThreadId
api-ms-win-eventing-provider-l1-1-0.dll EventUnregister
api-ms-win-eventing-provider-l1-1-0.dll EventSetInformation
api-ms-win-eventing-provider-l1-1-0.dll EventWriteTransfer
api-ms-win-eventing-provider-l1-1-0.dll EventRegister
api-ms-win-core-sysinfo-l1-1-0.dll GetSystemTime
api-ms-win-core-sysinfo-l1-1-0.dll GetSystemTimeAsFileTime
api-ms-win-core-sysinfo-l1-1-0.dll GetTickCount
api-ms-win-core-synch-l1-2-0.dll WakeAllConditionVariable
api-ms-win-core-synch-l1-2-0.dll InitOnceExecuteOnce
api-ms-win-core-synch-l1-2-0.dll InitOnceComplete
api-ms-win-core-synch-l1-2-0.dll InitOnceBeginInitialize
api-ms-win-core-synch-l1-2-0.dll Sleep
api-ms-win-core-synch-l1-2-0.dll SleepConditionVariableSRW
api-ms-win-core-libraryloader-l1-2-0.dll GetModuleFileNameA
api-ms-win-core-libraryloader-l1-2-0.dll GetProcAddress
api-ms-win-core-libraryloader-l1-2-0.dll GetModuleHandleExW
api-ms-win-core-libraryloader-l1-2-0.dll GetModuleHandleW
api-ms-win-core-synch-l1-1-0.dll CreateMutexExW
api-ms-win-core-synch-l1-1-0.dll AcquireSRWLockShared
api-ms-win-core-synch-l1-1-0.dll DeleteCriticalSection
api-ms-win-core-synch-l1-1-0.dll WaitForSingleObject
api-ms-win-core-synch-l1-1-0.dll ReleaseSRWLockExclusive
api-ms-win-core-synch-l1-1-0.dll ResetEvent
api-ms-win-core-synch-l1-1-0.dll AcquireSRWLockExclusive
api-ms-win-core-synch-l1-1-0.dll InitializeCriticalSection
api-ms-win-core-synch-l1-1-0.dll ReleaseMutex
api-ms-win-core-synch-l1-1-0.dll LeaveCriticalSection
api-ms-win-core-synch-l1-1-0.dll ReleaseSemaphore
api-ms-win-core-synch-l1-1-0.dll EnterCriticalSection
api-ms-win-core-synch-l1-1-0.dll SetEvent
api-ms-win-core-synch-l1-1-0.dll OpenSemaphoreW
api-ms-win-core-synch-l1-1-0.dll InitializeCriticalSectionEx
api-ms-win-core-synch-l1-1-0.dll CreateEventExW
api-ms-win-core-synch-l1-1-0.dll WaitForSingleObjectEx
api-ms-win-core-synch-l1-1-0.dll ReleaseSRWLockShared
api-ms-win-core-synch-l1-1-0.dll CreateSemaphoreExW
api-ms-win-core-heap-l1-1-0.dll HeapFree
api-ms-win-core-heap-l1-1-0.dll GetProcessHeap
api-ms-win-core-heap-l1-1-0.dll HeapAlloc
api-ms-win-core-threadpool-l1-2-0.dll SetThreadpoolTimer
api-ms-win-core-threadpool-l1-2-0.dll WaitForThreadpoolTimerCallbacks
api-ms-win-core-threadpool-l1-2-0.dll CloseThreadpoolTimer
api-ms-win-core-threadpool-l1-2-0.dll CreateThreadpoolTimer
api-ms-win-core-handle-l1-1-0.dll CloseHandle
wincorlib.dll ?GetActivationFactory@Details@Platform@@YAJPEAVModuleBase@1WRL@Microsoft@@PEAUHSTRING__@@PEAPEAUIActivationFactory@@@Z
wincorlib.dll ?get@FullName@Type@Platform@@QE$AAAPE$AAVString@3@XZ
wincorlib.dll ?__abi_cast_String_to_Object@__abi_details@@YAPE$AAVObject@Platform@@PE$AAVString@3@@Z
wincorlib.dll ?ResolveWeakReference@Details@Platform@@YAPE$AAVObject@2@AEBU_GUID@@PEAPEAU__abi_IUnknown@@@Z
wincorlib.dll ??0InvalidArgumentException@Platform@@QE$AAA@XZ
wincorlib.dll ?GetWeakReference@Details@Platform@@YAPEAU__abi_IUnknown@@QE$ADVObject@2@@Z
wincorlib.dll ??0NotImplementedException@Platform@@QE$AAA@XZ
wincorlib.dll ?CreateException@Exception@Platform@@SAPE$AAV12@HPE$AAVString@2@@Z
wincorlib.dll ?__abi_ObjectToString@__abi_details@@YAPE$AAVString@Platform@@PE$AAVObject@3@_N@Z
wincorlib.dll ?GetTypeCode@Type@Platform@@SA?AW4TypeCode@2@PE$AAV12@@Z
wincorlib.dll ?GetIBoxVtable@Details@Platform@@YAPEAXPEAX@Z
wincorlib.dll ?CreateValue@Details@Platform@@YAPE$AAVObject@2@W4TypeCode@2@PEBX@Z
wincorlib.dll ?InitializeData@Details@Platform@@YAJH@Z
wincorlib.dll ?UninitializeData@Details@Platform@@YAXH@Z
wincorlib.dll ?__abi_FailFast@@YAXXZ
wincorlib.dll ?ReCreateFromException@Details@Platform@@YAJPE$AAVException@2@@Z
wincorlib.dll ?GetIidsFn@@YAJHPEAKPEBU__s_GUID@@PEAPEAVGuid@Platform@@@Z
wincorlib.dll ?GetActivationFactoryByPCWSTR@@YAJPEAXAEAVGuid@Platform@@PEAPEAX@Z
wincorlib.dll ??0DisconnectedException@Platform@@QE$AAA@XZ
wincorlib.dll ?get@Message@Exception@Platform@@QE$AAAPE$AAVString@3@XZ
wincorlib.dll ?__abi_cast_Object_to_String@__abi_details@@YAPE$AAVString@Platform@@_NPE$AAVObject@3@@Z
wincorlib.dll ??0NullReferenceException@Platform@@QE$AAA@XZ
wincorlib.dll ??0FailureException@Platform@@QE$AAA@PE$AAVString@1@@Z
wincorlib.dll ?__abi_make_type_id@@YAPE$AAVType@Platform@@AEBU__abi_type_descriptor@@@Z
wincorlib.dll ??BType@Platform@@SA?AVTypeName@Interop@Xaml@UI@Windows@@PE$AAV01@@Z
wincorlib.dll ?EventSourceGetTargetArrayEvent@Details@Platform@@YAPEAXPEAXIPEBXPEA_J@Z
wincorlib.dll ?EventSourceGetTargetArraySize@Details@Platform@@YAIPEAX@Z
wincorlib.dll ?EventSourceGetTargetArray@Details@Platform@@YAPEAXPEAXPEAUEventLock@12@@Z
wincorlib.dll ?GetIBoxArrayVtable@Details@Platform@@YAPEAXPEAX@Z
wincorlib.dll ?ReCreateException@Exception@Platform@@SAPE$AAV12@H@Z
wincorlib.dll ??0Delegate@Platform@@QE$AAA@XZ
wincorlib.dll ?Allocate@Heap@Details@Platform@@SAPEAX_K@Z
wincorlib.dll ?EventSourceInitialize@Details@Platform@@YAXPEAPEAX@Z
wincorlib.dll ?EventSourceAdd@Details@Platform@@YA?AVEventRegistrationToken@Foundation@Windows@@PEAPEAXPEAUEventLock@12@PE$AAVDelegate@2@@Z
wincorlib.dll ?EventSourceRemove@Details@Platform@@YAXPEAPEAXPEAUEventLock@12@VEventRegistrationToken@Foundation@Windows@@@Z
wincorlib.dll ?EventSourceUninitialize@Details@Platform@@YAXPEAPEAX@Z
wincorlib.dll ?AllocateException@Heap@Details@Platform@@SAPEAX_K0@Z
wincorlib.dll ?Allocate@Heap@Details@Platform@@SAPEAX_K0@Z
wincorlib.dll ?ReleaseTarget@ControlBlock@Details@Platform@@AEAAXXZ
wincorlib.dll ?AlignedFree@Heap@Details@Platform@@SAXPEAX@Z
wincorlib.dll ?Free@Heap@Details@Platform@@SAXPEAX@Z
wincorlib.dll ??0Object@Platform@@QE$AAA@XZ
wincorlib.dll ?__abi_WinRTraiseNotImplementedException@@YAXXZ
wincorlib.dll ?__abi_WinRTraiseInvalidCastException@@YAXXZ
wincorlib.dll ?__abi_WinRTraiseNullReferenceException@@YAXXZ
wincorlib.dll ?__abi_WinRTraiseOperationCanceledException@@YAXXZ
wincorlib.dll ?__abi_WinRTraiseFailureException@@YAXXZ
wincorlib.dll ?__abi_WinRTraiseAccessDeniedException@@YAXXZ
wincorlib.dll ?__abi_WinRTraiseOutOfMemoryException@@YAXXZ
wincorlib.dll ?__abi_WinRTraiseInvalidArgumentException@@YAXXZ
wincorlib.dll ?__abi_WinRTraiseOutOfBoundsException@@YAXXZ
wincorlib.dll ?__abi_WinRTraiseChangedStateException@@YAXXZ
wincorlib.dll ?__abi_WinRTraiseClassNotRegisteredException@@YAXXZ
wincorlib.dll ?__abi_WinRTraiseWrongThreadException@@YAXXZ
wincorlib.dll ?__abi_WinRTraiseDisconnectedException@@YAXXZ
wincorlib.dll ?__abi_WinRTraiseObjectDisposedException@@YAXXZ
wincorlib.dll ?__abi_WinRTraiseCOMException@@YAXJ@Z
wincorlib.dll ?CreateException@Exception@Platform@@SAPE$AAV12@H@Z
wincorlib.dll ?TerminateModule@Details@Platform@@YA_NPEAVModuleBase@1WRL@Microsoft@@@Z
msvcrt.dll memcpy
msvcrt.dll memmove
msvcrt.dll __uncaught_exception
msvcrt.dll setlocale
msvcrt.dll ___mb_cur_max_func
msvcrt.dll ___lc_handle_func
msvcrt.dll _ismbblead
msvcrt.dll __pctype_func
msvcrt.dll __CxxFrameHandler4
msvcrt.dll ??3@YAXPEAX@Z
msvcrt.dll _purecall
msvcrt.dll __ExceptionPtrDestroy
msvcrt.dll __ExceptionPtrCopy
msvcrt.dll __ExceptionPtrCurrentException
msvcrt.dll __ExceptionPtrCreate
msvcrt.dll ?terminate@@YAXXZ
msvcrt.dll ??0exception@@QEAA@AEBV0@@Z
msvcrt.dll ??1exception@@UEAA@XZ
msvcrt.dll ??0exception@@QEAA@XZ
msvcrt.dll __ExceptionPtrRethrow
msvcrt.dll ?what@exception@@UEBAPEBDXZ
msvcrt.dll ??0exception@@QEAA@AEBQEBD@Z
msvcrt.dll ??_U@YAPEAX_K@Z
msvcrt.dll _vsnwprintf
msvcrt.dll ??0bad_cast@@QEAA@AEBV0@@Z
msvcrt.dll ??1bad_cast@@UEAA@XZ
msvcrt.dll ??0bad_cast@@QEAA@PEBD@Z
msvcrt.dll free
msvcrt.dll _wcsnicmp
msvcrt.dll memcpy_s
msvcrt.dll _vsnprintf_s
msvcrt.dll wcsstr
msvcrt.dll memmove_s
msvcrt.dll wcsrchr
msvcrt.dll _errno
msvcrt.dll wcstol
msvcrt.dll strchr
msvcrt.dll realloc
msvcrt.dll __CxxFrameHandler3
msvcrt.dll memset
msvcrt.dll wcslen
msvcrt.dll _CxxThrowException
msvcrt.dll ??1type_info@@UEAA@XZ
msvcrt.dll _lock
msvcrt.dll _unlock
msvcrt.dll __dllonexit
msvcrt.dll __C_specific_handler
msvcrt.dll _onexit
msvcrt.dll _XcptFilter
msvcrt.dll _amsg_exit
msvcrt.dll malloc
msvcrt.dll _initterm
msvcrt.dll calloc
msvcrt.dll ___lc_collate_cp_func
msvcrt.dll memcmp
msvcrt.dll abort
msvcrt.dll _wcsdup
msvcrt.dll __crtCompareStringW
msvcrt.dll __crtLCMapStringW
msvcrt.dll _wsetlocale
msvcrt.dll _callnewh
msvcrt.dll ??0exception@@QEAA@AEBQEBDH@Z
msvcrt.dll ___lc_codepage_func
ole32.dll CoTaskMemAlloc
ole32.dll CoCreateFreeThreadedMarshaler
ole32.dll CoTaskMemFree
api-ms-win-core-winrt-error-l1-1-0.dll RoOriginateError
api-ms-win-core-winrt-string-l1-1-0.dll WindowsCompareStringOrdinal
api-ms-win-core-winrt-string-l1-1-0.dll WindowsConcatString
api-ms-win-core-winrt-string-l1-1-0.dll WindowsCreateString
api-ms-win-core-winrt-string-l1-1-0.dll WindowsCreateStringReference
api-ms-win-core-winrt-string-l1-1-0.dll WindowsDeleteString
api-ms-win-core-winrt-string-l1-1-0.dll WindowsIsStringEmpty
api-ms-win-core-winrt-string-l1-1-0.dll WindowsDuplicateString
api-ms-win-core-winrt-string-l1-1-0.dll WindowsGetStringLen
api-ms-win-core-winrt-string-l1-1-0.dll WindowsGetStringRawBuffer
api-ms-win-core-util-l1-1-0.dll DecodePointer
api-ms-win-core-util-l1-1-0.dll EncodePointer
api-ms-win-core-rtlsupport-l1-1-0.dll RtlVirtualUnwind
api-ms-win-core-rtlsupport-l1-1-0.dll RtlCaptureContext
api-ms-win-core-rtlsupport-l1-1-0.dll RtlLookupFunctionEntry
api-ms-win-core-profile-l1-1-0.dll QueryPerformanceCounter
api-ms-win-core-string-l1-1-0.dll WideCharToMultiByte
api-ms-win-core-string-l1-1-0.dll GetStringTypeW
api-ms-win-core-string-l1-1-0.dll MultiByteToWideChar
