msvcrt.dll iswxdigit
msvcrt.dll time
msvcrt.dll towupper
msvcrt.dll isdigit
msvcrt.dll _ultow_s
msvcrt.dll _itow_s
msvcrt.dll strncpy_s
msvcrt.dll _ultoa_s
msvcrt.dll _stricmp
msvcrt.dll qsort
msvcrt.dll _wfullpath
msvcrt.dll _ltow_s
msvcrt.dll wcsrchr
msvcrt.dll wcstol
msvcrt.dll modf
msvcrt.dll swscanf_s
msvcrt.dll _vsnprintf
msvcrt.dll _wtoi
msvcrt.dll wcsncmp
msvcrt.dll _purecall
msvcrt.dll wcschr
msvcrt.dll _wtol
msvcrt.dll wcsstr
msvcrt.dll towlower
msvcrt.dll _wcsicmp
msvcrt.dll _vsnwprintf
msvcrt.dll iswspace
msvcrt.dll floor
msvcrt.dll _ftol2_sse
msvcrt.dll _ftol2
msvcrt.dll iswdigit
msvcrt.dll _wcsnicmp
msvcrt.dll __CxxFrameHandler3
msvcrt.dll memcmp
msvcrt.dll memcpy
msvcrt.dll memmove
msvcrt.dll _except_handler4_common
msvcrt.dll ?terminate@@YAXXZ
msvcrt.dll _initterm
msvcrt.dll malloc
msvcrt.dll free
msvcrt.dll _amsg_exit
msvcrt.dll _XcptFilter
msvcrt.dll localtime
msvcrt.dll memset
ntdll.dll WinSqmSetDWORD
kernel32.dll ExpandEnvironmentStringsA
kernel32.dll GetComputerNameA
kernel32.dll GetDiskFreeSpaceA
kernel32.dll GlobalMemoryStatus
kernel32.dll GetTickCount
kernel32.dll GetSystemTimeAsFileTime
kernel32.dll QueryPerformanceCounter
kernel32.dll TerminateProcess
kernel32.dll SetUnhandledExceptionFilter
kernel32.dll UnhandledExceptionFilter
kernel32.dll LeaveCriticalSection
kernel32.dll CloseHandle
kernel32.dll CreateEventA
kernel32.dll GetLastError
kernel32.dll GetCurrentProcess
kernel32.dll GetCurrentThread
kernel32.dll GetTickCount64
kernel32.dll Sleep
kernel32.dll SetEvent
kernel32.dll WaitForSingleObject
kernel32.dll GetOEMCP
kernel32.dll GetACP
kernel32.dll GetLocalTime
kernel32.dll SetLastError
kernel32.dll GetCPInfo
kernel32.dll MultiByteToWideChar
kernel32.dll WideCharToMultiByte
kernel32.dll GetSystemTime
kernel32.dll GetCurrentProcessId
kernel32.dll GetTimeZoneInformation
kernel32.dll GetModuleHandleW
kernel32.dll GetProcAddress
kernel32.dll SetThreadErrorMode
kernel32.dll LoadLibraryExW
kernel32.dll FindResourceW
kernel32.dll LoadResource
kernel32.dll LockResource
kernel32.dll FreeResource
kernel32.dll GetUserDefaultLCID
kernel32.dll IsValidLocale
kernel32.dll CreateFileW
kernel32.dll GetPrivateProfileStringW
kernel32.dll WritePrivateProfileStringW
kernel32.dll GetModuleHandleA
kernel32.dll GetModuleFileNameW
kernel32.dll GetSystemDefaultLCID
kernel32.dll FreeLibrary
kernel32.dll LCIDToLocaleName
kernel32.dll GetLocaleInfoEx
kernel32.dll DisableThreadLibraryCalls
kernel32.dll GetComputerNameW
kernel32.dll VirtualQuery
kernel32.dll LoadLibraryExA
kernel32.dll GetModuleFileNameA
kernel32.dll GetSystemDirectoryA
kernel32.dll GetFullPathNameA
kernel32.dll SearchPathA
kernel32.dll GetDriveTypeA
kernel32.dll OutputDebugStringA
kernel32.dll InitializeCriticalSection
kernel32.dll DeleteCriticalSection
kernel32.dll EnterCriticalSection
kernel32.dll ExitProcess
kernel32.dll VirtualFree
kernel32.dll LocalAlloc
kernel32.dll LocalFree
kernel32.dll CreateFileMappingA
kernel32.dll MapViewOfFile
kernel32.dll UnmapViewOfFile
kernel32.dll OpenFileMappingA
kernel32.dll GetCurrentThreadId
kernel32.dll VirtualAlloc
user32.dll CharToOemBuffA
user32.dll OemToCharBuffA
user32.dll GetWindowLongW
user32.dll MessageBoxW
user32.dll EndDialog
user32.dll IsWindowEnabled
user32.dll GetDlgItem
user32.dll SendMessageW
user32.dll SetFocus
user32.dll SetWindowLongW
user32.dll GetWindowRect
user32.dll MoveWindow
user32.dll EnableWindow
user32.dll PostMessageW
user32.dll SendDlgItemMessageW
user32.dll ShowWindow
user32.dll CheckDlgButton
user32.dll SetDlgItemTextW
user32.dll GetDlgItemTextW
user32.dll IsDlgButtonChecked
user32.dll LoadCursorW
user32.dll SetCapture
user32.dll SetCursor
user32.dll ReleaseCapture
user32.dll GetParent
user32.dll IsWindowVisible
user32.dll GetSystemMetrics
user32.dll LoadStringW
user32.dll DialogBoxParamW
crypt32.dll CryptProtectMemory
crypt32.dll CryptUnprotectMemory
advapi32.dll AllocateLocallyUniqueId
advapi32.dll RegCreateKeyExA
advapi32.dll RegSetValueExA
advapi32.dll FreeSid
advapi32.dll SetSecurityDescriptorDacl
advapi32.dll InitializeSecurityDescriptor
advapi32.dll AddAccessAllowedAce
advapi32.dll AddAccessDeniedAce
advapi32.dll InitializeAcl
advapi32.dll GetLengthSid
advapi32.dll AllocateAndInitializeSid
advapi32.dll UnregisterTraceGuids
advapi32.dll RegisterTraceGuidsW
advapi32.dll RegQueryValueExA
advapi32.dll RegOpenKeyExA
advapi32.dll RegGetValueA
advapi32.dll RegCloseKey
advapi32.dll RegQueryValueExW
advapi32.dll RegEnumValueW
advapi32.dll RegOpenKeyExW
advapi32.dll SetThreadToken
advapi32.dll RevertToSelf
advapi32.dll DuplicateTokenEx
advapi32.dll OpenThreadToken
advapi32.dll OpenProcessToken
ole32.dll CoGetMalloc
ole32.dll StringFromGUID2
ole32.dll CoGetClassObject
ole32.dll CoCreateInstance
ole32.dll CLSIDFromProgID
ole32.dll CreatePointerMoniker
oleaut32.dll SysStringLen
oleaut32.dll VarBstrFromDec
oleaut32.dll SysStringByteLen
oleaut32.dll SysAllocStringLen
oleaut32.dll VarI2FromR8
oleaut32.dll VariantInit
oleaut32.dll SafeArrayUnlock
oleaut32.dll SafeArrayLock
oleaut32.dll SysAllocStringByteLen
oleaut32.dll VarBstrFromDate
oleaut32.dll VarDateFromCy
oleaut32.dll VarDateFromDec
oleaut32.dll VarDecFromR8
oleaut32.dll VarCyFromR8
oleaut32.dll VariantClear
oleaut32.dll SysFreeString
oleaut32.dll SysAllocString
oleaut32.dll SetErrorInfo
oleaut32.dll VariantCopy
oleaut32.dll SafeArrayGetDim
oleaut32.dll GetErrorInfo
oleaut32.dll VarI1FromR8
rpcrt4.dll UuidCreate
msdart.dll ?fHaveBackup@CEXAutoBackupFile@@QAEHXZ
msdart.dll ?RestoreFile@CEXAutoBackupFile@@QAEJXZ
msdart.dll MpGetHeapHandle
msdart.dll FXMemAttach
msdart.dll ?UndoBackup@CEXAutoBackupFile@@QAEJXZ
msdart.dll ?BackupFile@CEXAutoBackupFile@@QAEJPBG@Z
msdart.dll ??1CEXAutoBackupFile@@QAE@XZ
msdart.dll ??0CEXAutoBackupFile@@QAE@XZ
msdart.dll mpRealloc
msdart.dll UMSEnterCSWraper
msdart.dll MPInitializeCriticalSectionAndSpinCount
msdart.dll MpHeapAlloc
msdart.dll MPDeleteCriticalSection
msdart.dll mpFree
msdart.dll mpMalloc
msdart.dll MPCSInitialize
msdart.dll MPCSUninitialize
msdart.dll FXMemDetach
msdart.dll mpCalloc
msdatl3.dll ?NoBusySlots@CSlotListShort@@UAGJXZ
msdatl3.dll ?ReleaseSlots@CSlotListShort@@UAGKKK@Z
msdatl3.dll ?GetNextSlots@CSlotListShort@@UAGJKKPAK@Z
msdatl3.dll ?FInit@CSlotListShort@@UAEHKPAPAVISlotList@@PAPAVIHashTbl@@K@Z
msdatl3.dll ?fReasonNeeded@CRowsetConnectionPointContainer@@QAEHKW4DBREASONENUM@@W4DBEVENTPHASEENUM@@@Z
msdatl3.dll ?DoRcNotify@CRowsetConnectionPointContainer@@QAEJKW4DBREASONENUM@@W4DBEVENTPHASEENUM@@PAUIRowset@@KQAK@Z
msdatl3.dll ??1CSlotListShort@@UAE@XZ
msdatl3.dll ??0CSlotListShort@@QAE@XZ
msdatl3.dll ??1CHashTbl@@UAE@XZ
msdatl3.dll ?FInit@CHashTbl@@QAEHGPAVCSlotListShort@@PAVIBookmarkObj@@@Z
msdatl3.dll ??0CHashTbl@@QAE@XZ
msdatl3.dll ?Init@CRowsetConnectionPointContainer@@QAEJXZ
msdatl3.dll ??0CRowsetConnectionPointContainer@@QAE@PAUIUnknown@@@Z
msdatl3.dll ??1CRowsetConnectionPointContainer@@QAE@XZ
msdatl3.dll ?DoRscNotify@CRowsetConnectionPointContainer@@QAEJKW4DBREASONENUM@@W4DBEVENTPHASEENUM@@PAUIRowset@@@Z
msdatl3.dll ?IsValidSlot@CSlotListShort@@UAGJK@Z
msdatl3.dll ?RecordInternalUse@CSlotListShort@@UAGXXZ
msdatl3.dll ?ResetBusySlotIteration@CSlotListShort@@UAGXXZ
msdatl3.dll ?SetPropRequired@CUtlProps2@@QAEXKKF@Z
msdatl3.dll ?SetPropOption@CUtlProps2@@QAEXKKK@Z
msdatl3.dll ?RemoveInternalFlags@CUtlProps2@@QAEXKKK@Z
msdatl3.dll ?RestoreInternalStatus@CUtlProps2@@QAEXKK@Z
msdatl3.dll ?RestoreInternalFlags@CUtlProps2@@QAEXKK@Z
msdatl3.dll ?SaveInternalStatus@CUtlProps2@@QAEXKK@Z
msdatl3.dll ?SaveInternalFlags@CUtlProps2@@QAEXKK@Z
msdatl3.dll ?CompareDBIDs@@YAJPBUtagDBID@@0@Z
msdatl3.dll ?GetInternalStatus@CUtlProps2@@QAEKKK@Z
msdatl3.dll ?GetPropOption@CUtlProps2@@QAEKKK@Z
msdatl3.dll ??1CClassFactory@@QAE@XZ
msdatl3.dll ?SetValLong@CUtlProps2@@QAEXKKJ@Z
msdatl3.dll ?CreateVLHeap@@YAJPAPAUIVLHeap@@@Z
msdatl3.dll ?ConflictsWithCurrent@CUtlProps2@@UAEHKKABUtagVARIANT@@@Z
msdatl3.dll ?SetCombinedPassThrough@CUtlProps2@@UAEJPBUtagDBPROPSET@@K@Z
msdatl3.dll ?GetExpectedVarType@CUtlProps2@@QAEGKK@Z
msdatl3.dll ?GetValShort@CUtlProps2@@QBEFKK@Z
msdatl3.dll ?FillDefaultValues@CUtlProps2@@QAEJK@Z
msdatl3.dll ?GetVariant@CUtlProps2@@QAEPAUtagVARIANT@@KK@Z
msdatl3.dll ?SetUPropSetCount@CUtlProps2@@QAEXK@Z
msdatl3.dll ??0CUtlProps2@@QAE@K@Z
msdatl3.dll ?LoadResourceDLL@@YAJPAG0PAXPAPAX@Z
msdatl3.dll ?SetUPropSetCount@CUtlPropInfo@@IAEXK@Z
msdatl3.dll ??0CUtlPropInfo@@QAE@XZ
msdatl3.dll ?GetPropertyInfo@CUtlPropInfo@@QAEJKQBUtagDBPROPIDSET@@PAKPAPAUtagDBPROPINFOSET@@PAPAG@Z
msdatl3.dll ?IsEmpty@CUtlProps2@@QAEHKK@Z
msdatl3.dll ?GetUPropSetCount@CUtlProps2@@QAEKXZ
msdatl3.dll ?NextBusySlot@CSlotListShort@@UAGJPAK@Z
msdatl3.dll ?FInit@CUtlPropInfo@@QAEJXZ
msdatl3.dll ??1CUtlPropInfo@@UAE@XZ
msdatl3.dll ?GetValLong@CUtlProps2@@QBEJKK@Z
msdatl3.dll ?CopyPropsInError@CUtlProps2@@QAEXPAV1@@Z
msdatl3.dll ?GetUPropValIndex@CUtlProps2@@MAEKKK@Z
msdatl3.dll ?Transfer@CExtBuffer@@QAEXPAV1@@Z
msdatl3.dll ?Free@CExtBuffer@@QAEXXZ
msdatl3.dll ?FInit@CUtlProps2@@UAEJPAV1@@Z
msdatl3.dll ?GetIndexofPropSet@CUtlProps2@@UAEJPBU_GUID@@PAK@Z
msdatl3.dll ?GetIndexofPropIdinPropSet@CUtlProps2@@UAEJKKPAK@Z
msdatl3.dll ?FInit@CBaseObj@@IAEJXZ
msdatl3.dll ?SetPassThrough@CUtlProps2@@UAEJPBUtagDBPROPSET@@@Z
msdatl3.dll ?FIsValidColId@CUtlProps2@@UAEHPAUtagDBPROP@@@Z
msdatl3.dll ?SecureSetValue@CUtlProps2@@UAEJKKPAUtagVARIANT@@0@Z
msdatl3.dll ?SecureGetValue@CUtlProps2@@UAEJKKPAUtagVARIANT@@0@Z
msdatl3.dll ?SetValString@CUtlProps2@@UAEJKKPBG@Z
msdatl3.dll ??1CUtlProps2@@UAE@XZ
msdatl3.dll ?SetInternalStatus@CUtlProps2@@QAEXKKK@Z
msdatl3.dll ?AddInternalFlags@CUtlProps2@@QAEXKKK@Z
msdatl3.dll ?SetPropertyInError@CUtlProps2@@QAEXKK@Z
msdatl3.dll ?IsRequiredTrue@CUtlProps2@@QAEHKK@Z
msdatl3.dll ?IsTrue@CUtlProps2@@QAEHKK@Z
msdatl3.dll ?ClearPropertyInError@CUtlProps2@@QAEXXZ
msdatl3.dll ?GetValString@CUtlProps2@@QAEPBGKK@Z
msdatl3.dll ?SetValBool@CUtlProps2@@QAEXKKF@Z
msdatl3.dll ?GetInternalFlags@CUtlProps2@@QAEKKK@Z
msdatl3.dll ?SetProperties@CUtlProps2@@QAEJKQBUtagDBPROPSET@@H@Z
msdatl3.dll ?SetPropertiesArgChk@CUtlProps2@@SAJKQBUtagDBPROPSET@@@Z
msdatl3.dll ?GetProperties@CUtlProps2@@QAEJKQBUtagDBPROPIDSET@@PAKPAPAUtagDBPROPSET@@PBU_GUID@@@Z
msdatl3.dll ??1CBaseObj@@UAE@XZ
msdatl3.dll ??0CBaseObj@@IAE@W4EBaseObjectType@@PAUIUnknown@@PAJ_N@Z
msdatl3.dll ?FInit@CExtBuffer@@QAEHPAV1@@Z
msdatl3.dll ?CountOfBusySlots@CSlotListShort@@UAGKXZ
msdatl3.dll ?SLSlotCapacity@CSlotListShort@@UAGKXZ
msdatl3.dll ?InsertFindBmk@CHashTbl@@UAGJHKKPAEPAK@Z
msdatl3.dll ?DeleteBmk@CHashTbl@@UAGJK@Z
msdatl3.dll ?DWORDIntoExtBuffer@CExtBuffer@@QAGJK@Z
msdatl3.dll ?DeleteWithCompactFromExtBuffer@CExtBuffer@@QAGXK@Z
msdatl3.dll ?DoFcNotify@CRowsetConnectionPointContainer@@QAEJKW4DBREASONENUM@@W4DBEVENTPHASEENUM@@PAUIRowset@@KKQAK@Z
msdatl3.dll ??0CClassFactory@@QAE@PAJ0@Z
msdatl3.dll ?AddRef@CClassFactory@@UAGKXZ
msdatl3.dll ?Release@CClassFactory@@UAGKXZ
msdatl3.dll ?LockServer@CClassFactory@@UAGJH@Z
msdatl3.dll ?QueryInterface@CClassFactory@@UAGJABU_GUID@@PAPAX@Z
msdatl3.dll ?AllocItems@CExtBuffer@@QAGPAEK@Z
msdatl3.dll ?FInit@CExtBuffer@@QAEHKK@Z
msdatl3.dll ?ClearPropSupported@CUtlProps2@@QAEXKK@Z
msdatl3.dll ??1IBookmarkObj@@UAE@XZ
msdatl3.dll ??0IBookmarkObj@@QAE@XZ
msdatl3.dll ?GetNameFromOffset@CExtBuffer@@QAEPAGK@Z
msdatl3.dll ?GetRowBuff@CSlotListShort@@UAIPAUtagRowBuff@@K@Z
msdatl3.dll ?SetPropertyStatus@CUtlProps2@@QAEXKQBUtagDBPROPSET@@@Z
msdatl3.dll ?GetDWORDOfExtBuffer@CExtBuffer@@QAGKK@Z
msdatl3.dll ?GetLastItemHandle@CExtBuffer@@QAGXAAK@Z
msdatl3.dll ??1CExtBuffer@@QAE@XZ
msdatl3.dll ??1CBitArray@@QAE@XZ
msdatl3.dll ??0CExtBuffer@@QAE@XZ
msdatl3.dll ??0CBitArray@@QAE@XZ
msdatl3.dll ?FInit@CBitArray@@QAGJK@Z
msdatl3.dll ?GetPtrOfExtBuffer@CExtBuffer@@QAGPAXXZ
msdatl3.dll ?FInit@CExtBuffer@@QAEHKPAXKK@Z
msdatl3.dll ?GetOuterUnknown@CBaseObj@@QAEPAUIUnknown@@XZ
msdatl3.dll ?GetBidID@CBaseObj@@QAEHXZ
msdatl3.dll ?GetBaseObjectType@CBaseObj@@QAE?AW4EBaseObjectType@@XZ
msdatl3.dll ?ResetAllSlots@CBitArray@@QAGXXZ
msdatl3.dll ?IsSlotSet@CBitArray@@QAGJK@Z
msdatl3.dll ?SetSlot@CBitArray@@QAGJK@Z
msdatl3.dll ?InsertIntoExtBuffer@CExtBuffer@@QAGJPAXAAK@Z
msdatl3.dll ?GetValBool@CUtlProps2@@QBEFKK@Z
msdatl3.dll ?GetItemOfExtBuffer@CExtBuffer@@QAGXKPAX@Z
msdatl3.dll ?DeleteFromExtBuffer@CExtBuffer@@QAGXK@Z
msdatl3.dll ?CompactExtBuffer@CExtBuffer@@QAGXXZ
msdatl3.dll ?GetCriticalSection@CBaseObj@@QAEPAPAVCCriticalSection@@XZ
msdatl3.dll ?WriteIntoExtBuffer@CExtBuffer@@QAGJPBXK@Z
msdatl3.dll ?GetItemCount@CExtBuffer@@QBGKXZ
msdatl3.dll ?SetItemCount@CExtBuffer@@QAGXK@Z
msdatl3.dll ?WriteWCharToExtBuffer@CExtBuffer@@QAGJGK@Z
msdatl3.dll ?ReplaceInExtBuffer@CExtBuffer@@QAGJKKPBXK@Z
msdatl3.dll ?GetPtrOfExtBuffer@CExtBuffer@@QAGPAXK@Z
msdatl3.dll ?GetPropertiesArgChk@CUtlProps2@@QAEJKQBUtagDBPROPIDSET@@PAKPAPAUtagDBPROPSET@@@Z
netapi32.dll Netbios
