msvcrt.dll wcscpy_s
msvcrt.dll __RTDynamicCast
msvcrt.dll memcmp
msvcrt.dll _except_handler4_common
msvcrt.dll ??1type_info@@UAE@XZ
msvcrt.dll _onexit
msvcrt.dll __dllonexit
msvcrt.dll _unlock
msvcrt.dll _lock
msvcrt.dll _initterm
msvcrt.dll free
msvcrt.dll _amsg_exit
msvcrt.dll _XcptFilter
msvcrt.dll memmove
msvcrt.dll memcpy
msvcrt.dll _CxxThrowException
msvcrt.dll ??0exception@@QAE@ABQBD@Z
msvcrt.dll _callnewh
msvcrt.dll malloc
msvcrt.dll _vsnwprintf_s
msvcrt.dll ??0exception@@QAE@ABQBDH@Z
msvcrt.dll ??0exception@@QAE@XZ
msvcrt.dll ??1exception@@UAE@XZ
msvcrt.dll ?what@exception@@UBEPBDXZ
msvcrt.dll tolower
msvcrt.dll _vsnwprintf
msvcrt.dll memcpy_s
msvcrt.dll ?terminate@@YAXXZ
msvcrt.dll ??0exception@@QAE@ABV0@@Z
msvcrt.dll _purecall
msvcrt.dll __CxxFrameHandler3
msvcrt.dll ??3@YAXPAX@Z
msvcrt.dll memset
shell32.dll SHBindToObject
shell32.dll SHParseDisplayName
shell32.dll ShellExecuteExW
shlwapi.dll SHStrDupW
api-ms-win-eventing-classicprovider-l1-1-0.dll RegisterTraceGuidsW
api-ms-win-eventing-classicprovider-l1-1-0.dll GetTraceEnableFlags
api-ms-win-eventing-classicprovider-l1-1-0.dll UnregisterTraceGuids
api-ms-win-eventing-classicprovider-l1-1-0.dll GetTraceLoggerHandle
api-ms-win-eventing-classicprovider-l1-1-0.dll GetTraceEnableLevel
api-ms-win-eventing-classicprovider-l1-1-0.dll TraceMessage
api-ms-win-core-sysinfo-l1-1-0.dll GetSystemTime
api-ms-win-core-sysinfo-l1-1-0.dll GetTickCount
api-ms-win-core-sysinfo-l1-1-0.dll GetSystemTimeAsFileTime
api-ms-win-core-sysinfo-l1-1-0.dll GetSystemDirectoryW
api-ms-win-core-errorhandling-l1-1-0.dll SetLastError
api-ms-win-core-errorhandling-l1-1-0.dll GetLastError
api-ms-win-core-errorhandling-l1-1-0.dll SetUnhandledExceptionFilter
api-ms-win-core-errorhandling-l1-1-0.dll UnhandledExceptionFilter
api-ms-win-core-heap-l2-1-0.dll LocalAlloc
api-ms-win-core-heap-l2-1-0.dll LocalFree
api-ms-win-core-localization-l1-2-0.dll FormatMessageW
api-ms-win-core-libraryloader-l1-2-0.dll GetModuleHandleW
api-ms-win-core-libraryloader-l1-2-0.dll LoadStringW
api-ms-win-core-libraryloader-l1-2-0.dll GetProcAddress
api-ms-win-core-libraryloader-l1-2-0.dll GetModuleFileNameA
api-ms-win-core-libraryloader-l1-2-0.dll GetModuleHandleExW
api-ms-win-core-libraryloader-l1-2-0.dll LoadLibraryExW
api-ms-win-core-libraryloader-l1-2-0.dll DisableThreadLibraryCalls
api-ms-win-core-libraryloader-l1-2-0.dll GetModuleFileNameW
crypt32.dll CertAddSerializedElementToStore
crypt32.dll CertFreeCertificateContext
crypt32.dll CertGetNameStringW
crypt32.dll CertGetCertificateContextProperty
crypt32.dll CertGetEnhancedKeyUsage
crypt32.dll CertFindCertificateInStore
crypt32.dll CertCloseStore
crypt32.dll CertFreeCertificateChainList
crypt32.dll CertSelectCertificateChains
crypt32.dll CertOpenSystemStoreW
api-ms-win-core-com-l1-1-0.dll CoCreateInstance
api-ms-win-core-com-l1-1-0.dll CoTaskMemFree
api-ms-win-security-credentials-l1-1-0.dll CredEnumerateW
api-ms-win-security-credentials-l1-1-0.dll CredUnmarshalCredentialW
api-ms-win-security-credentials-l1-1-0.dll CredFree
api-ms-win-security-credentials-l1-1-0.dll CredDeleteW
api-ms-win-security-credentials-l1-1-0.dll CredMarshalCredentialW
api-ms-win-security-credentials-l1-1-0.dll CredWriteW
api-ms-win-security-credentials-l1-1-0.dll CredGetSessionTypes
api-ms-win-core-processthreads-l1-1-0.dll OpenProcessToken
api-ms-win-core-processthreads-l1-1-0.dll CreateProcessW
api-ms-win-core-processthreads-l1-1-0.dll GetCurrentThread
api-ms-win-core-processthreads-l1-1-0.dll GetCurrentProcessId
api-ms-win-core-processthreads-l1-1-0.dll GetCurrentThreadId
api-ms-win-core-processthreads-l1-1-0.dll GetCurrentProcess
api-ms-win-core-processthreads-l1-1-0.dll TerminateProcess
api-ms-win-core-processthreads-l1-1-0.dll OpenThreadToken
api-ms-win-core-handle-l1-1-0.dll CloseHandle
oleaut32.dll SysFreeString
oleaut32.dll SysAllocString
oleaut32.dll VariantClear
api-ms-win-security-base-l1-1-0.dll GetSidSubAuthority
api-ms-win-security-base-l1-1-0.dll InitializeSid
api-ms-win-security-base-l1-1-0.dll GetTokenInformation
api-ms-win-security-base-l1-1-0.dll EqualSid
api-ms-win-security-base-l1-1-0.dll GetLengthSid
api-ms-win-security-base-l1-1-0.dll GetSidSubAuthorityCount
api-ms-win-security-base-l1-1-0.dll CopySid
api-ms-win-core-heap-l1-1-0.dll HeapAlloc
api-ms-win-core-heap-l1-1-0.dll GetProcessHeap
api-ms-win-core-heap-l1-1-0.dll HeapFree
api-ms-win-core-synch-l1-2-0.dll InitOnceBeginInitialize
api-ms-win-core-synch-l1-2-0.dll Sleep
api-ms-win-core-synch-l1-2-0.dll InitOnceComplete
api-ms-win-core-profile-l1-1-0.dll QueryPerformanceCounter
api-ms-win-core-synch-l1-1-0.dll DeleteCriticalSection
api-ms-win-core-synch-l1-1-0.dll EnterCriticalSection
api-ms-win-core-synch-l1-1-0.dll ReleaseSemaphore
api-ms-win-core-synch-l1-1-0.dll ReleaseMutex
api-ms-win-core-synch-l1-1-0.dll WaitForSingleObjectEx
api-ms-win-core-synch-l1-1-0.dll WaitForSingleObject
api-ms-win-core-synch-l1-1-0.dll OpenSemaphoreW
api-ms-win-core-synch-l1-1-0.dll CreateMutexExW
api-ms-win-core-synch-l1-1-0.dll CreateSemaphoreExW
api-ms-win-core-synch-l1-1-0.dll InitializeCriticalSection
api-ms-win-core-synch-l1-1-0.dll LeaveCriticalSection
api-ms-win-security-sddl-l1-1-0.dll ConvertSidToStringSidW
api-ms-win-core-timezone-l1-1-0.dll FileTimeToSystemTime
api-ms-win-core-datetime-l1-1-0.dll GetDateFormatW
api-ms-win-core-file-l1-1-0.dll FileTimeToLocalFileTime
api-ms-win-core-file-l1-1-0.dll CompareFileTime
rpcrt4.dll RpcStringFreeW
rpcrt4.dll UuidToStringW
api-ms-win-core-processenvironment-l1-1-0.dll ExpandEnvironmentStringsW
sspicli.dll LsaFreeReturnBuffer
sspicli.dll LsaConnectUntrusted
sspicli.dll LsaLookupAuthenticationPackage
sspicli.dll LsaLogonUser
sspicli.dll LsaDeregisterLogonProcess
api-ms-win-core-debug-l1-1-0.dll IsDebuggerPresent
api-ms-win-core-debug-l1-1-0.dll DebugBreak
api-ms-win-core-debug-l1-1-0.dll OutputDebugStringW
api-ms-win-core-string-l1-1-0.dll CompareStringOrdinal
vaultcli.dll VaultRemoveItem
vaultcli.dll VaultCloseVault
vaultcli.dll VaultGetItem
vaultcli.dll VaultAddItem
vaultcli.dll VaultOpenVault
vaultcli.dll VaultGetItemType
vaultcli.dll VaultEnumerateVaults
vaultcli.dll VaultFree
vaultcli.dll VaultGetInformation
vaultcli.dll VaultEnumerateItems
credui.dll CredUnPackAuthenticationBufferW
credui.dll CredUIPromptForWindowsCredentialsW
cryptui.dll CertSelectionGetSerializedBlob
kernel32.dll ReleaseActCtx
kernel32.dll CreateActCtxW
kernel32.dll DeactivateActCtx
kernel32.dll LocalSize
kernel32.dll ActivateActCtx
ntdll.dll EtwLogTraceEvent
ntdll.dll EtwEventWriteTransfer
ntdll.dll EtwEventSetInformation
ntdll.dll EtwEventRegister
ntdll.dll EtwEventUnregister
ntdll.dll WinSqmAddToStream
ntdll.dll NtAllocateLocallyUniqueId
ntdll.dll RtlNtStatusToDosError
ntdll.dll RtlSubAuthoritySid
ntdll.dll RtlInitializeSid
ntdll.dll EtwTraceMessage
ntdll.dll RtlInitString
user32.dll GetFocus
user32.dll LoadCursorW
user32.dll LoadImageW
user32.dll DestroyIcon
user32.dll SetCursor
dui70.dll ?GetHostedElementID@XProvider@DirectUI@@UAGJPAG@Z
dui70.dll ?FindElementWithShortcutAndDoDefaultAction@XProvider@DirectUI@@UAGHGH@Z
dui70.dll ?CanSetFocus@XProvider@DirectUI@@UAGJPA_N@Z
dui70.dll ?Navigate@XProvider@DirectUI@@UAGJHPA_N@Z
dui70.dll ?SetFocus@XProvider@DirectUI@@UAGJPAVElement@2@@Z
dui70.dll ?IsDescendent@XProvider@DirectUI@@UAGJPAVElement@2@PA_N@Z
dui70.dll ?GetDesiredSize@XProvider@DirectUI@@UAGJHHPAUtagSIZE@@@Z
dui70.dll ?SetParameter@XProvider@DirectUI@@UAGJABU_GUID@@PAX@Z
dui70.dll ?AddRef@XProvider@DirectUI@@UAGKXZ
dui70.dll ?GetClassInfoPtr@HWNDElement@DirectUI@@SGPAUIClassInfo@2@XZ
dui70.dll ?SetDefaultButtonTracking@XProvider@DirectUI@@UAGJ_N@Z
dui70.dll ?SetHandleEnterKey@XProvider@DirectUI@@IAEX_N@Z
dui70.dll ?CreateDUI@XProvider@DirectUI@@UAGJPAVIXElementCP@2@PAPAUHWND__@@@Z
dui70.dll ?GetModule@ClassInfoBase@DirectUI@@UBEPAUHINSTANCE__@@XZ
dui70.dll ?IsSubclassOf@ClassInfoBase@DirectUI@@UBE_NPAUIClassInfo@2@@Z
dui70.dll ?IsValidProperty@ClassInfoBase@DirectUI@@UBE_NPBUPropertyInfo@2@@Z
dui70.dll ?GetName@ClassInfoBase@DirectUI@@UBEPBGXZ
dui70.dll ?GetGlobalIndex@ClassInfoBase@DirectUI@@UBEIXZ
dui70.dll ?GetPICount@ClassInfoBase@DirectUI@@UBEIXZ
dui70.dll ?GetByClassIndex@ClassInfoBase@DirectUI@@UAEPBUPropertyInfo@2@I@Z
dui70.dll ?EnumPropertyInfo@ClassInfoBase@DirectUI@@UAEPBUPropertyInfo@2@I@Z
dui70.dll ?Release@ClassInfoBase@DirectUI@@UAEHXZ
dui70.dll ?AddRef@ClassInfoBase@DirectUI@@UAEXXZ
dui70.dll ??1ClassInfoBase@DirectUI@@UAE@XZ
dui70.dll ??0ClassInfoBase@DirectUI@@QAE@XZ
dui70.dll ??0Proxy@DirectUI@@QAE@XZ
dui70.dll ??0Element@DirectUI@@QAE@XZ
dui70.dll ?Initialize@ClassInfoBase@DirectUI@@QAEJPAUHINSTANCE__@@PBG_NPBQBUPropertyInfo@2@I@Z
dui70.dll ?Register@ClassInfoBase@DirectUI@@QAEJXZ
dui70.dll ?ClassExist@ClassInfoBase@DirectUI@@SG_NPAPAUIClassInfo@2@PBQBUPropertyInfo@2@IPAU32@PAUHINSTANCE__@@PBG_N@Z
dui70.dll ??1CritSecLock@DirectUI@@QAE@XZ
dui70.dll ?GetFactoryLock@Element@DirectUI@@SGPAU_RTL_CRITICAL_SECTION@@XZ
dui70.dll ??0CritSecLock@DirectUI@@QAE@PAU_RTL_CRITICAL_SECTION@@@Z
dui70.dll ?Destroy@Element@DirectUI@@QAEJ_N@Z
dui70.dll ?Initialize@Element@DirectUI@@QAEJIPAV12@PAK@Z
dui70.dll ??1Proxy@DirectUI@@UAE@XZ
dui70.dll ?IsRTLReading@Element@DirectUI@@UAE_NXZ
dui70.dll ?IsContentProtected@Element@DirectUI@@UAE_NXZ
dui70.dll ?GetRoot@XProvider@DirectUI@@IAEPAVElement@2@XZ
dui70.dll ?Initialize@XProvider@DirectUI@@QAEJPAVElement@2@PAVIXProviderCP@2@@Z
dui70.dll ?GetContentStringAsDisplayed@Element@DirectUI@@UAEPBGPAPAVValue@2@@Z
dui70.dll ?OnPropertyChanging@Element@DirectUI@@UAE_NPBUPropertyInfo@2@HPAVValue@2@1@Z
dui70.dll ?OnPropertyChanging@Element@DirectUI@@UAE_NPAUPropertyInfo@2@HPAVValue@2@1@Z
dui70.dll ?OnPropertyChanged@Element@DirectUI@@UAEXPBUPropertyInfo@2@HPAVValue@2@1@Z
dui70.dll ?ClickDefaultButton@XProvider@DirectUI@@UAGHXZ
dui70.dll ?OnPropertyChanged@Element@DirectUI@@UAEXPAUPropertyInfo@2@HPAVValue@2@1@Z
dui70.dll ?Create@XResourceProvider@DirectUI@@SGJPAUHINSTANCE__@@PBG11PAPAV12@@Z
dui70.dll ?SetRegisteredDefaultButton@XProvider@DirectUI@@UAGJPAVElement@2@@Z
dui70.dll ?OnGroupChanged@Element@DirectUI@@UAEXH_N@Z
dui70.dll ?SetButtonClassAcceptsEnterKey@XProvider@DirectUI@@UAGJ_N@Z
dui70.dll ?CreateXBaby@XProvider@DirectUI@@UAEJPAVIXElementCP@2@PAUHWND__@@PAVElement@2@PAKPAPAUIXBaby@2@@Z
dui70.dll ?QueryInterface@XProvider@DirectUI@@UAGJABU_GUID@@PAPAX@Z
dui70.dll ??1XProvider@DirectUI@@UAE@XZ
dui70.dll ??0XProvider@DirectUI@@QAE@XZ
dui70.dll ?GetAtomZero@Value@DirectUI@@SGPAV12@XZ
dui70.dll ?GetUnset@Value@DirectUI@@SGPAV12@XZ
dui70.dll ?GetStringNull@Value@DirectUI@@SGPAV12@XZ
dui70.dll ?OnInput@Element@DirectUI@@UAEXPAUInputEvent@2@@Z
dui70.dll ?OnKeyFocusMoved@Element@DirectUI@@UAEXPAV12@0@Z
dui70.dll ?OnMouseFocusMoved@Element@DirectUI@@UAEXPAV12@0@Z
dui70.dll ?OnDestroy@Element@DirectUI@@UAEXXZ
dui70.dll ?Init@NavReference@DirectUI@@QAEXPAVElement@2@PAUtagRECT@@@Z
dui70.dll ?OnEvent@Element@DirectUI@@UAEXPAUEvent@2@@Z
dui70.dll ?Paint@Element@DirectUI@@UAEXPAUHDC__@@PBUtagRECT@@1PAU4@2@Z
dui70.dll ?GetContentSize@Element@DirectUI@@UAE?AUtagSIZE@@HHPAVSurface@2@@Z
dui70.dll ?GetValue@Element@DirectUI@@QAEPAVValue@2@PBUPropertyInfo@2@HPAUUpdateCache@2@@Z
dui70.dll UnInitThread
dui70.dll UnInitProcessPriv
dui70.dll InitThread
dui70.dll InitProcessPriv
dui70.dll ?Add@Element@DirectUI@@UAEJPAPAV12@I@Z
dui70.dll ?Insert@Element@DirectUI@@UAEJPAPAV12@II@Z
dui70.dll ?Remove@Element@DirectUI@@UAEJPAPAV12@I@Z
dui70.dll ?GetAdjacent@Element@DirectUI@@UAEPAV12@PAV12@HPBUNavReference@2@K@Z
dui70.dll ?EnsureVisible@Element@DirectUI@@UAE_NHHHH@Z
dui70.dll ?SetKeyFocus@Element@DirectUI@@UAEXXZ
dui70.dll ?AddBehavior@Element@DirectUI@@UAEJPAUIDuiBehavior@@@Z
dui70.dll ?IsGlobal@ClassInfoBase@DirectUI@@UBE_NXZ
dui70.dll ?Click@Button@DirectUI@@SG?AVUID@@XZ
dui70.dll ?GetClassInfoPtr@Element@DirectUI@@SGPAUIClassInfo@2@XZ
dui70.dll ?Register@Element@DirectUI@@SGJXZ
dui70.dll ?SetActive@Element@DirectUI@@QAEJH@Z
dui70.dll ?EraseBkgnd@HWNDHost@DirectUI@@MAE_NPAUHDC__@@PAJ@Z
dui70.dll ?CreateHWND@Combobox@DirectUI@@UAEPAUHWND__@@PAU3@@Z
dui70.dll ?SetWindowDirection@HWNDHost@DirectUI@@UAEXPAUHWND__@@@Z
dui70.dll ?OnAdjustWindowSize@Combobox@DirectUI@@UAEHHHI@Z
dui70.dll ?OnWindowStyleChanged@HWNDHost@DirectUI@@UAEXIPBUtagSTYLESTRUCT@@@Z
dui70.dll ?OnCtrlThemeChanged@HWNDHost@DirectUI@@UAE_NIIJPAJ@Z
dui70.dll ?RemoveBehavior@Element@DirectUI@@UAEJPAUIDuiBehavior@@@Z
dui70.dll ?MessageCallback@Element@DirectUI@@UAEIPAUtagGMSG@@@Z
dui70.dll ?GetImmersiveFocusRectOffsets@Element@DirectUI@@UAEXPAUtagRECT@@@Z
dui70.dll ?_SelfLayoutDoLayout@Element@DirectUI@@MAEXHH@Z
dui70.dll ?OnSinkThemeChanged@HWNDHost@DirectUI@@UAE_NIIJPAJ@Z
dui70.dll ?_SelfLayoutUpdateDesiredSize@Element@DirectUI@@MAE?AUtagSIZE@@HHPAVSurface@2@@Z
dui70.dll ?OnHosted@Element@DirectUI@@MAEXPAV12@@Z
dui70.dll ?OnUnHosted@Element@DirectUI@@MAEXPAV12@@Z
dui70.dll ?UpdateTooltip@Element@DirectUI@@MAEXPAV12@@Z
dui70.dll ?ActivateTooltip@Element@DirectUI@@MAEXPAV12@K@Z
dui70.dll ?RemoveTooltip@Element@DirectUI@@MAEXPAV12@@Z
dui70.dll ?GetKeyFocused@Element@DirectUI@@UAE_NXZ
dui70.dll ?GetAccessibleImpl@Element@DirectUI@@UAEJPAPAUIAccessible@@@Z
dui70.dll ?DefaultAction@Element@DirectUI@@UAEJXZ
dui70.dll ?GetUIAElementProvider@Element@DirectUI@@UAEJABU_GUID@@PAPAX@Z
dui70.dll ?GetElementProviderImpl@Element@DirectUI@@UAEJPAVInvokeHelper@2@PAPAVElementProvider@2@@Z
dui70.dll ?HandleUiaDestroyListener@Element@DirectUI@@UAEXXZ
dui70.dll ?AddChild@ClassInfoBase@DirectUI@@UAEXXZ
dui70.dll ?OnSysChar@HWNDHost@DirectUI@@UAE_NG@Z
dui70.dll ?RemoveChild@ClassInfoBase@DirectUI@@UAEXXZ
dui70.dll ?HandleUiaPropertyListener@Element@DirectUI@@UAEXPBUPropertyInfo@2@HPAVValue@2@1@Z
dui70.dll ?GetChildren@ClassInfoBase@DirectUI@@UBEHXZ
dui70.dll ?HandleUiaPropertyChangingListener@Element@DirectUI@@UAEXPBUPropertyInfo@2@@Z
dui70.dll ?HandleUiaEventListener@Element@DirectUI@@UAEXPAUEvent@2@@Z
dui70.dll ?OnMessage@HWNDHost@DirectUI@@UAE_NIIJPAJ@Z
dui70.dll ?GetHWND@HWNDHost@DirectUI@@UAEPAUHWND__@@XZ
dui70.dll ?GetAccessibleImpl@HWNDHost@DirectUI@@UAEJPAPAUIAccessible@@@Z
dui70.dll ?GetUiaFocusDelegate@Element@DirectUI@@UAEPAV12@XZ
dui70.dll ??1Element@DirectUI@@UAE@XZ
dui70.dll ?GetClassInfoPtr@Expando@DirectUI@@SGPAUIClassInfo@2@XZ
dui70.dll ?GetExpanded@Expandable@DirectUI@@QAE_NXZ
dui70.dll GetElementDataEntry
dui70.dll ?GetContentString@Element@DirectUI@@QAEPBGPAPAVValue@2@@Z
dui70.dll ?GetKeyFocused@HWNDHost@DirectUI@@UAE_NXZ
dui70.dll ?OnUnHosted@HWNDHost@DirectUI@@MAEXPAVElement@2@@Z
dui70.dll ?OnHosted@Combobox@DirectUI@@UAEXPAVElement@2@@Z
dui70.dll ?QueryInterface@Element@DirectUI@@UAGJABU_GUID@@PAPAX@Z
dui70.dll ?MessageCallback@HWNDHost@DirectUI@@UAEIPAUtagGMSG@@@Z
dui70.dll ?SetKeyFocus@HWNDHost@DirectUI@@UAEXXZ
dui70.dll ?GetContentSize@Combobox@DirectUI@@UAE?AUtagSIZE@@HHPAVSurface@2@@Z
dui70.dll ?Paint@HWNDHost@DirectUI@@UAEXPAUHDC__@@PBUtagRECT@@1PAU4@2@Z
dui70.dll ?OnEvent@HWNDHost@DirectUI@@UAEXPAUEvent@2@@Z
dui70.dll ?OnDestroy@HWNDHost@DirectUI@@UAEXXZ
dui70.dll ?OnInput@Combobox@DirectUI@@UAEXPAUInputEvent@2@@Z
dui70.dll ?SetAccDesc@Element@DirectUI@@QAEJPBG@Z
dui70.dll ?OnPropertyChanged@Combobox@DirectUI@@UAEXPBUPropertyInfo@2@HPAVValue@2@1@Z
dui70.dll ??1Combobox@DirectUI@@UAE@XZ
dui70.dll ?Release@Value@DirectUI@@QAEXXZ
dui70.dll ?SetAccName@Element@DirectUI@@QAEJPBG@Z
dui70.dll StrToID
dui70.dll ?FindDescendent@Element@DirectUI@@QAEPAV12@G@Z
dui70.dll ?AssertPIZeroRef@ClassInfoBase@DirectUI@@UBEXXZ
dui70.dll ?GetChildren@Element@DirectUI@@QAEPAV?$DynamicArray@PAVElement@DirectUI@@$0A@@2@PAPAVValue@2@@Z
dui70.dll ??0Combobox@DirectUI@@QAE@XZ
dui70.dll ??1IDataEngine@DirectUI@@UAE@XZ
dui70.dll ??0IDataEngine@DirectUI@@QAE@XZ
dui70.dll ??0IDataEntry@DirectUI@@QAE@XZ
dui70.dll ?GetClassInfoPtr@Combobox@DirectUI@@SGPAUIClassInfo@2@XZ
dui70.dll ??1IDataEntry@DirectUI@@UAE@XZ
dui70.dll ?Initialize@Combobox@DirectUI@@QAEJIPAVElement@2@PAK@Z
dui70.dll ?SetContentString@Element@DirectUI@@QAEJPBG@Z
dui70.dll ?Register@Combobox@DirectUI@@SGJXZ
dui70.dll ?OnNotify@Combobox@DirectUI@@UAE_NIIJPAJ@Z
dui70.dll ?FireEvent@Element@DirectUI@@QAEXPAUEvent@2@_N1@Z
dui70.dll ?SetBorderStyle@Element@DirectUI@@QAEJH@Z
dui70.dll ?SetVisible@Element@DirectUI@@QAEJ_N@Z
dui70.dll ?SetLayoutPos@Element@DirectUI@@QAEJH@Z
dui70.dll ?SetEnabled@Element@DirectUI@@QAEJ_N@Z
dui70.dll ?SetAbsorbsShortcut@Element@DirectUI@@QAEJ_N@Z
dui70.dll ?GetEncodedContentString@Element@DirectUI@@QAEJPAGI@Z
dui70.dll ?SetEncodedContentString@Element@DirectUI@@QAEJPBG@Z
dui70.dll ?AddListener@Element@DirectUI@@QAEJPAUIElementListener@2@@Z
dui70.dll ?SetDataEngine@Repeater@DirectUI@@QAEXPAUIDataEngine@2@@Z
dui70.dll ?CreateGraphic@Value@DirectUI@@SGPAV12@PAUHICON__@@_N11@Z
dui70.dll ?ForceThemeChange@XProvider@DirectUI@@UAGJIJ@Z
dui70.dll ?RemoveLocalValue@Element@DirectUI@@QAEJP6GPBUPropertyInfo@2@XZ@Z
dui70.dll ?ContentProp@Element@DirectUI@@SGPBUPropertyInfo@2@XZ
dui70.dll ?SetValue@Element@DirectUI@@QAEJP6GPBUPropertyInfo@2@XZHPAVValue@2@@Z
api-ms-win-core-delayload-l1-1-1.dll ResolveDelayLoadedAPI
api-ms-win-core-delayload-l1-1-0.dll DelayLoadFailureHook
