msvcrt.dll __dllonexit
msvcrt.dll _onexit
msvcrt.dll ??1type_info@@UEAA@XZ
msvcrt.dll ?terminate@@YAXXZ
msvcrt.dll _XcptFilter
msvcrt.dll _amsg_exit
msvcrt.dll _unlock
msvcrt.dll _lock
msvcrt.dll memmove
msvcrt.dll memcpy
msvcrt.dll __CxxFrameHandler3
msvcrt.dll _CxxThrowException
msvcrt.dll ?what@exception@@UEBAPEBDXZ
msvcrt.dll ??1exception@@UEAA@XZ
msvcrt.dll ??0exception@@QEAA@AEBV0@@Z
msvcrt.dll ??0exception@@QEAA@AEBQEBDH@Z
msvcrt.dll ??0exception@@QEAA@AEBQEBD@Z
msvcrt.dll __C_specific_handler
msvcrt.dll swscanf
msvcrt.dll wcschr
msvcrt.dll wcsstr
msvcrt.dll _vsnwprintf
msvcrt.dll qsort
msvcrt.dll rand
msvcrt.dll _initterm
msvcrt.dll malloc
msvcrt.dll free
msvcrt.dll wcsncmp
msvcrt.dll _purecall
msvcrt.dll __CxxFrameHandler4
msvcrt.dll sscanf_s
msvcrt.dll atol
msvcrt.dll _vsnprintf
msvcrt.dll iswspace
msvcrt.dll memcmp
api-ms-win-core-handle-l1-1-0.dll CloseHandle
api-ms-win-core-sysinfo-l1-1-0.dll GetSystemInfo
api-ms-win-core-sysinfo-l1-1-0.dll GetTickCount
api-ms-win-core-sysinfo-l1-1-0.dll GetComputerNameExW
api-ms-win-core-sysinfo-l1-1-0.dll GetSystemTimeAsFileTime
api-ms-win-core-processthreads-l1-1-0.dll GetCurrentProcessId
api-ms-win-core-processthreads-l1-1-0.dll TlsSetValue
api-ms-win-core-processthreads-l1-1-0.dll SwitchToThread
api-ms-win-core-processthreads-l1-1-0.dll CreateThread
api-ms-win-core-processthreads-l1-1-0.dll TerminateProcess
api-ms-win-core-processthreads-l1-1-0.dll OpenThreadToken
api-ms-win-core-processthreads-l1-1-0.dll TlsAlloc
api-ms-win-core-processthreads-l1-1-0.dll GetCurrentThreadId
api-ms-win-core-processthreads-l1-1-0.dll GetCurrentProcess
api-ms-win-core-processthreads-l1-1-0.dll GetCurrentThread
api-ms-win-core-processthreads-l1-1-0.dll TlsGetValue
api-ms-win-core-processthreads-l1-1-0.dll TlsFree
api-ms-win-core-localization-l1-2-0.dll LCMapStringW
api-ms-win-core-synch-l1-1-0.dll WaitForSingleObject
api-ms-win-core-synch-l1-1-0.dll EnterCriticalSection
api-ms-win-core-synch-l1-1-0.dll LeaveCriticalSection
api-ms-win-core-synch-l1-1-0.dll InitializeCriticalSection
api-ms-win-core-synch-l1-1-0.dll InitializeCriticalSectionEx
api-ms-win-core-synch-l1-1-0.dll CreateEventW
api-ms-win-core-synch-l1-1-0.dll SetEvent
api-ms-win-core-synch-l1-1-0.dll DeleteCriticalSection
api-ms-win-core-synch-l1-1-0.dll ResetEvent
api-ms-win-core-com-l1-1-0.dll CoWaitForMultipleHandles
api-ms-win-core-com-l1-1-0.dll CoInitializeEx
api-ms-win-core-com-l1-1-0.dll StringFromGUID2
api-ms-win-core-com-l1-1-0.dll CoGetClassObject
api-ms-win-core-com-l1-1-0.dll CoRevertToSelf
api-ms-win-core-com-l1-1-0.dll CoImpersonateClient
api-ms-win-core-com-l1-1-0.dll CoCreateInstance
api-ms-win-core-com-l1-1-0.dll CLSIDFromString
api-ms-win-core-com-l1-1-0.dll CoDisconnectObject
api-ms-win-core-com-l1-1-0.dll CoGetCallContext
api-ms-win-core-com-l1-1-0.dll CoSwitchCallContext
api-ms-win-security-base-l1-1-0.dll FreeSid
api-ms-win-security-base-l1-1-0.dll AllocateAndInitializeSid
api-ms-win-security-base-l1-1-0.dll EqualSid
api-ms-win-security-base-l1-1-0.dll GetSecurityDescriptorLength
api-ms-win-security-base-l1-1-0.dll SetSecurityDescriptorGroup
api-ms-win-security-base-l1-1-0.dll SetSecurityDescriptorOwner
api-ms-win-security-base-l1-1-0.dll IsValidSid
api-ms-win-security-base-l1-1-0.dll GetSecurityDescriptorSacl
api-ms-win-security-base-l1-1-0.dll SetSecurityDescriptorDacl
api-ms-win-security-base-l1-1-0.dll GetSecurityDescriptorDacl
api-ms-win-security-base-l1-1-0.dll ImpersonateSelf
api-ms-win-security-base-l1-1-0.dll InitializeSecurityDescriptor
api-ms-win-security-base-l1-1-0.dll AccessCheck
api-ms-win-security-base-l1-1-0.dll GetTokenInformation
api-ms-win-security-base-l1-1-0.dll GetLengthSid
api-ms-win-security-base-l1-1-0.dll RevertToSelf
api-ms-win-security-base-l1-1-0.dll SetSecurityDescriptorSacl
api-ms-win-security-base-l1-1-0.dll CopySid
api-ms-win-security-base-l1-1-0.dll IsValidSecurityDescriptor
api-ms-win-core-errorhandling-l1-1-0.dll UnhandledExceptionFilter
api-ms-win-core-errorhandling-l1-1-0.dll GetLastError
api-ms-win-core-errorhandling-l1-1-0.dll SetLastError
api-ms-win-core-errorhandling-l1-1-0.dll SetUnhandledExceptionFilter
api-ms-win-core-threadpool-legacy-l1-1-0.dll DeleteTimerQueueTimer
api-ms-win-core-threadpool-legacy-l1-1-0.dll CreateTimerQueueTimer
api-ms-win-core-registry-l1-1-0.dll RegOpenKeyExW
api-ms-win-core-registry-l1-1-0.dll RegCreateKeyExW
api-ms-win-core-registry-l1-1-0.dll RegSetValueExW
api-ms-win-core-registry-l1-1-0.dll RegCloseKey
api-ms-win-core-registry-l1-1-0.dll RegDeleteKeyExW
api-ms-win-core-registry-l1-1-0.dll RegEnumKeyExW
api-ms-win-core-heap-l2-1-0.dll LocalFree
api-ms-win-core-synch-l1-2-0.dll Sleep
api-ms-win-core-debug-l1-1-0.dll DebugBreak
api-ms-win-core-libraryloader-l1-2-0.dll DisableThreadLibraryCalls
api-ms-win-core-libraryloader-l1-2-0.dll GetModuleFileNameW
api-ms-win-core-rtlsupport-l1-1-0.dll RtlVirtualUnwind
api-ms-win-core-rtlsupport-l1-1-0.dll RtlCaptureContext
api-ms-win-core-rtlsupport-l1-1-0.dll RtlLookupFunctionEntry
api-ms-win-core-profile-l1-1-0.dll QueryPerformanceCounter
ntdll.dll EtwGetTraceEnableFlags
ntdll.dll EtwRegisterTraceGuidsW
ntdll.dll EtwUnregisterTraceGuids
ntdll.dll EtwGetTraceEnableLevel
ntdll.dll EtwTraceMessage
ntdll.dll EtwGetTraceLoggerHandle
esscli.dll ?DecorateObject@CTimeKeeper@@QEAA_NPEAU_IWmiObject@@@Z
esscli.dll ?CompareRequestedToProvided@CQueryAnalyser@@SAHAEAVCClassInfoArray@@0@Z
esscli.dll ??1CTimeKeeper@@QEAA@XZ
esscli.dll ??0CTimeKeeper@@QEAA@XZ
esscli.dll ?GetDefiniteInstanceClasses@CQueryAnalyser@@SAJPEAUQL_LEVEL_1_RPN_EXPRESSION@@AEAPEAVCClassInfoArray@@@Z
esscli.dll ?Allocate@CTempMemoryManager@@QEAAPEAX_K@Z
esscli.dll ??0CClassInformation@@QEAA@XZ
esscli.dll ?Free@CTempMemoryManager@@QEAAXPEAX_K@Z
esscli.dll ??0CSortedArray@@QEAA@HH@Z
esscli.dll ??1CClassInformation@@QEAA@XZ
esscli.dll ?IsLimited@CClassInfoArray@@QEAAHXZ
esscli.dll ?GetNumClasses@CClassInfoArray@@QEAAHXZ
esscli.dll ?GetClass@CClassInfoArray@@QEAAPEAUCClassInformation@@H@Z
esscli.dll ??0CTempMemoryManager@@QEAA@XZ
esscli.dll ??1CTempMemoryManager@@QEAA@XZ
esscli.dll ?GetClass@CContextMetaData@@QEAAJPEBGPEAPEAU_IWmiObject@@@Z
esscli.dll ??0CContextMetaData@@QEAA@PEAVCMetaData@@PEAUIWbemContext@@@Z
esscli.dll ??1CContextMetaData@@QEAA@XZ
esscli.dll ??0CEvalTree@@QEAA@XZ
esscli.dll ?CreateFromQuery@CEvalTree@@QEAAJPEAVCContextMetaData@@PEAUQL_LEVEL_1_RPN_EXPRESSION@@JJ@Z
esscli.dll ??1CEvalTree@@QEAA@XZ
esscli.dll ?Evaluate@CEvalTree@@QEAAJPEAUIWbemObjectAccess@@AEAVCSortedArray@@@Z
esscli.dll ?QueryInterface@CMetaData@@UEAAJAEBU_GUID@@PEAPEAX@Z
esscli.dll ?AddRef@CMetaData@@UEAAKXZ
esscli.dll ?Release@CMetaData@@UEAAKXZ
esscli.dll ?SetLimited@CClassInfoArray@@QEAAXH@Z
esscli.dll ??1CSortedArray@@QEAA@XZ
esscli.dll ?Size@CSortedArray@@QEBAHXZ
esscli.dll ?GetClass@CMetaData@@UEAAJPEBGPEAUIWbemContext@@PEAPEAUIWbemClassObject@@@Z
esscli.dll ??1CMetaData@@UEAA@XZ
esscli.dll ??0CMetaData@@QEAA@XZ
esscli.dll ?GetPossibleInstanceClasses@CQueryAnalyser@@SAJPEAUQL_LEVEL_1_RPN_EXPRESSION@@AEAPEAVCClassInfoArray@@@Z
esscli.dll ??0CClassInfoArray@@QEAA@XZ
esscli.dll ??1CClassInfoArray@@QEAA@XZ
esscli.dll IsUserAdministrator
esscli.dll ?GetLimitingQueryForInstanceClass@CQueryAnalyser@@SAJPEAUQL_LEVEL_1_RPN_EXPRESSION@@AEAUCClassInformation@@AEAPEAG@Z
esscli.dll ?AddClass@CClassInfoArray@@QEAA_NPEAUCClassInformation@@@Z
esscli.dll ?Clear@CClassInfoArray@@QEAAXXZ
fastprox.dll ?IsEmpty@CInternalString@@QEAA_NXZ
fastprox.dll ?ComputeNecessarySpace@CCompressedString@@SAHPEBG@Z
fastprox.dll ??0CWbemClassCache@@QEAA@K@Z
fastprox.dll ??1CWbemClassCache@@QEAA@XZ
fastprox.dll ??0CWbemMtgtDeliverEventPacket@@QEAA@PEAEK_N@Z
fastprox.dll ??1CWbemMtgtDeliverEventPacket@@QEAA@XZ
fastprox.dll ?UnmarshalPacket@CWbemMtgtDeliverEventPacket@@QEAAJAEAJAEAPEAPEAUIWbemClassObject@@AEAVCWbemClassCache@@@Z
fastprox.dll ?CreateWStringCopy@CCompressedString@@QEBA?AVWString@@XZ
fastprox.dll ?CreateBSTRCopy@CCompressedString@@QEBAPEAGXZ
fastprox.dll ?GetLength@CCompressedString@@QEBAHXZ
fastprox.dll ?CompareNoCase@CCompressedString@@QEBAHPEBD@Z
fastprox.dll ??4CInternalString@@QEAAHPEAVCCompressedString@@@Z
fastprox.dll ??0CInternalString@@QEAA@XZ
fastprox.dll ??1CInternalString@@QEAA@XZ
fastprox.dll ?SetFromUnicode@CCompressedString@@QEAAXPEBG@Z
fastprox.dll ?CreateLPWSTRCopy@CInternalString@@QEBAPEAGXZ
ncobjapi.dll WmiSetAndCommitObject
ncobjapi.dll WmiIsObjectActive
ncobjapi.dll WmiEventSourceConnect
ncobjapi.dll WmiCreateObjectWithFormat
ncobjapi.dll WmiDestroyObject
ncobjapi.dll WmiEventSourceDisconnect
wbemcomn.dll ??1CFlexQueue@@QEAA@XZ
wbemcomn.dll ?Enqueue@CFlexQueue@@QEAA_NPEAX@Z
wbemcomn.dll ??0CUnk@@QEAA@PEAVCLifeControl@@PEAUIUnknown@@@Z
wbemcomn.dll ??0CFlexArray@@QEAA@HH@Z
wbemcomn.dll ?Initialize@CUnk@@UEAAHXZ
wbemcomn.dll ??1CBuffer@@QEAA@XZ
wbemcomn.dll IsNT
wbemcomn.dll ?CreateInst@CWbemCallSecurity@@SAPEAVIWbemCallSecurity@@XZ
wbemcomn.dll ?Requeue@CFlexQueue@@QEAA_NPEAX@Z
wbemcomn.dll ?Dequeue@CFlexQueue@@QEAAPEAXXZ
wbemcomn.dll ?GetQueueSize@CFlexQueue@@QEBAHXZ
wbemcomn.dll ?GetArrayPtr@CFlexArray@@QEAAPEAPEAXXZ
wbemcomn.dll ?Leave@CCritSec@@QEAAXXZ
wbemcomn.dll ?Enter@CCritSec@@QEAAXXZ
wbemcomn.dll _ThrowMemoryException_
wbemcomn.dll ??0WString@@QEAA@PEAGH@Z
wbemcomn.dll ??0WString@@QEAA@PEBG@Z
wbemcomn.dll ??BWString@@QEBAPEBGXZ
wbemcomn.dll ??1WString@@QEAA@XZ
wbemcomn.dll ??0WString@@QEAA@AEBV0@@Z
wbemcomn.dll ?SetAt@CSmallArrayBlob@@QEAAPEAV1@HPEAXPEAPEAX@Z
wbemcomn.dll ?RemoveAt@CSmallArrayBlob@@QEAAPEAV1@HPEAPEAX@Z
wbemcomn.dll ?InsertAt@CSmallArrayBlob@@QEAAPEAV1@HPEAX@Z
wbemcomn.dll ?CreateBlob@CSmallArrayBlob@@SAPEAV1@H@Z
wbemcomn.dll ?CloneData@CSmallArrayBlob@@QEAAPEAPEAXXZ
wbemcomn.dll ??0WString@@QEAA@XZ
wbemcomn.dll ??0CBasicUnloadInstruction@@QEAA@VCWbemInterval@@@Z
wbemcomn.dll ?staticRead@CBasicUnloadInstruction@@SA?AVCWbemInterval@@PEAUIWbemServices@@PEAUIWbemContext@@PEBG@Z
wbemcomn.dll ?Terminate@CBasicUnloadInstruction@@QEAAXXZ
wbemcomn.dll ?Set@CTimerGenerator@@QEAAJPEAVCTimerInstruction@@VCWbemTime@@@Z
wbemcomn.dll ?ScheduleFreeUnusedLibraries@CTimerGenerator@@QEAAXXZ
wbemcomn.dll ?GetNextFiringTime@CBasicUnloadInstruction@@UEBA?AVCWbemTime@@V2@PEAJ@Z
wbemcomn.dll ?GetFirstFiringTime@CBasicUnloadInstruction@@UEBA?AVCWbemTime@@XZ
wbemcomn.dll ?GetInstructionType@CBasicUnloadInstruction@@UEAAHXZ
wbemcomn.dll ?Release@CBasicUnloadInstruction@@UEAAXXZ
wbemcomn.dll ?AddRef@CBasicUnloadInstruction@@UEAAXXZ
wbemcomn.dll ??1CBasicUnloadInstruction@@UEAA@XZ
wbemcomn.dll ?MarkForRemoval@CTimerInstruction@@UEAAJXZ
wbemcomn.dll ?GetZero@CWbemTime@@SA?AV1@XZ
wbemcomn.dll ??0CWbemInterval@@QEAA@XZ
wbemcomn.dll ??BWString@@QEAAPEAGXZ
wbemcomn.dll ?GetStringPointerByRef@WString@@QEBAAEBQEBGXZ
wbemcomn.dll ?Size@CSmallArrayBlob@@QEBAHXZ
wbemcomn.dll ?GetAt@CSmallArrayBlob@@QEBAPEAXH@Z
wbemcomn.dll ??0CWStringArray@@QEAA@HH@Z
wbemcomn.dll ??1CWStringArray@@QEAA@XZ
wbemcomn.dll ??1QL_LEVEL_1_RPN_EXPRESSION@@QEAA@XZ
wbemcomn.dll ?GetText@QL_LEVEL_1_RPN_EXPRESSION@@QEAAPEAGXZ
wbemcomn.dll ?Add@CWStringArray@@QEAAHPEBG@Z
wbemcomn.dll ?GetNumElements@CPropertyName@@QEBAJXZ
wbemcomn.dll ?GetArrayPtr@CWStringArray@@QEAAPEAPEBGXZ
wbemcomn.dll ?Size@CWStringArray@@QEBAHXZ
wbemcomn.dll ?SetVariant@CVar@@QEAAHPEAUtagVARIANT@@H@Z
wbemcomn.dll ??4CPropertyName@@QEAAXAEBV0@@Z
wbemcomn.dll ?GetTickCount@CWbemTime@@SA?AV1@XZ
wbemcomn.dll ?GetStringAt@CPropertyName@@QEBAPEBGJ@Z
wbemcomn.dll ??0QL_LEVEL_1_RPN_EXPRESSION@@QEAA@XZ
wbemcomn.dll ?SetClassName@QL_LEVEL_1_RPN_EXPRESSION@@UEAAXPEBG@Z
wbemcomn.dll ?AddToken@QL_LEVEL_1_RPN_EXPRESSION@@QEAAXAEBUQL_LEVEL_1_TOKEN@@@Z
wbemcomn.dll ??0CVarVector@@QEAA@XZ
wbemcomn.dll ??1CVarVector@@QEAA@XZ
wbemcomn.dll ?Add@CVarVector@@QEAAHPEAVCVar@@@Z
wbemcomn.dll ??1CVar@@QEAA@XZ
wbemcomn.dll ?Remove@CTimerGenerator@@QEAAJPEAVCInstructionTest@@@Z
wbemcomn.dll ?CompareTo@CVarVector@@QEAAHAEAV1@H@Z
wbemcomn.dll ??HCWbemTime@@QEBA?AV0@AEBVCWbemInterval@@@Z
wbemcomn.dll ?RemoveAt@CFlexArray@@QEAAHH@Z
wbemcomn.dll ??1CPropertyName@@QEAA@XZ
wbemcomn.dll ??0CPropertyName@@QEAA@XZ
wbemcomn.dll ??0CInstructionTest@@QEAA@XZ
wbemcomn.dll ??1CTimerInstruction@@UEAA@XZ
wbemcomn.dll ??0CTimerInstruction@@QEAA@XZ
wbemcomn.dll ?GetInfinity@CWbemTime@@SA?AV1@XZ
wbemcomn.dll ?SetMilliseconds@CWbemInterval@@QEAAXK@Z
wbemcomn.dll ??0CVar@@QEAA@XZ
wbemcomn.dll ?MakeInternalCopyOfThread@CWbemCallSecurity@@SAPEAV1@XZ
wbemcomn.dll ??MCWbemTime@@QEBAHAEBV0@@Z
wbemcomn.dll ??0CWbemTime@@QEAA@AEBV0@@Z
wbemcomn.dll ??DCWbemInterval@@QEBA?AV0@N@Z
wbemcomn.dll ?GetMilliseconds@CWbemInterval@@QEBAKXZ
wbemcomn.dll ?Empty@CWStringArray@@QEAAXXZ
wbemcomn.dll ??0QL1_Parser@@QEAA@PEAVCGenLexSource@@@Z
wbemcomn.dll ??1QL1_Parser@@UEAA@XZ
wbemcomn.dll ?Parse@QL1_Parser@@QEAAHPEAPEAUQL_LEVEL_1_RPN_EXPRESSION@@@Z
wbemcomn.dll ??0CEventLog@@QEAA@PEBGAEBU_GUID@@K@Z
wbemcomn.dll ??1CEventLog@@QEAA@XZ
wbemcomn.dll ?Open@CEventLog@@QEAAHXZ
wbemcomn.dll ?Report@CEventLog@@QEAAHGAEBU_EVENT_DESCRIPTOR@@VCInsertionString@@111111111@Z
wbemcomn.dll ?PublishEssStarted@CPublishWMIOperationEvent@@SAJPEAG00K0K0@Z
wbemcomn.dll ??1CInsertionString@@QEAA@XZ
wbemcomn.dll ??0CInsertionString@@QEAA@PEBG@Z
wbemcomn.dll ??0CInsertionString@@QEAA@XZ
wbemcomn.dll ??GCWbemTime@@QEBA?AVCWbemInterval@@AEBV0@@Z
wbemcomn.dll ??4CWbemTime@@QEAAXAEBV0@@Z
wbemcomn.dll ??OCWbemInterval@@QEAAHV0@@Z
wbemcomn.dll ??ACWStringArray@@QEBAPEAGH@Z
wbemcomn.dll ??4WString@@QEAAAEAV0@PEBG@Z
wbemcomn.dll ?GetCallerIdentity@CWbemCallSecurity@@QEAAPEBGXZ
wbemcomn.dll ??YWString@@QEAAAEAV0@AEBV0@@Z
wbemcomn.dll ??YWString@@QEAAAEAV0@PEBG@Z
wbemcomn.dll ?PublishESSDrop@CPublishWMIOperationEvent@@SAJPEAG0@Z
wbemcomn.dll ?CalcSitOutPenalty@CExecQueue@@MEAAKJ@Z
wbemcomn.dll ??1CExecQueue@@QEAA@XZ
wbemcomn.dll ??0CExecRequest@@QEAA@XZ
wbemcomn.dll ??1CExecRequest@@UEAA@XZ
wbemcomn.dll ??0CExecQueue@@QEAA@XZ
wbemcomn.dll ?SetThreadLimits@CExecQueue@@QEAAXJJJ@Z
wbemcomn.dll ?InitializeThread@CExecQueue@@MEAAJXZ
wbemcomn.dll ?UninitializeThread@CExecQueue@@MEAAXXZ
wbemcomn.dll ?ThreadMain@CExecQueue@@MEAAXPEAVCThreadRecord@1@@Z
wbemcomn.dll ??0CCritSec@@QEAA@XZ
wbemcomn.dll ?LogError@CExecQueue@@MEAAXPEAVCExecRequest@@H@Z
wbemcomn.dll ?CreateNewThread@CExecQueue@@MEAAHXZ
wbemcomn.dll ?ShutdownThread@CExecQueue@@MEAAXPEAVCThreadRecord@1@@Z
wbemcomn.dll ?IsSuitableThread@CExecQueue@@MEAAHPEAVCThreadRecord@1@PEAVCExecRequest@@@Z
wbemcomn.dll ?DoesNeedNewThread@CExecQueue@@MEAAHPEAVCExecRequest@@@Z
wbemcomn.dll ?IsIdleTooLong@CExecQueue@@MEAAHPEAVCThreadRecord@1@K@Z
wbemcomn.dll ?GetIdleTimeout@CExecQueue@@MEAAKPEAVCThreadRecord@1@@Z
wbemcomn.dll ?IsAppropriateThread@CExecQueue@@MEAAHXZ
wbemcomn.dll ?WaitForSingleObjectWhileBusy@CExecQueue@@MEAAKPEAXKPEAVCThreadRecord@1@@Z
wbemcomn.dll ?UnblockedWaitForSingleObject@CExecQueue@@MEAAKPEAXKPEAVCThreadRecord@1@@Z
wbemcomn.dll ?Execute@CExecQueue@@MEAAHPEAVCThreadRecord@1@@Z
wbemcomn.dll ?SearchForSuitableRequest@CExecQueue@@MEAAPEAVCExecRequest@@PEAVCThreadRecord@1@@Z
wbemcomn.dll ?SitOutPenalty@CExecQueue@@MEAAXJ@Z
wbemcomn.dll ?DumpError@CExecRequest@@UEAAXXZ
wbemcomn.dll ?GetType@CExecQueue@@UEAAPEBGXZ
wbemcomn.dll ?AdjustPriorityForPassing@CExecQueue@@MEAAXPEAVCExecRequest@@@Z
wbemcomn.dll ?AdjustInitialPriority@CExecQueue@@MEAAXPEAVCExecRequest@@@Z
wbemcomn.dll ?IsSTA@CExecQueue@@MEAAHXZ
wbemcomn.dll ?PublishEssToConsumer@CPublishWMIOperationEvent@@SAJPEAG0@Z
wbemcomn.dll ??YWString@@QEAAAEAV0@G@Z
wbemcomn.dll ??4WString@@QEAAAEAV0@AEBV0@@Z
wbemcomn.dll ?UnbindPtr@WString@@QEAAPEAGXZ
wbemcomn.dll ?BindPtr@WString@@QEAAXPEAG@Z
wbemcomn.dll WbemSetDynamicCloaking
wbemcomn.dll ?EscapeQuotes@WString@@QEBA?AV1@XZ
wbemcomn.dll ??0CWbemTime@@QEAA@XZ
wbemcomn.dll ?Length@WString@@QEBAHXZ
wbemcomn.dll ??0CStaticCritSec@@QEAA@XZ
wbemcomn.dll ??1CStaticCritSec@@QEAA@XZ
wbemcomn.dll ?SetDMTF@CWbemTime@@QEAAHPEBG@Z
wbemcomn.dll ??0CTimerGenerator@@QEAA@XZ
wbemcomn.dll ??1CTimerGenerator@@UEAA@XZ
wbemcomn.dll ?Shutdown@CTimerGenerator@@UEAAJXZ
wbemcomn.dll ?Dequeue@CInstructionQueue@@QEAAJAEAPEAVCTimerInstruction@@AEAVCWbemTime@@@Z
wbemcomn.dll ?NotifyStoppingThread@CTimerGenerator@@MEAAXXZ
wbemcomn.dll ?NotifyStartingThread@CTimerGenerator@@MEAAXXZ
wbemcomn.dll ?IsZero@CWbemTime@@QEBAHXZ
wbemcomn.dll ?Set100nss@CWbemTime@@QEAAX_J@Z
wbemcomn.dll ?Get100nss@CWbemTime@@QEBA_JXZ
wbemcomn.dll ?IsZero@CWbemInterval@@QEBAHXZ
wbemcomn.dll ?SetFailure@CStaticCritSec@@SAXXZ
wbemcomn.dll ?Enter@CWbemCriticalSection@@QEAAHK@Z
wbemcomn.dll ?Leave@CWbemCriticalSection@@QEAAXXZ
wbemcomn.dll ??4CNtSid@@QEAAAEAV0@AEBV0@@Z
wbemcomn.dll ??0CNtSid@@QEAA@PEAX@Z
wbemcomn.dll ??1CNtSid@@QEAA@XZ
wbemcomn.dll ??0CWbemCriticalSection@@QEAA@XZ
wbemcomn.dll ??1CWbemCriticalSection@@QEAA@XZ
wbemcomn.dll LoggingLevelEnabled
wbemcomn.dll RetrieveSidFromCall
wbemcomn.dll ?GetTextSid@CNtSid@@QEAAJPEAPEAG@Z
wbemcomn.dll ?GetSize@CNtSid@@QEAAKXZ
wbemcomn.dll ?IsUserInGroup@CNtSecurity@@SAHPEAXAEAVCNtSid@@PEAH@Z
wbemcomn.dll ?IsEventEnabled@CPublishWMIOperationEvent@@SAJAEBU_EVENT_DESCRIPTOR@@@Z
wbemcomn.dll ??0WString2@@QEAA@PEBG@Z
wbemcomn.dll ??1WString2@@QEAA@XZ
wbemcomn.dll ??YWString2@@QEAAAEAV0@PEBG@Z
wbemcomn.dll ?PublishEssToConsumerBinding@CPublishWMIOperationEvent@@SAJPEAG000@Z
wbemcomn.dll ??0CInsertionString@@QEAA@VCHex@@@Z
wbemcomn.dll ??0WString2@@QEAA@XZ
wbemcomn.dll ??4WString2@@QEAAAEAV0@PEBG@Z
wbemcomn.dll ??0CHex@@QEAA@J@Z
wbemcomn.dll ?IsValid@CNtSid@@QEAAHXZ
wbemcomn.dll ?GetPtr@CNtSid@@QEAAPEAXXZ
wbemcomn.dll ??0CNtSid@@QEAA@XZ
wbemcomn.dll ??BWString2@@QEAAPEAGXZ
wbemcomn.dll ??1CNtAce@@UEAA@XZ
wbemcomn.dll ?Reread@CRegistryMinMaxLimitControl@@QEAAJXZ
wbemcomn.dll ?SetPersistentCfgValue@CPersistentConfig@@QEAAHKK@Z
wbemcomn.dll ?Close@CEventLog@@QEAAHXZ
wbemcomn.dll ?Shutdown@CExecQueue@@QEAAXXZ
wbemcomn.dll ??0Registry@@QEAA@PEBGK@Z
wbemcomn.dll ??1Registry@@QEAA@XZ
wbemcomn.dll ?SetBinary@Registry@@QEAAHPEBGPEAEK@Z
wbemcomn.dll ??0CNtSecurityDescriptor@@QEAA@XZ
wbemcomn.dll ??1CNtSecurityDescriptor@@QEAA@XZ
wbemcomn.dll ??0CNtAce@@QEAA@KKKAEAVCNtSid@@@Z
wbemcomn.dll ??0CNtAcl@@QEAA@K@Z
wbemcomn.dll ??1CNtAcl@@QEAA@XZ
wbemcomn.dll ?AddAce@CNtAcl@@QEAAHPEAVCNtAce@@@Z
wbemcomn.dll ?SetDacl@CNtSecurityDescriptor@@QEAAHPEAVCNtAcl@@@Z
wbemcomn.dll ??1CRegistryMinMaxLimitControl@@UEAA@XZ
wbemcomn.dll ??0CRegistryMinMaxLimitControl@@QEAA@HPEBG0000@Z
wbemcomn.dll ?SetSleepAtMax@CMinMaxLimitControl@@QEAAXK@Z
wbemcomn.dll ?SetMax@CMinMaxLimitControl@@QEAAXK@Z
wbemcomn.dll ?SetMin@CMinMaxLimitControl@@QEAAXK@Z
wbemcomn.dll ?GetPtr@CNtSecurityDescriptor@@QEAAPEAXXZ
wbemcomn.dll ?GetUnknown@CUnk@@QEAAPEAUIUnknown@@XZ
wbemcomn.dll ?InternalAddRef@CUnkInternal@@QEAAKXZ
wbemcomn.dll ?Release@CUnkInternal@@UEAAKXZ
wbemcomn.dll ?AddRef@CUnkInternal@@UEAAKXZ
wbemcomn.dll ?QueryInterface@CUnkInternal@@UEAAJAEBU_GUID@@PEAPEAX@Z
wbemcomn.dll ?GetUnknown@CUnkInternal@@QEAAPEAUIUnknown@@XZ
wbemcomn.dll ??1CUnkInternal@@UEAA@XZ
wbemcomn.dll ??0CUnkInternal@@QEAA@PEAVCLifeControl@@@Z
wbemcomn.dll ?GetInnerUnknown@CUnk@@QEAAPEAUIUnknown@@XZ
wbemcomn.dll ?anyFailure@CStaticCritSec@@SAHXZ
wbemcomn.dll ?InternalRelease@CUnkInternal@@QEAAKXZ
wbemcomn.dll ??1CCritSec@@QEAA@XZ
wbemcomn.dll ?Release@CUnk@@UEAAKXZ
wbemcomn.dll ?AddRef@CUnk@@UEAAKXZ
wbemcomn.dll ?QueryInterface@CUnk@@UEAAJAEBU_GUID@@PEAPEAX@Z
wbemcomn.dll ?SetAt@CFlexArray@@QEAAXHPEAX@Z
wbemcomn.dll GetMemLogObject
wbemcomn.dll ?Write@CMemoryLog@@QEAAXJ@Z
wbemcomn.dll ?Empty@CFlexArray@@QEAAXXZ
wbemcomn.dll ?GetAt@CFlexArray@@QEBAPEAXH@Z
wbemcomn.dll ??1CFlexArray@@QEAA@XZ
wbemcomn.dll ??1CUnk@@UEAA@XZ
wbemcomn.dll ?WbemMemFree@CWin32DefaultArena@@SAHPEAX@Z
wbemcomn.dll ?WbemMemAlloc@CWin32DefaultArena@@SAPEAX_K@Z
wbemcomn.dll ??0CFlexQueue@@QEAA@H@Z
wbemcomn.dll ??0CInCritSec@@QEAA@PEAU_RTL_CRITICAL_SECTION@@@Z
wbemcomn.dll ??1CInCritSec@@QEAA@XZ
wbemcomn.dll ?Add@CFlexArray@@QEAAHPEAX@Z
wbemcomn.dll ?Size@CFlexArray@@QEBAHXZ
wbemcomn.dll ?Enqueue@CExecQueue@@UEAAJPEAVCExecRequest@@PEAPEAX@Z
wbemcomn.dll ?OnInitialize@CUnk@@UEAAHXZ
wbemcomn.dll ??0CBuffer@@QEAA@PEAEKH@Z
api-ms-win-core-heap-l1-1-0.dll HeapReAlloc
api-ms-win-core-heap-l1-1-0.dll GetProcessHeap
api-ms-win-core-heap-l1-1-0.dll HeapAlloc
api-ms-win-core-heap-l1-1-0.dll HeapFree
api-ms-win-core-delayload-l1-1-1.dll ResolveDelayLoadedAPI
api-ms-win-core-delayload-l1-1-0.dll DelayLoadFailureHook
