msvcrt.dll ??1type_info@@UEAA@XZ
msvcrt.dll _onexit
msvcrt.dll __dllonexit
msvcrt.dll _unlock
msvcrt.dll _lock
msvcrt.dll ?terminate@@YAXXZ
msvcrt.dll _initterm
msvcrt.dll _amsg_exit
msvcrt.dll _XcptFilter
msvcrt.dll wcscpy_s
msvcrt.dll _callnewh
msvcrt.dll wcstol
msvcrt.dll swprintf_s
msvcrt.dll wcsncpy_s
msvcrt.dll __C_specific_handler
msvcrt.dll realloc
msvcrt.dll iswdigit
msvcrt.dll memmove
msvcrt.dll _errno
msvcrt.dll _CxxThrowException
msvcrt.dll __RTDynamicCast
msvcrt.dll memcmp
msvcrt.dll _vsnwprintf
msvcrt.dll wcsncmp
msvcrt.dll qsort
msvcrt.dll wcscspn
msvcrt.dll malloc
msvcrt.dll wcsrchr
msvcrt.dll wcscoll
msvcrt.dll free
msvcrt.dll memcpy
msvcrt.dll __CxxFrameHandler3
msvcrt.dll _wcslwr_s
msvcrt.dll wcsspn
msvcrt.dll _wcsupr_s
msvcrt.dll wcsstr
msvcrt.dll wcschr
msvcrt.dll _vscwprintf
msvcrt.dll wcspbrk
msvcrt.dll vswprintf_s
msvcrt.dll iswspace
msvcrt.dll _wcsrev
msvcrt.dll _wcsicmp
msvcrt.dll calloc
msvcrt.dll _wcsicoll
msvcrt.dll memmove_s
msvcrt.dll _purecall
msvcrt.dll memcpy_s
msvcrt.dll _wcsnicmp
msvcrt.dll memset
spprgrss.dll GetProgressObject
spwizeng.dll ?MessageBoxFromMessage@@YAHPEAUHINSTANCE__@@PEAUHWND__@@PEBGII@Z
spwizeng.dll ?MessageBoxFromMessage@@YAHPEAUHINSTANCE__@@PEAUHWND__@@III@Z
spwizeng.dll ?Stack@WizardUI@@QEAAPEAVNavigationStack@@XZ
spwizeng.dll ?GetWizUI@WizardUI@@SAPEAV1@XZ
spwizeng.dll ?SetUserSelectedUILanguage@WizardUI@@QEAAJPEAG@Z
spwizeng.dll ??0WizardRoot@@QEAA@XZ
spwizeng.dll ??1WizardRoot@@UEAA@XZ
spwizeng.dll ?GetMaxPageIndex@PageContainer@@QEAAHXZ
spwizeng.dll ??0ProtoPageList@@QEAA@PEAVWizardDesciption@@KKKHPEAVICreateProgressWnd@@HPEAUtagSIZE@@PEAVICreateNavbarWnd@@UProtoPageDimensions@@KKH@Z
spwizeng.dll ?CanPageBeActivated@LanguageSelectionDialogBase@@UEAAHW4Direction@@PEAH@Z
spwizeng.dll ?OnResourceChanged@LanguageSelectionDialogBase@@UEAAXAEAH@Z
spwizeng.dll ??0LanguageSelectionDialogBase@@QEAA@XZ
spwizeng.dll ??1LanguageSelectionDialogBase@@QEAA@XZ
spwizeng.dll ?bLangUiShown@LanguageSelectionDialogBase@@0HA
spwizeng.dll ??0LanguageNeutralSelectionDialogBase@@QEAA@XZ
spwizeng.dll ??1LanguageNeutralSelectionDialogBase@@QEAA@XZ
spwizeng.dll ?CanPageBeActivated@LanguageNeutralSelectionDialogBase@@UEAAHW4Direction@@PEAH@Z
spwizeng.dll ??0CRichEditControl@@QEAA@XZ
spwizeng.dll ?Initialize@CRichEditControl@@QEAAXPEAUHWND__@@PEBG@Z
spwizeng.dll ?SetText@CRichEditControl@@QEAAXPEBG@Z
spwizeng.dll ?SetTextColor@CRichEditControl@@QEAAXK@Z
spwizeng.dll ??0Wizard_PageDesciption@@QEAA@KPEBG0KP6APEAVWizardRoot@@PEAVWizardPage@@@ZK@Z
spwizeng.dll ??1Wizard_PageDesciption@@UEAA@XZ
spwizeng.dll ?CanPageBeActivatedWrapper@WizardHandler@@QEAAHW4Direction@@PEAH@Z
spwizeng.dll ?Pop@NavigationStack@@QEAAPEAVWizardNode@@XZ
spwizeng.dll ?CStringGetWindowText@@YA?AV?$CStringT@GV?$StrTraitATL@GV?$ChTraitsCRT@G@ATL@@@ATL@@@ATL@@PEAUHWND__@@@Z
spwizeng.dll ??0ProtoPageDimensions@@QEAA@XZ
spwizeng.dll ?HwndProgress@WizardUI@@SAPEAUHWND__@@XZ
spwizeng.dll ?SetTransparentColor@CAnimationControl@@QEAAXK@Z
spwizeng.dll ?TextFitsInWindow@@YAJPEAUHWND__@@V?$CStringT@GV?$StrTraitATL@GV?$ChTraitsCRT@G@ATL@@@ATL@@@ATL@@@Z
spwizeng.dll ?IsHighContrast@CHighContrast@@QEAAHXZ
spwizeng.dll GetHwndLogFont
spwizeng.dll SetControlFonts
spwizeng.dll CreateModifiedFont
spwizeng.dll ?EnableInput@WizardUI@@QEAAXH@Z
spwizeng.dll ?SetAllowMirror@CAnimationControl@@QEAAXH@Z
spwizeng.dll SetDlgItemTextFromResID
spwizeng.dll ??0WizardDialogPost@@QEAA@XZ
spwizeng.dll ?GetResourceModule@CResourceModuleFactory@@QEAAPEAVCResourceModule@@XZ
spwizeng.dll ?ResetLanguage@CResourceModuleFactory@@QEAAHXZ
spwizeng.dll ??0WizardUI@@QEAA@XZ
spwizeng.dll ??1WizardUI@@QEAA@XZ
spwizeng.dll ?Initialize@WizardUI@@QEAAHPEAVCResourceModule@@0@Z
spwizeng.dll MySetWindowText
spwizeng.dll ?WaitForUIEnd@WizardUI@@QEAAHXZ
spwizeng.dll ?GetUiMutex@WizardUI@@QEAAPEAXXZ
spwizeng.dll ?GetCurrentPage@WizardUI@@QEAAPEAVWizardPage@@XZ
spwizeng.dll ?GetWizardPageWithIndex@PageContainer@@QEAAPEAVWizardPage@@H@Z
spwizeng.dll ?GetCurrentPageIndex@PageContainer@@QEAAHXZ
spwizeng.dll ?RegisterObserver@CResourceModule@@QEAAHPEAUIResourceModuleEvent@@@Z
spwizeng.dll ?UnregisterObserver@CResourceModule@@QEAAHPEAUIResourceModuleEvent@@@Z
spwizeng.dll ?ChangeUiLanguage@CResourceModule@@SAHPEBG@Z
spwizeng.dll ?FreeInstance@Win32Navigator@@SAXXZ
spwizeng.dll ??1WizardSummary@@UEAA@XZ
spwizeng.dll ?FreeInstance@Navigator@@SAXXZ
spwizeng.dll ?FreeInstance@CHighContrast@@SAXXZ
spwizeng.dll ?FreeInstance@CCursor@@SAXXZ
spwizeng.dll ?IsDPIScalingRequired@@YAHXZ
spwizeng.dll ?SetActive@WizardHandler@@UEAAXAEAH@Z
spwizeng.dll GetHwndFont
spwizeng.dll ??0CCtlText@@QEAA@XZ
spwizeng.dll ??1CCtlText@@UEAA@XZ
spwizeng.dll ?Init@CCtlText@@QEAAHPEAUHWND__@@I@Z
spwizeng.dll ?SetText@CCtlText@@QEAAXPEAUHWND__@@PEAUHFONT__@@KPEBG@Z
spwizeng.dll SPWE_CloseCurrentMessageBox
spwizeng.dll ??0WizardSummary@@QEAA@IPEAPEAVWiz_Node@@@Z
spwizeng.dll ??1WizardVariation@@UEAA@XZ
spwizeng.dll ??0WizardVariation@@QEAA@IPEAPEAVWiz_Node@@AEBV?$CSimpleMap@HHV?$CSimpleMapEqualHelper@HH@ATL@@@ATL@@PEBG@Z
spwizeng.dll ??1WizardBranch@@UEAA@XZ
spwizeng.dll PaintWindowRegion
spwizeng.dll ??0WizardBranch@@QEAA@IPEAPEAVWiz_Node@@@Z
spwizeng.dll ??0WizardDialogPre@@QEAA@XZ
spwizeng.dll ?ProcessWindowMessage@LanguageNeutralSelectionDialogBase@@UEAAHPEAUHWND__@@I_K_JAEA_JK@Z
spwizeng.dll ?ProcessWindowMessage@LanguageSelectionDialogBase@@UEAAHPEAUHWND__@@I_K_JAEA_JK@Z
spwizeng.dll SPWE_MessageBox
spwizeng.dll ??4WizardHandler@@QEAAAEAV0@$$QEAV0@@Z
spwizeng.dll ??4WizardHandler@@QEAAAEAV0@AEBV0@@Z
spwizeng.dll ??0WizardHandler@@QEAA@$$QEAV0@@Z
spwizeng.dll ??0WizardHandler@@QEAA@AEBV0@@Z
spwizeng.dll ??4IResourceModuleEvent@@QEAAAEAU0@$$QEAU0@@Z
spwizeng.dll ??4IResourceModuleEvent@@QEAAAEAU0@AEBU0@@Z
spwizeng.dll ??0IResourceModuleEvent@@QEAA@$$QEAU0@@Z
spwizeng.dll ??0IResourceModuleEvent@@QEAA@AEBU0@@Z
spwizeng.dll ??0IResourceModuleEvent@@QEAA@XZ
spwizeng.dll ??4ICreateProgressWnd@@QEAAAEAV0@AEBV0@@Z
spwizeng.dll ??0ICreateProgressWnd@@QEAA@AEBV0@@Z
spwizeng.dll ?FirstVisit@WizardHandler@@EEAAXXZ
spwizeng.dll ?KillActive@WizardHandler@@UEAAXAEAH@Z
spwizeng.dll ?OnResourceChanged@WizardHandler@@UEAAXAEAH@Z
spwizeng.dll ?NotifyWizFinish@WizardHandler@@UEAAHAEAH@Z
spwizeng.dll ?NotifyWizBack@WizardHandler@@UEAAHAEAH@Z
spwizeng.dll ?NotifyWizNext@WizardHandler@@UEAAHAEAH@Z
spwizeng.dll ?InitPage@WizardHandler@@UEAAXXZ
spwizeng.dll ??0WizardHandler@@QEAA@XZ
spwizeng.dll ??1ICreateProgressWnd@@UEAA@XZ
spwizeng.dll ??1CAnimationControl@@UEAA@XZ
spwizeng.dll ?GetCurrentPageHwnd@PageContainer@@QEAAPEAUHWND__@@XZ
spwizeng.dll ?MyPropSheet_SetWizButtons@WizardRoot@@QEAAXK@Z
spwizeng.dll ?GetResourceInstance@CResourceModuleFactory@@QEAAPEAUHINSTANCE__@@XZ
spwizeng.dll ?CreateEx@CCustomButtonEx@@SAPEAV1@PEAUHINSTANCE__@@0PEAUHWND__@@IQEAU_Button_Data@@PEAUHDC__@@1@Z
spwizeng.dll MyDynamicSetWindowText
spwizeng.dll ??1WizardDesciption@@UEAA@XZ
spwizeng.dll ?SetUserSelectedKeyboardType@WizardUI@@QEAAJPEAG@Z
spwizeng.dll ?SetUserSelectedLocale@WizardUI@@QEAAJPEAG@Z
spwizeng.dll ?EndUI@WizardUI@@QEAAHXZ
spwizeng.dll ?Uninit@CResourceModuleFactory@@QEAAXXZ
spwizeng.dll ?Init@CResourceModuleFactory@@QEAAXPEAUHINSTANCE__@@PEBG@Z
spwizeng.dll ??0WizardDesciption@@QEAA@IPEAPEAVWiz_Node@@@Z
spwizeng.dll ?ShowReadMoreWnd@@YAHPEAUHINSTANCE__@@PEAUHWND__@@IPEBGI@Z
spwizeng.dll ?ShowReadMoreWnd@@YAXPEAUHINSTANCE__@@PEAUHWND__@@III@Z
spwizeng.dll ?StartUI@WizardUI@@QEAAHPEBVProtoPageList@@@Z
spwizeng.dll ??4SimpleDialogBase@@QEAAAEAV0@$$QEAV0@@Z
spwizeng.dll ??4SimpleDialogBase@@QEAAAEAV0@AEBV0@@Z
spwizeng.dll ??0SimpleDialogBase@@QEAA@$$QEAV0@@Z
spwizeng.dll ??0SimpleDialogBase@@QEAA@AEBV0@@Z
spwizeng.dll ??0SimpleDialogBase@@QEAA@XZ
spwizeng.dll ??4CAnimationControl@@QEAAAEAV0@AEBV0@@Z
spwizeng.dll ??0CAnimationControl@@QEAA@AEBV0@@Z
spwizeng.dll ?ProcessWindowMessage@SimpleDialogBase@@UEAAHPEAUHWND__@@I_K_JAEA_JK@Z
spwizeng.dll ?CanPageBeActivated@WizardHandler@@EEAAHW4Direction@@PEAH@Z
spwizeng.dll ?NotifyWizCancel@WizardHandler@@UEAAHAEAH@Z
spwizeng.dll FormatVarMessage
spwizeng.dll ?ClearCursorWait@CCursor@@QEAAXXZ
spwizeng.dll ?SetCursorWait@CCursor@@QEAAXXZ
spwizeng.dll ?GetInstance@CCursor@@SAPEAV1@XZ
spwizeng.dll ?GetBkBrush@CHighContrast@@QEAAPEAUHBRUSH__@@PEAU2@@Z
spwizeng.dll ?GetBkColor@CHighContrast@@QEAAKK@Z
spwizeng.dll ?GetTextColor@CHighContrast@@QEAAKK@Z
spwizeng.dll ?GetInstance@CHighContrast@@SAPEAV1@XZ
spwizeng.dll ?Init@CAnimationControl@@QEAAHPEAUHWND__@@IPEAUHINSTANCE__@@IKHH@Z
spwizeng.dll ??0CAnimationControl@@QEAA@XZ
spwizeng.dll ?Destroy@CCustomButtonEx@@SAXPEAV1@@Z
spwizeng.dll ?getInstance@Win32Navigator@@SAPEAV1@XZ
spwizeng.dll ?MyPropSheet_GetWizButtons@WizardRoot@@QEAAKXZ
spwizeng.dll ?SetTextStyle@WizardRoot@@QEAAHHMHHH@Z
spwizeng.dll ?GetPageName@WizardRoot@@QEAA?AV?$CStringT@GV?$StrTraitATL@GV?$ChTraitsCRT@G@ATL@@@ATL@@@ATL@@XZ
spwizeng.dll ?DestroyStandardButton@WizardRoot@@QEAAXPEAVCCustomButtonEx@@@Z
spwizeng.dll ?InitStandardButton@WizardRoot@@QEAAPEAVCCustomButtonEx@@I@Z
spwizeng.dll ?GetResourceInstanceLoc@WizardPage@@QEAAPEAUHINSTANCE__@@XZ
spwizeng.dll ?GetResourceInstanceNonLoc@WizardPage@@QEAAPEAUHINSTANCE__@@XZ
spwizeng.dll CenterRelativeToWindow
uxlib.dll ?PublishLanguageGatherEvent@CInternationalUtils@@SAJPEAX@Z
uxlib.dll ??1CInternationalUtils@@QEAA@XZ
uxlib.dll ??0CInternationalUtils@@QEAA@XZ
uxlib.dll ?GetInstance@CLoadDriver@@SAPEAVILoadDriver@@XZ
uxlib.dll ?GetInstance@CImageData@@SAPEAVIImageData@@XZ
uxlib.dll ?CloseOSK@COSK@@QEAAHPEAX@Z
uxlib.dll ?ShowOSK@COSK@@QEAAPEAXHPEAG0@Z
uxlib.dll ??0COSK@@QEAA@XZ
uxlib.dll ??0CProductKeyModule@@QEAA@XZ
uxlib.dll ?GetPidStr@PIDUtilStringView@@QEAAPEBGXZ
uxlib.dll ?ReplaceString@PIDUtilStringView@@QEAAHHHPEBG@Z
uxlib.dll ?RemoveString@PIDUtilStringView@@QEAAHHHH@Z
uxlib.dll ??1PIDUtilStringView@@UEAA@XZ
uxlib.dll ??0PIDUtilStringView@@QEAA@XZ
uxlib.dll ?GetLanguage@CInternationalUtils@@SA?AV?$CStringT@GV?$StrTraitATL@GV?$ChTraitsCRT@G@ATL@@@ATL@@@ATL@@XZ
uxlib.dll ?GetShowLangNeutral@CInternationalUtils@@SAHXZ
uxlib.dll ?SetHideOOBELang@CInternationalUtils@@SAHV?$CStringT@GV?$StrTraitATL@GV?$ChTraitsCRT@G@ATL@@@ATL@@@ATL@@@Z
uxlib.dll ?SetTargetLayeredDriver@CInternationalUtils@@SAHV?$CStringT@GV?$StrTraitATL@GV?$ChTraitsCRT@G@ATL@@@ATL@@@ATL@@@Z
uxlib.dll ?SetTargetKeyboard@CInternationalUtils@@SAHV?$CStringT@GV?$StrTraitATL@GV?$ChTraitsCRT@G@ATL@@@ATL@@@ATL@@@Z
uxlib.dll ?SetTargetLocale@CInternationalUtils@@SAHV?$CStringT@GV?$StrTraitATL@GV?$ChTraitsCRT@G@ATL@@@ATL@@@ATL@@@Z
uxlib.dll ?SetTargetLanguage@CInternationalUtils@@SAHV?$CStringT@GV?$StrTraitATL@GV?$ChTraitsCRT@G@ATL@@@ATL@@@ATL@@@Z
uxlib.dll ?SetUILanguage@CInternationalUtils@@SAHV?$CStringT@GV?$StrTraitATL@GV?$ChTraitsCRT@G@ATL@@@ATL@@@ATL@@@Z
uxlib.dll ?GetKeyboard@CInternationalUtils@@SA?AV?$CStringT@GV?$StrTraitATL@GV?$ChTraitsCRT@G@ATL@@@ATL@@@ATL@@XZ
uxlib.dll ?GetLocale@CInternationalUtils@@SA?AV?$CStringT@GV?$StrTraitATL@GV?$ChTraitsCRT@G@ATL@@@ATL@@@ATL@@XZ
uxlib.dll ?GetShowLangKeyboard@CInternationalUtils@@SAHXZ
wdscore.dll WdsDeleteBlackboardValue
wdscore.dll WdsSetUILanguage
wdscore.dll CurrentIP
wdscore.dll WdsEnumFirstBlackboardItem
wdscore.dll WdsAbortBlackboardItemEnum
wdscore.dll WdsEnumNextBlackboardItem
wdscore.dll WdsFreeData
wdscore.dll WdsInitializeDataUInt32
wdscore.dll WdsPackCollection
wdscore.dll WdsAllocCollection
wdscore.dll WdsCollectionAddValue
wdscore.dll WdsPublishImmediateAsync
wdscore.dll WdsFreeCollection
wdscore.dll WdsCollectionGetValue
wdscore.dll WdsSubscribeEx
wdscore.dll WdsUnpackCollection
wdscore.dll WdsPublish
wdscore.dll WdsCreateBlackboard
wdscore.dll WdsDestroyBlackboard
wdscore.dll WdsInitializeCallbackArray
wdscore.dll WdsPublishImmediateEx
wdscore.dll WdsSetBlackboardValue
wdscore.dll ConstructPartialMsgVW
wdscore.dll WdsSetupLogMessageW
wdscore.dll WdsInitializeDataStringW
wdscore.dll WdsInitializeDataUInt64
wdscore.dll WdsGetBlackboardValue
wdsutil.dll ??0CDiskPartUserSetting@@QEAA@XZ
wdsutil.dll DiskSupportsCapabilityForType
wdsutil.dll ??1CSetupUIWelcomeSetting@@QEAA@XZ
wdsutil.dll DiskRegionSupportsCapabilityForType
wdsutil.dll GetApplicableDiskReason
wdsutil.dll FreeReason
wdsutil.dll WdsValidateInstallDrive
wdsutil.dll ??0CSetupUIWelcomeSetting@@QEAA@XZ
wdsutil.dll ??0CProductKeyUserSetting@@QEAA@XZ
wdsutil.dll ??1CProductKeyUserSetting@@QEAA@XZ
wdsutil.dll ??0CIBSUIImageSelectionSetting@@QEAA@XZ
wdsutil.dll ??1CIBSUIImageSelectionSetting@@QEAA@XZ
wdsutil.dll ??1CDUUIProgressSetting@@QEAA@XZ
wdsutil.dll ??1CDUUIWelcomeSetting@@QEAA@XZ
wdsutil.dll ?IsUpgrade@CUpgradeUserSetting@@SAHXZ
wdsutil.dll ?SetModuleId@CUserSetting@@QEAAXPEAX@Z
wdsutil.dll ??0CSetupUISummarySetting@@QEAA@XZ
wdsutil.dll ??1CUpgradeUserSetting@@QEAA@XZ
wdsutil.dll ??0CUpgradeUserSetting@@QEAA@XZ
wdsutil.dll ??0CDUUIProgressSetting@@QEAA@XZ
wdsutil.dll ??0CDUUIWelcomeSetting@@QEAA@XZ
wdsutil.dll ??1CEulaSetting@@QEAA@XZ
wdsutil.dll ??0CEulaSetting@@QEAA@XZ
wdsutil.dll ??0CWDSUIWelcomeSetting@@QEAA@XZ
wdsutil.dll GetApplicableDiskRegionReason
wdsutil.dll ??1CDiskPartUserSetting@@QEAA@XZ
wdsutil.dll IsCrossArchitectureInstall
wdsutil.dll ??0CWDSUIImageSelectionSetting@@QEAA@XZ
wdsutil.dll ??1CWDSUIImageSelectionSetting@@QEAA@XZ
wdsutil.dll ?set_Show@CUserSetting@@QEAAJH@Z
wdsutil.dll ??1CSetupUISummarySetting@@QEAA@XZ
wdsutil.dll ??1CWDSUIWelcomeSetting@@QEAA@XZ
ntdll.dll RtlCaptureContext
ntdll.dll RtlLookupFunctionEntry
ntdll.dll RtlVirtualUnwind
ntdll.dll RtlAllocateHeap
ntdll.dll RtlFreeHeap
ntdll.dll RtlVerifyVersionInfo
ntdll.dll VerSetConditionMask
ntdll.dll RtlNtStatusToDosError
ntdll.dll RtlGetVersion
ntdll.dll NtQuerySystemInformation
user32.dll DispatchMessageW
user32.dll SetThreadDesktop
user32.dll SetClassLongPtrW
user32.dll GetSystemMetrics
user32.dll GetPropW
user32.dll FindWindowExW
user32.dll GetMessageW
user32.dll TranslateMessage
user32.dll SetCursor
user32.dll PostQuitMessage
user32.dll UpdateWindow
user32.dll LoadImageW
user32.dll UnregisterClassA
user32.dll GetWindowLongW
user32.dll GetWindowTextLengthW
user32.dll DefWindowProcW
user32.dll GetWindow
user32.dll DestroyWindow
user32.dll ScreenToClient
user32.dll RegisterClassExW
user32.dll IsWindow
user32.dll InvalidateRgn
user32.dll RedrawWindow
user32.dll ClientToScreen
user32.dll DestroyAcceleratorTable
user32.dll IsChild
user32.dll MoveWindow
user32.dll CreateAcceleratorTableW
user32.dll LoadCursorW
user32.dll GetClassNameW
user32.dll SetCapture
user32.dll SetWindowLongW
user32.dll GetDesktopWindow
user32.dll GetClassInfoExW
user32.dll RegisterWindowMessageW
user32.dll ReleaseCapture
user32.dll GetWindowTextW
user32.dll CharNextW
user32.dll CreateWindowExW
user32.dll GetWindowRect
user32.dll SetWindowPos
user32.dll MonitorFromWindow
user32.dll GetMonitorInfoW
user32.dll MapWindowPoints
user32.dll IsRectEmpty
user32.dll SetRectEmpty
user32.dll CreateDialogIndirectParamW
user32.dll InvalidateRect
user32.dll BeginPaint
user32.dll EndPaint
user32.dll GetKeyState
user32.dll GetFocus
user32.dll IsWindowVisible
user32.dll HideCaret
user32.dll MapVirtualKeyExW
user32.dll EmptyClipboard
user32.dll SetDlgItemTextW
user32.dll LoadKeyboardLayoutW
user32.dll SetClipboardData
user32.dll ShowCaret
user32.dll SetTimer
user32.dll GetDlgCtrlID
user32.dll IsDlgButtonChecked
user32.dll KillTimer
user32.dll CheckDlgButton
user32.dll CallWindowProcW
user32.dll PostMessageW
user32.dll GetDC
user32.dll SetWindowLongPtrW
user32.dll FillRect
user32.dll EndDialog
user32.dll SetWindowTextW
user32.dll NotifyWinEvent
user32.dll GetWindowLongPtrW
user32.dll DrawIcon
user32.dll LoadStringW
user32.dll ShowWindow
user32.dll OpenClipboard
user32.dll DestroyIcon
user32.dll CloseClipboard
user32.dll FrameRect
user32.dll SendDlgItemMessageW
user32.dll GetSysColor
user32.dll IsWindowEnabled
user32.dll LoadBitmapW
user32.dll SetFocus
user32.dll GetClipboardData
user32.dll LoadIconW
user32.dll GetDlgItemInt
user32.dll GetClientRect
user32.dll GetDlgItem
user32.dll IsClipboardFormatAvailable
user32.dll DrawTextW
user32.dll SetDlgItemInt
user32.dll GetParent
user32.dll ReleaseDC
user32.dll EnableWindow
user32.dll SendMessageW
user32.dll FindWindowW
user32.dll SetPropW
user32.dll MapVirtualKeyW
user32.dll GetDlgItemTextW
gdi32.dll DeleteDC
gdi32.dll SetTextColor
gdi32.dll Rectangle
gdi32.dll SelectClipRgn
gdi32.dll GetObjectW
gdi32.dll SetBkColor
gdi32.dll DeleteObject
gdi32.dll CreateSolidBrush
gdi32.dll CreateFontIndirectW
gdi32.dll CreateCompatibleDC
gdi32.dll SelectObject
gdi32.dll GetDeviceCaps
gdi32.dll SetBkMode
gdi32.dll CreateRectRgn
gdi32.dll CreateCompatibleBitmap
gdi32.dll GetTextExtentPoint32W
gdi32.dll GetTextMetricsW
gdi32.dll SetTextCharacterExtra
gdi32.dll RemoveFontMemResourceEx
gdi32.dll SetStretchBltMode
gdi32.dll SetBrushOrgEx
gdi32.dll SetWorldTransform
gdi32.dll SetTextAlign
gdi32.dll SetMapMode
gdi32.dll TextOutW
gdi32.dll GetTextAlign
gdi32.dll SetLayout
gdi32.dll SetGraphicsMode
gdi32.dll CreateDIBitmap
gdi32.dll AddFontMemResourceEx
gdi32.dll GdiAlphaBlend
gdi32.dll StretchBlt
gdi32.dll BitBlt
gdi32.dll GetStockObject
comctl32.dll ImageList_ReplaceIcon
comctl32.dll ImageList_Create
oleaut32.dll VariantChangeType
oleaut32.dll SysAllocStringLen
oleaut32.dll SysReAllocStringLen
oleaut32.dll VariantInit
oleaut32.dll VarUI4FromStr
oleaut32.dll SysStringLen
oleaut32.dll VariantClear
oleaut32.dll SysAllocString
oleaut32.dll SysStringByteLen
oleaut32.dll OleCreateFontIndirect
oleaut32.dll LoadTypeLib
oleaut32.dll LoadRegTypeLib
oleaut32.dll VariantCopy
oleaut32.dll SysFreeString
oleaut32.dll VarBstrCmp
kernel32.dll GetEnvironmentVariableW
kernel32.dll SizeofResource
kernel32.dll CreateThread
kernel32.dll CloseHandle
kernel32.dll FormatMessageW
kernel32.dll LockResource
kernel32.dll RaiseException
kernel32.dll MultiByteToWideChar
kernel32.dll FindResourceExW
kernel32.dll LoadResource
kernel32.dll LocalFree
kernel32.dll HeapFree
kernel32.dll LocalAlloc
kernel32.dll GetVersionExW
kernel32.dll GetLastError
kernel32.dll GlobalLock
kernel32.dll GetProcessHeap
kernel32.dll GlobalUnlock
kernel32.dll WaitForSingleObject
kernel32.dll ReleaseMutex
kernel32.dll CreateEventW
kernel32.dll Sleep
kernel32.dll SetEvent
kernel32.dll GetTickCount
kernel32.dll SetLastError
kernel32.dll ExpandEnvironmentStringsW
kernel32.dll GlobalAlloc
kernel32.dll GlobalFree
kernel32.dll MulDiv
kernel32.dll CreateMutexW
kernel32.dll lstrcmpW
kernel32.dll EnterCriticalSection
kernel32.dll GetModuleFileNameW
kernel32.dll LeaveCriticalSection
kernel32.dll InitializeCriticalSection
kernel32.dll DisableThreadLibraryCalls
kernel32.dll GetProcAddress
kernel32.dll DeleteCriticalSection
kernel32.dll GetModuleHandleW
kernel32.dll FreeLibrary
kernel32.dll lstrcmpiW
kernel32.dll LoadLibraryExW
kernel32.dll GetFileSizeEx
kernel32.dll CreateFileW
kernel32.dll HeapAlloc
kernel32.dll CompareStringW
kernel32.dll AcquireSRWLockExclusive
kernel32.dll ReleaseSRWLockExclusive
kernel32.dll GetCurrentThreadId
kernel32.dll CopyFileW
kernel32.dll WriteFile
kernel32.dll SetFileAttributesW
kernel32.dll LoadLibraryW
kernel32.dll HeapSize
kernel32.dll HeapReAlloc
kernel32.dll HeapDestroy
kernel32.dll VirtualFree
kernel32.dll GetCurrentProcess
kernel32.dll VirtualAlloc
kernel32.dll LoadLibraryExA
kernel32.dll EncodePointer
kernel32.dll DecodePointer
kernel32.dll FlushInstructionCache
kernel32.dll InterlockedPushEntrySList
kernel32.dll InterlockedPopEntrySList
kernel32.dll UnhandledExceptionFilter
kernel32.dll SetUnhandledExceptionFilter
kernel32.dll TerminateProcess
kernel32.dll QueryPerformanceCounter
kernel32.dll GetCurrentProcessId
kernel32.dll GetSystemTimeAsFileTime
kernel32.dll OutputDebugStringA
kernel32.dll DeviceIoControl
kernel32.dll GetDriveTypeW
kernel32.dll CreateDirectoryW
kernel32.dll GetFullPathNameW
kernel32.dll GetFileAttributesW
kernel32.dll CopyFileExW
kernel32.dll FindResourceW
kernel32.dll GetModuleHandleExW
kernel32.dll GetSystemDefaultUILanguage
kernel32.dll GetLocaleInfoEx
kernel32.dll GetExitCodeThread
kernel32.dll SetErrorMode
kernel32.dll GetLogicalDriveStringsW
kernel32.dll SleepConditionVariableSRW
kernel32.dll WakeAllConditionVariable
kernel32.dll DelayLoadFailureHook
kernel32.dll GetLocaleInfoW
kernel32.dll ReadFile
ole32.dll CoCreateInstance
ole32.dll CLSIDFromProgID
ole32.dll CoTaskMemAlloc
ole32.dll CoTaskMemFree
ole32.dll CoTaskMemRealloc
ole32.dll CoGetClassObject
ole32.dll OleUninitialize
ole32.dll StringFromGUID2
ole32.dll CreateStreamOnHGlobal
ole32.dll OleInitialize
ole32.dll CLSIDFromString
ole32.dll OleLockRunning
ole32.dll CoUninitialize
ole32.dll CoInitializeEx
advapi32.dll RegQueryValueExW
advapi32.dll RegCloseKey
advapi32.dll RegQueryInfoKeyW
advapi32.dll RegCreateKeyExW
advapi32.dll RegEnumKeyExW
advapi32.dll RegSetValueExW
advapi32.dll RegOpenKeyExW
advapi32.dll RegDeleteValueW
shell32.dll SHGetMalloc
shell32.dll SHBrowseForFolderW
shell32.dll SHGetSpecialFolderLocation
shell32.dll SHGetPathFromIDListW
shell32.dll ShellExecuteW
wininet.dll InternetAutodial
wininet.dll InternetSetOptionW
wininet.dll InternetGetConnectedState
wininet.dll InternetQueryOptionW
setupapi.dll SetupDiGetDeviceInterfaceDetailW
setupapi.dll SetupDiEnumDeviceInterfaces
setupapi.dll SetupDiGetDeviceRegistryPropertyW
setupapi.dll SetupDiGetClassDevsW
version.dll VerQueryValueW
version.dll GetFileVersionInfoSizeExW
version.dll GetFileVersionInfoExW
