msvcrt.dll _wcsupr
msvcrt.dll ??3@YAXPEAX@Z
msvcrt.dll _wtoi
msvcrt.dll _wtol
msvcrt.dll _wcslwr
msvcrt.dll towupper
msvcrt.dll ??_V@YAXPEAX@Z
msvcrt.dll iswupper
msvcrt.dll _wcsnicmp
msvcrt.dll _wcsicmp
msvcrt.dll _vsnwprintf
msvcrt.dll swscanf
msvcrt.dll malloc
msvcrt.dll _callnewh
msvcrt.dll _purecall
msvcrt.dll ??0exception@@QEAA@AEBQEBD@Z
msvcrt.dll ??0exception@@QEAA@AEBQEBDH@Z
msvcrt.dll ??0exception@@QEAA@AEBV0@@Z
msvcrt.dll ??1exception@@UEAA@XZ
msvcrt.dll ?what@exception@@UEBAPEBDXZ
msvcrt.dll _CxxThrowException
msvcrt.dll __CxxFrameHandler3
msvcrt.dll memcpy
msvcrt.dll memmove
msvcrt.dll _XcptFilter
msvcrt.dll _amsg_exit
msvcrt.dll free
msvcrt.dll _initterm
msvcrt.dll __C_specific_handler
msvcrt.dll _lock
msvcrt.dll _unlock
msvcrt.dll __dllonexit
msvcrt.dll _onexit
msvcrt.dll ??1type_info@@UEAA@XZ
msvcrt.dll __CxxFrameHandler4
msvcrt.dll memset
ntdll.dll RtlNtStatusToDosError
ntdll.dll RtlCaptureContext
ntdll.dll RtlLookupFunctionEntry
ntdll.dll RtlVirtualUnwind
framedynos.dll ?GetObject@Provider@@MEAAJPEAVCInstance@@JAEAVCFrameworkQuery@@@Z
framedynos.dll ?ExecMethod@Provider@@MEAAJAEBVCInstance@@QEAGPEAV2@2J@Z
framedynos.dll ?DeleteInstance@Provider@@MEAAJAEBVCInstance@@J@Z
framedynos.dll ?OnFinalRelease@CThreadBase@@MEAAXXZ
framedynos.dll ?EndWrite@CThreadBase@@QEAAXXZ
framedynos.dll ?RemoveAll@CHPtrArray@@QEAAXXZ
framedynos.dll ??ACHPtrArray@@QEAAAEAPEAXH@Z
framedynos.dll ?BeginWrite@CThreadBase@@QEAAHK@Z
framedynos.dll ?EndRead@CThreadBase@@QEAAXXZ
framedynos.dll ?GetAt@CHPtrArray@@QEBAPEAXH@Z
framedynos.dll ?GetSize@CHPtrArray@@QEBAHXZ
framedynos.dll ?BeginRead@CThreadBase@@QEAAHK@Z
framedynos.dll ??1CHPtrArray@@QEAA@XZ
framedynos.dll ??0CHPtrArray@@QEAA@XZ
framedynos.dll ??1CThreadBase@@UEAA@XZ
framedynos.dll ??0CThreadBase@@QEAA@W4THREAD_SAFETY_MECHANISM@0@@Z
framedynos.dll ?Release@CInstance@@QEAAJXZ
framedynos.dll ?AddRef@CInstance@@QEAAJXZ
framedynos.dll ?MakeLower@CHString@@QEAAXXZ
framedynos.dll ?ReleaseBuffer@CHString@@QEAAXH@Z
framedynos.dll ?GetBuffer@CHString@@QEAAPEAGH@Z
framedynos.dll ?GetLength@CHString@@QEBAHXZ
framedynos.dll ?Right@CHString@@QEBA?AV1@H@Z
framedynos.dll ?Left@CHString@@QEBA?AV1@H@Z
framedynos.dll ?Compare@CHString@@QEBAHPEBG@Z
framedynos.dll ?Mid@CHString@@QEBA?AV1@H@Z
framedynos.dll ??4CHString@@QEAAAEBV0@AEBV0@@Z
framedynos.dll ?Find@CHString@@QEBAHG@Z
framedynos.dll ?Commit@CInstance@@QEAAJXZ
framedynos.dll ?SetCHString@CInstance@@QEAA_NPEBGAEBVCHString@@@Z
framedynos.dll ?CreateNewInstance@Provider@@IEAAPEAVCInstance@@PEAVMethodContext@@@Z
framedynos.dll ?GetInstancesByQuery@CWbemProviderGlue@@SAJPEBGPEAV?$TRefPointerCollection@VCInstance@@@@PEAVMethodContext@@0@Z
framedynos.dll ?GetCHString@CInstance@@QEBA_NPEBGAEAVCHString@@@Z
framedynos.dll ?GetMethodContext@CInstance@@QEBAPEAVMethodContext@@XZ
framedynos.dll ??0CHString@@QEAA@PEBG@Z
framedynos.dll ??BCHString@@QEBAPEBGXZ
framedynos.dll ?GetInstanceKeysByPath@CWbemProviderGlue@@SAJPEBGPEAPEAVCInstance@@PEAVMethodContext@@@Z
framedynos.dll ?Format@CHString@@QEAAXPEBGZZ
framedynos.dll ?Flush@Provider@@MEAAXXZ
framedynos.dll ??0CHString@@QEAA@XZ
framedynos.dll ?GetValuesForProp@CFrameworkQuery@@QEAAJPEBGAEAV?$vector@V_bstr_t@@V?$allocator@V_bstr_t@@@std@@@std@@@Z
framedynos.dll ??1Provider@@UEAA@XZ
framedynos.dll ??0Provider@@QEAA@PEBG0@Z
framedynos.dll ?LocalLogMessage@ProviderLog@@QEAAXPEBG0HW4LogLevel@1@@Z
framedynos.dll ?captainsLog@@3VProviderLog@@A
framedynos.dll ?LocalLogMessage@ProviderLog@@QEAAXPEBGHW4LogLevel@1@0ZZ
framedynos.dll ??YCHString@@QEAAAEBV0@PEBG@Z
framedynos.dll ?IsLoggingOn@ProviderLog@@QEAA?AW4LogLevel@1@PEAVCHString@@@Z
framedynos.dll ??YCHString@@QEAAAEBV0@G@Z
framedynos.dll ?FindOneOf@CHString@@QEBAHPEBG@Z
framedynos.dll ?Empty@CHString@@QEAAXXZ
framedynos.dll ?RemoveAt@CHStringArray@@QEAAXHH@Z
framedynos.dll ?ValidateEnumerationFlags@Provider@@MEAAJJ@Z
framedynos.dll ?ValidateGetObjFlags@Provider@@MEAAJJ@Z
framedynos.dll ?ValidateMethodFlags@Provider@@MEAAJJ@Z
framedynos.dll ?ValidateQueryFlags@Provider@@MEAAJJ@Z
framedynos.dll ?ValidateDeletionFlags@Provider@@MEAAJJ@Z
framedynos.dll ?ValidatePutInstanceFlags@Provider@@MEAAJJ@Z
framedynos.dll ?SetSize@CHPtrArray@@QEAAXHH@Z
framedynos.dll ?IsEmpty@CHString@@QEBAHXZ
framedynos.dll ?GetPropertyBitMask@CFrameworkQueryEx@@QEAAXAEBVCHPtrArray@@PEAX@Z
framedynos.dll ??H@YA?AVCHString@@AEBV0@PEBG@Z
framedynos.dll ?SetWCHARSplat@CInstance@@QEAA_NPEBG0@Z
framedynos.dll ?SetDWORD@CInstance@@QEAA_NPEBGK@Z
framedynos.dll ?Setbool@CInstance@@QEAA_NPEBG_N@Z
framedynos.dll ?SetCHString@CInstance@@QEAA_NPEBG0@Z
framedynos.dll ?PutInstance@Provider@@MEAAJAEBVCInstance@@J@Z
framedynos.dll ?GetObject@Provider@@MEAAJPEAVCInstance@@J@Z
framedynos.dll ??4CHString@@QEAAAEBV0@PEBD@Z
framedynos.dll ?ExecQuery@Provider@@MEAAJPEAVMethodContext@@AEAVCFrameworkQuery@@J@Z
framedynos.dll ??0CWinMsgEvent@@QEAA@XZ
framedynos.dll ??1CWinMsgEvent@@QEAA@XZ
framedynos.dll ?RegisterForMessage@CWinMsgEvent@@IEAAXIH@Z
framedynos.dll ?UnRegisterMessage@CWinMsgEvent@@IEAA_NIH@Z
framedynos.dll ?SetCreationClassName@Provider@@IEAA_NPEAVCInstance@@@Z
framedynos.dll ?GetLocalComputerName@Provider@@IEAAAEBVCHString@@XZ
framedynos.dll ?CompareNoCase@CHString@@QEBAHPEBG@Z
framedynos.dll ??1CHString@@QEAA@XZ
framedynos.dll ?RemoveAll@CHStringArray@@QEAAXXZ
framedynos.dll ??ACHStringArray@@QEAAAEAVCHString@@H@Z
framedynos.dll ?GetInstancePropertiesByPath@CWbemProviderGlue@@SAJPEBGPEAPEAVCInstance@@PEAVMethodContext@@AEAVCHStringArray@@@Z
framedynos.dll ?Add@CHStringArray@@QEAAHPEBG@Z
framedynos.dll ?SetAt@CHString@@QEAAXHG@Z
framedynos.dll ??YCHString@@QEAAAEBV0@AEBV0@@Z
framedynos.dll ?GetVariant@CInstance@@QEBA_NPEBGAEAUtagVARIANT@@@Z
framedynos.dll ?Add@CHPtrArray@@QEAAHPEAX@Z
framedynos.dll ?IsDerivedFrom@CWbemProviderGlue@@SA_NPEBG0PEAVMethodContext@@0@Z
framedynos.dll ?GetDWORD@CInstance@@QEBA_NPEBGAEAK@Z
framedynos.dll ??H@YA?AVCHString@@PEBGAEBV0@@Z
framedynos.dll ??H@YA?AVCHString@@AEBV0@G@Z
framedynos.dll ??H@YA?AVCHString@@AEBV0@0@Z
framedynos.dll ?Parse@CObjectPathParser@@QEAAHPEBGPEAPEAUParsedObjectPath@@@Z
framedynos.dll ??ACHStringArray@@QEBA?AVCHString@@H@Z
framedynos.dll ??1CObjectPathParser@@QEAA@XZ
framedynos.dll ??0CObjectPathParser@@QEAA@W4ObjectParserFlags@@@Z
framedynos.dll ?Free@CObjectPathParser@@QEAAXPEAUParsedObjectPath@@@Z
framedynos.dll ?GetLocalInstancePath@Provider@@IEAA_NPEBVCInstance@@AEAVCHString@@@Z
framedynos.dll ?GetNamespace@Provider@@IEAAAEBVCHString@@XZ
framedynos.dll ?GetInstancesByQueryAsynch@CWbemProviderGlue@@SAJPEBGPEAVProvider@@P6AJ1PEAVCInstance@@PEAVMethodContext@@PEAX@Z034@Z
framedynos.dll ?GetSize@CHStringArray@@QEBAHXZ
framedynos.dll ?GetValuesForProp@CFrameworkQuery@@QEAAJPEBGAEAVCHStringArray@@@Z
framedynos.dll ??1CHStringArray@@QEAA@XZ
framedynos.dll ??0CHStringArray@@QEAA@XZ
framedynos.dll ?initFailed@Provider@@SAHXZ
framedynos.dll ?FrameworkLoginDLL@CWbemProviderGlue@@SAHPEBGPEAJ@Z
framedynos.dll ??4CHString@@QEAAAEBV0@PEBG@Z
framedynos.dll ?MakeUpper@CHString@@QEAAXXZ
framedynos.dll ??0CHString@@QEAA@AEBV0@@Z
framedynos.dll ?Create@CWbemGlueFactory@@SAPEAV1@PEAJ@Z
framedynos.dll ?Destroy@CWbemGlueFactory@@QEAAXXZ
framedynos.dll ?FrameworkLogoffDLL@CWbemProviderGlue@@SAHPEBGPEAJ@Z
advapi32.dll RegSetValueExW
advapi32.dll RegCreateKeyExW
advapi32.dll RegCloseKey
advapi32.dll RegOpenKeyExW
advapi32.dll RegDeleteKeyExW
advapi32.dll OpenThreadToken
advapi32.dll LsaQueryInformationPolicy
advapi32.dll LsaFreeMemory
advapi32.dll LsaClose
advapi32.dll LsaEnumerateTrustedDomains
advapi32.dll LsaOpenPolicy
advapi32.dll RevertToSelf
advapi32.dll ImpersonateLoggedOnUser
kernel32.dll Sleep
kernel32.dll UnhandledExceptionFilter
kernel32.dll SetUnhandledExceptionFilter
kernel32.dll GetCurrentProcess
kernel32.dll TerminateProcess
kernel32.dll QueryPerformanceCounter
kernel32.dll GetCurrentProcessId
kernel32.dll GetCurrentThreadId
kernel32.dll GetSystemTimeAsFileTime
kernel32.dll InitializeCriticalSectionAndSpinCount
kernel32.dll DeleteCriticalSection
kernel32.dll CreateEventW
kernel32.dll EnterCriticalSection
kernel32.dll LeaveCriticalSection
kernel32.dll lstrlenA
kernel32.dll MultiByteToWideChar
kernel32.dll InitializeCriticalSectionEx
kernel32.dll WaitForSingleObjectEx
kernel32.dll CreateThread
kernel32.dll DeviceIoControl
kernel32.dll ResetEvent
kernel32.dll GetExitCodeThread
kernel32.dll SetLastError
kernel32.dll DisableThreadLibraryCalls
kernel32.dll GetVersionExW
kernel32.dll GetModuleFileNameW
kernel32.dll GetCurrentThread
kernel32.dll InitializeCriticalSection
kernel32.dll GetComputerNameExW
kernel32.dll DebugBreak
kernel32.dll LoadLibraryExW
kernel32.dll GetWindowsDirectoryW
kernel32.dll GetProcAddress
kernel32.dll FreeLibrary
kernel32.dll LocalFree
kernel32.dll LocalAlloc
kernel32.dll CreateFileW
kernel32.dll CloseHandle
kernel32.dll OpenJobObjectW
kernel32.dll AssignProcessToJobObject
kernel32.dll GetLastError
kernel32.dll SetEvent
kernel32.dll OpenProcess
kernel32.dll QueryInformationJobObject
kernel32.dll GetTickCount
ole32.dll StringFromGUID2
ole32.dll StringFromCLSID
ole32.dll CoTaskMemFree
ole32.dll CLSIDFromString
oleaut32.dll SysFreeString
oleaut32.dll SysAllocString
oleaut32.dll SysStringLen
oleaut32.dll VariantInit
oleaut32.dll VariantClear
oleaut32.dll VariantChangeType
oleaut32.dll SysAllocStringByteLen
devobj.dll DevObjDestroyDeviceInfoList
devobj.dll DevObjGetClassDevs
devobj.dll DevObjCreateDeviceInfoList
devobj.dll DevObjEnumDeviceInterfaces
devobj.dll DevObjGetDeviceInterfaceDetail
devobj.dll DevObjEnumDeviceInfo
