msvcrt.dll ??_V@YAXPEAX@Z
msvcrt.dll ??3@YAXPEAX@Z
msvcrt.dll malloc
msvcrt.dll free
msvcrt.dll __CxxFrameHandler4
msvcrt.dll _XcptFilter
msvcrt.dll _amsg_exit
msvcrt.dll _initterm
msvcrt.dll __C_specific_handler
msvcrt.dll _lock
msvcrt.dll _unlock
msvcrt.dll __dllonexit
msvcrt.dll _onexit
msvcrt.dll ??1type_info@@UEAA@XZ
msvcrt.dll toupper
msvcrt.dll _vsnwprintf
msvcrt.dll iswspace
msvcrt.dll _vsnprintf
msvcrt.dll atol
msvcrt.dll sscanf_s
msvcrt.dll _purecall
msvcrt.dll _wcsicmp
msvcrt.dll _ultow
msvcrt.dll _callnewh
msvcrt.dll ??0exception@@QEAA@AEBQEBD@Z
msvcrt.dll ??0exception@@QEAA@AEBQEBDH@Z
msvcrt.dll ??0exception@@QEAA@AEBV0@@Z
msvcrt.dll ??1exception@@UEAA@XZ
msvcrt.dll ?what@exception@@UEBAPEBDXZ
msvcrt.dll _CxxThrowException
msvcrt.dll __CxxFrameHandler3
msvcrt.dll memcpy
msvcrt.dll memmove
msvcrt.dll memset
ntdll.dll RtlVirtualUnwind
ntdll.dll RtlCaptureContext
ntdll.dll RtlLookupFunctionEntry
api-ms-win-core-file-l1-2-0.dll GetVolumeNameForVolumeMountPointW
api-ms-win-core-file-l1-1-0.dll GetLogicalDriveStringsW
api-ms-win-core-file-l1-1-0.dll FindFirstVolumeW
api-ms-win-core-file-l1-1-0.dll GetVolumeInformationW
api-ms-win-core-file-l1-1-0.dll GetVolumePathNameW
api-ms-win-core-file-l1-1-0.dll FindVolumeClose
api-ms-win-core-file-l1-1-0.dll FindNextVolumeW
oleaut32.dll SysFreeString
oleaut32.dll VariantCopy
oleaut32.dll SysAllocStringByteLen
oleaut32.dll SysStringLen
oleaut32.dll VariantInit
oleaut32.dll SysAllocString
oleaut32.dll VariantClear
oleaut32.dll VariantChangeType
api-ms-win-core-errorhandling-l1-1-0.dll GetLastError
api-ms-win-core-errorhandling-l1-1-0.dll SetUnhandledExceptionFilter
api-ms-win-core-errorhandling-l1-1-0.dll UnhandledExceptionFilter
api-ms-win-core-errorhandling-l1-1-0.dll SetLastError
api-ms-win-core-com-l1-1-0.dll StringFromCLSID
api-ms-win-core-com-l1-1-0.dll CoCreateInstance
api-ms-win-core-com-l1-1-0.dll StringFromGUID2
api-ms-win-core-com-l1-1-0.dll CoTaskMemFree
api-ms-win-security-base-l1-1-0.dll FreeSid
api-ms-win-security-base-l1-1-0.dll AllocateAndInitializeSid
api-ms-win-security-base-l1-1-0.dll GetSidIdentifierAuthority
api-ms-win-security-base-l1-1-0.dll GetSidSubAuthority
api-ms-win-security-base-l1-1-0.dll GetLengthSid
api-ms-win-security-base-l1-1-0.dll IsValidSid
api-ms-win-security-base-l1-1-0.dll GetSidSubAuthorityCount
api-ms-win-security-base-l1-1-0.dll CopySid
api-ms-win-core-heap-l2-1-0.dll LocalFree
api-ms-win-core-synch-l1-2-0.dll Sleep
api-ms-win-core-processthreads-l1-1-0.dll CreateThread
api-ms-win-core-processthreads-l1-1-0.dll GetCurrentProcessId
api-ms-win-core-processthreads-l1-1-0.dll TerminateProcess
api-ms-win-core-processthreads-l1-1-0.dll GetCurrentProcess
api-ms-win-core-processthreads-l1-1-0.dll GetCurrentThreadId
api-ms-win-core-profile-l1-1-0.dll QueryPerformanceCounter
api-ms-win-core-sysinfo-l1-1-0.dll GetVersionExW
api-ms-win-core-sysinfo-l1-1-0.dll GetTickCount
api-ms-win-core-sysinfo-l1-1-0.dll GetWindowsDirectoryW
api-ms-win-core-sysinfo-l1-1-0.dll GetSystemTimeAsFileTime
api-ms-win-core-localization-l1-2-0.dll LCMapStringW
api-ms-win-core-heap-l1-1-0.dll HeapFree
api-ms-win-core-heap-l1-1-0.dll HeapAlloc
api-ms-win-core-heap-l1-1-0.dll GetProcessHeap
api-ms-win-core-heap-l1-1-0.dll HeapReAlloc
api-ms-win-core-synch-l1-1-0.dll CreateEventW
api-ms-win-core-synch-l1-1-0.dll InitializeCriticalSection
api-ms-win-core-synch-l1-1-0.dll LeaveCriticalSection
api-ms-win-core-synch-l1-1-0.dll EnterCriticalSection
api-ms-win-core-synch-l1-1-0.dll DeleteCriticalSection
api-ms-win-core-synch-l1-1-0.dll InitializeCriticalSectionAndSpinCount
api-ms-win-core-synch-l1-1-0.dll InitializeCriticalSectionEx
api-ms-win-core-synch-l1-1-0.dll SetEvent
api-ms-win-core-synch-l1-1-0.dll WaitForSingleObjectEx
api-ms-win-core-handle-l1-1-0.dll CloseHandle
api-ms-win-core-libraryloader-l1-2-0.dll GetModuleFileNameW
api-ms-win-core-libraryloader-l1-2-0.dll FreeLibrary
api-ms-win-core-libraryloader-l1-2-0.dll GetProcAddress
api-ms-win-core-libraryloader-l1-2-0.dll DisableThreadLibraryCalls
api-ms-win-core-libraryloader-l1-2-0.dll LoadLibraryExW
api-ms-win-core-registry-l1-1-0.dll RegDeleteKeyExW
api-ms-win-core-registry-l1-1-0.dll RegOpenKeyExW
api-ms-win-core-registry-l1-1-0.dll RegSetValueExW
api-ms-win-core-registry-l1-1-0.dll RegCreateKeyExW
api-ms-win-core-registry-l1-1-0.dll RegCloseKey
api-ms-win-security-lsalookup-l2-1-0.dll LookupAccountSidW
api-ms-win-core-debug-l1-1-0.dll DebugBreak
api-ms-win-security-lsalookup-l1-1-0.dll LookupAccountNameLocalW
api-ms-win-security-lsalookup-l1-1-0.dll LookupAccountSidLocalW
kernel32.dll lstrcmpW
framedynos.dll ?EndWrite@CThreadBase@@QEAAXXZ
framedynos.dll ??1CThreadBase@@UEAA@XZ
framedynos.dll ??0CThreadBase@@QEAA@W4THREAD_SAFETY_MECHANISM@0@@Z
framedynos.dll ?IsDerivedFrom@CWbemProviderGlue@@SA_NPEBG0PEAVMethodContext@@0@Z
framedynos.dll ?GetInstanceKeysByPath@CWbemProviderGlue@@SAJPEBGPEAPEAVCInstance@@PEAVMethodContext@@@Z
framedynos.dll ??H@YA?AVCHString@@AEBV0@G@Z
framedynos.dll ??H@YA?AVCHString@@AEBV0@0@Z
framedynos.dll ?GetLocalInstancePath@Provider@@IEAA_NPEBVCInstance@@AEAVCHString@@@Z
framedynos.dll ?captainsLog@@3VProviderLog@@A
framedynos.dll ?LocalLogMessage@ProviderLog@@QEAAXPEBGHW4LogLevel@1@0ZZ
framedynos.dll ?LocalLogMessage@ProviderLog@@QEAAXPEBG0HW4LogLevel@1@@Z
framedynos.dll ??0CHString@@QEAA@PEBG@Z
framedynos.dll ??1CHString@@QEAA@XZ
framedynos.dll ?GetLength@CHString@@QEBAHXZ
framedynos.dll ??4CHString@@QEAAAEBV0@PEBG@Z
framedynos.dll ?GetBuffer@CHString@@QEAAPEAGH@Z
framedynos.dll ?ReleaseBuffer@CHString@@QEAAXH@Z
framedynos.dll ??0Provider@@QEAA@PEBG0@Z
framedynos.dll ??1Provider@@UEAA@XZ
framedynos.dll ??0CHString@@QEAA@XZ
framedynos.dll ??4CHString@@QEAAAEBV0@AEBV0@@Z
framedynos.dll ?s_strComputerName@Provider@@0VCHString@@A
framedynos.dll ?Compare@CHString@@QEBAHPEBG@Z
framedynos.dll ?Find@CHString@@QEBAHG@Z
framedynos.dll ??0CHString@@QEAA@AEBV0@@Z
framedynos.dll ??YCHString@@QEAAAEBV0@D@Z
framedynos.dll ??YCHString@@QEAAAEBV0@PEBG@Z
framedynos.dll ?GetCHString@CInstance@@QEBA_NPEBGAEAVCHString@@@Z
framedynos.dll ?IsEmpty@CHString@@QEBAHXZ
framedynos.dll ?Find@CHString@@QEBAHPEBG@Z
framedynos.dll ?Left@CHString@@QEBA?AV1@H@Z
framedynos.dll ?CompareNoCase@CHString@@QEBAHPEBG@Z
framedynos.dll ?Mid@CHString@@QEBA?AV1@H@Z
framedynos.dll ??YCHString@@QEAAAEBV0@AEBV0@@Z
framedynos.dll ??0CHStringArray@@QEAA@XZ
framedynos.dll ??1CHStringArray@@QEAA@XZ
framedynos.dll ?GetValuesForProp@CFrameworkQuery@@QEAAJPEBGAEAVCHStringArray@@@Z
framedynos.dll ?CreateNewInstance@Provider@@IEAAPEAVCInstance@@PEAVMethodContext@@@Z
framedynos.dll ?Commit@CInstance@@QEAAJXZ
framedynos.dll ?SetDWORD@CInstance@@QEAA_NPEBGK@Z
framedynos.dll ?SetWBEMINT64@CInstance@@QEAA_NPEBG_K@Z
framedynos.dll ?SetWCHARSplat@CInstance@@QEAA_NPEBG0@Z
framedynos.dll ?GetWBEMINT64@CInstance@@QEBA_NPEBGAEA_J@Z
framedynos.dll ?GetStatus@CInstance@@QEBA_NPEBGAEA_NAEAG@Z
framedynos.dll ?IsPropertyRequired@CFrameworkQuery@@QEAA_NPEBG@Z
framedynos.dll ?Right@CHString@@QEBA?AV1@H@Z
framedynos.dll ?Empty@CHString@@QEAAXXZ
framedynos.dll ?Format@CHString@@QEAAXPEBGZZ
framedynos.dll ?Release@CInstance@@QEAAJXZ
framedynos.dll ?OnFinalRelease@CThreadBase@@MEAAXXZ
framedynos.dll ?ExecMethod@Provider@@MEAAJAEBVCInstance@@QEAGPEAV2@2J@Z
framedynos.dll ?GetObject@Provider@@MEAAJPEAVCInstance@@J@Z
framedynos.dll ?Flush@Provider@@MEAAXXZ
framedynos.dll ?ValidateEnumerationFlags@Provider@@MEAAJJ@Z
framedynos.dll ?ValidateGetObjFlags@Provider@@MEAAJJ@Z
framedynos.dll ?ValidateMethodFlags@Provider@@MEAAJJ@Z
framedynos.dll ?ValidateQueryFlags@Provider@@MEAAJJ@Z
framedynos.dll ?ValidateDeletionFlags@Provider@@MEAAJJ@Z
framedynos.dll ?ValidatePutInstanceFlags@Provider@@MEAAJJ@Z
framedynos.dll ??YCHString@@QEAAAEBV0@G@Z
framedynos.dll ?SetCHString@CInstance@@QEAA_NPEBGAEBVCHString@@@Z
framedynos.dll ?SetWBEMINT64@CInstance@@QEAA_NPEBG_J@Z
framedynos.dll ?Setbool@CInstance@@QEAA_NPEBG_N@Z
framedynos.dll ?Getbool@CInstance@@QEBA_NPEBGAEA_N@Z
framedynos.dll ?GetDWORD@CInstance@@QEBA_NPEBGAEAK@Z
framedynos.dll ?SetCHString@CInstance@@QEAA_NPEBG0@Z
framedynos.dll ?AddRef@CInstance@@QEAAJXZ
framedynos.dll ?DeleteInstance@Provider@@MEAAJAEBVCInstance@@J@Z
framedynos.dll ?Create@CWbemGlueFactory@@SAPEAV1@PEAJ@Z
framedynos.dll ?Destroy@CWbemGlueFactory@@QEAAXXZ
framedynos.dll ?FrameworkLogoffDLL@CWbemProviderGlue@@SAHPEBGPEAJ@Z
framedynos.dll ?FrameworkLoginDLL@CWbemProviderGlue@@SAHPEBGPEAJ@Z
framedynos.dll ?initFailed@Provider@@SAHXZ
framedynos.dll ?IsLoggingOn@ProviderLog@@QEAA?AW4LogLevel@1@PEAVCHString@@@Z
framedynos.dll ?GetMethodContext@CInstance@@QEBAPEAVMethodContext@@XZ
framedynos.dll ?GetVariant@CInstance@@QEBA_NPEBGAEAUtagVARIANT@@@Z
framedynos.dll ??ACHStringArray@@QEBA?AVCHString@@H@Z
framedynos.dll ?SetAt@CHString@@QEAAXHG@Z
framedynos.dll ?GetInstancesByQueryAsynch@CWbemProviderGlue@@SAJPEBGPEAVProvider@@P6AJ1PEAVCInstance@@PEAVMethodContext@@PEAX@Z034@Z
framedynos.dll ?GetInstancesByQuery@CWbemProviderGlue@@SAJPEBGPEAV?$TRefPointerCollection@VCInstance@@@@PEAVMethodContext@@0@Z
framedynos.dll ?Add@CHStringArray@@QEAAHPEBG@Z
framedynos.dll ?GetInstancePropertiesByPath@CWbemProviderGlue@@SAJPEBGPEAPEAVCInstance@@PEAVMethodContext@@AEAVCHStringArray@@@Z
framedynos.dll ?RemoveAll@CHStringArray@@QEAAXXZ
framedynos.dll ?RemoveAt@CHStringArray@@QEAAXHH@Z
framedynos.dll ?FindOneOf@CHString@@QEBAHPEBG@Z
framedynos.dll ?GetSize@CHPtrArray@@QEBAHXZ
framedynos.dll ?GetAt@CHPtrArray@@QEBAPEAXH@Z
framedynos.dll ?PutInstance@Provider@@MEAAJAEBVCInstance@@J@Z
framedynos.dll ?RemoveAll@CHPtrArray@@QEAAXXZ
framedynos.dll ??ACHPtrArray@@QEAAAEAPEAXH@Z
framedynos.dll ?Add@CHPtrArray@@QEAAHPEAX@Z
framedynos.dll ??0CHPtrArray@@QEAA@XZ
framedynos.dll ??1CHPtrArray@@QEAA@XZ
framedynos.dll ??H@YA?AVCHString@@PEBGAEBV0@@Z
