b'msvcrt.dll' b'_wcsicmp'
b'msvcrt.dll' b'memmove'
b'msvcrt.dll' b'wcstod'
b'msvcrt.dll' b'_set_errno'
b'msvcrt.dll' b'_get_errno'
b'msvcrt.dll' b'wcsncpy_s'
b'msvcrt.dll' b'wcstok_s'
b'msvcrt.dll' b'??1exception@@UEAA@XZ'
b'msvcrt.dll' b'_vsnprintf_s'
b'msvcrt.dll' b'??0exception@@QEAA@XZ'
b'msvcrt.dll' b'memmove_s'
b'msvcrt.dll' b'memcpy_s'
b'msvcrt.dll' b'_purecall'
b'msvcrt.dll' b'free'
b'msvcrt.dll' b'malloc'
b'msvcrt.dll' b'_callnewh'
b'msvcrt.dll' b'memset'
b'msvcrt.dll' b'wcscpy_s'
b'msvcrt.dll' b'_XcptFilter'
b'msvcrt.dll' b'_amsg_exit'
b'msvcrt.dll' b'_initterm'
b'msvcrt.dll' b'__C_specific_handler'
b'msvcrt.dll' b'_lock'
b'msvcrt.dll' b'_unlock'
b'msvcrt.dll' b'__dllonexit'
b'msvcrt.dll' b'_onexit'
b'msvcrt.dll' b'_errno'
b'msvcrt.dll' b'realloc'
b'msvcrt.dll' b'__CxxFrameHandler3'
b'msvcrt.dll' b'memcmp'
b'msvcrt.dll' b'floorf'
b'msvcrt.dll' b'_CxxThrowException'
b'msvcrt.dll' b'??1type_info@@UEAA@XZ'
b'msvcrt.dll' b'wcschr'
b'msvcrt.dll' b'??0exception@@QEAA@AEBV0@@Z'
b'msvcrt.dll' b'_vsnwprintf'
b'msvcrt.dll' b'memcpy'
b'api-ms-win-core-libraryloader-l1-2-0.dll' b'GetModuleFileNameA'
b'api-ms-win-core-libraryloader-l1-2-0.dll' b'LoadLibraryExW'
b'api-ms-win-core-libraryloader-l1-2-0.dll' b'DisableThreadLibraryCalls'
b'api-ms-win-core-libraryloader-l1-2-0.dll' b'GetModuleHandleExW'
b'api-ms-win-core-libraryloader-l1-2-0.dll' b'LoadStringW'
b'api-ms-win-core-libraryloader-l1-2-0.dll' b'GetProcAddress'
b'api-ms-win-core-synch-l1-2-0.dll' b'LeaveCriticalSection'
b'api-ms-win-core-synch-l1-2-0.dll' b'WaitForSingleObjectEx'
b'api-ms-win-core-synch-l1-2-0.dll' b'ReleaseMutex'
b'api-ms-win-core-synch-l1-2-0.dll' b'WaitForSingleObject'
b'api-ms-win-core-synch-l1-2-0.dll' b'ReleaseSemaphore'
b'api-ms-win-core-synch-l1-2-0.dll' b'CreateSemaphoreExW'
b'api-ms-win-core-synch-l1-2-0.dll' b'CreateMutexExW'
b'api-ms-win-core-synch-l1-2-0.dll' b'InitOnceComplete'
b'api-ms-win-core-synch-l1-2-0.dll' b'InitOnceBeginInitialize'
b'api-ms-win-core-synch-l1-2-0.dll' b'EnterCriticalSection'
b'api-ms-win-core-synch-l1-2-0.dll' b'OpenSemaphoreW'
b'api-ms-win-core-synch-l1-2-0.dll' b'DeleteCriticalSection'
b'api-ms-win-core-synch-l1-2-0.dll' b'InitializeCriticalSection'
b'api-ms-win-core-synch-l1-2-0.dll' b'Sleep'
b'api-ms-win-core-heap-l1-2-0.dll' b'HeapFree'
b'api-ms-win-core-heap-l1-2-0.dll' b'GetProcessHeap'
b'api-ms-win-core-heap-l1-2-0.dll' b'HeapAlloc'
b'api-ms-win-core-errorhandling-l1-1-1.dll' b'RaiseException'
b'api-ms-win-core-errorhandling-l1-1-1.dll' b'GetLastError'
b'api-ms-win-core-errorhandling-l1-1-1.dll' b'SetUnhandledExceptionFilter'
b'api-ms-win-core-errorhandling-l1-1-1.dll' b'SetLastError'
b'api-ms-win-core-errorhandling-l1-1-1.dll' b'UnhandledExceptionFilter'
b'api-ms-win-core-processthreads-l1-1-2.dll' b'GetCurrentProcessId'
b'api-ms-win-core-processthreads-l1-1-2.dll' b'GetCurrentThreadId'
b'api-ms-win-core-processthreads-l1-1-2.dll' b'OpenProcessToken'
b'api-ms-win-core-processthreads-l1-1-2.dll' b'GetCurrentProcess'
b'api-ms-win-core-processthreads-l1-1-2.dll' b'TerminateProcess'
b'api-ms-win-core-localization-l1-2-1.dll' b'FormatMessageW'
b'api-ms-win-core-debug-l1-1-1.dll' b'OutputDebugStringW'
b'api-ms-win-core-debug-l1-1-1.dll' b'OutputDebugStringA'
b'api-ms-win-core-handle-l1-1-0.dll' b'CloseHandle'
b'api-ms-win-eventing-provider-l1-1-0.dll' b'EventWrite'
b'api-ms-win-eventing-provider-l1-1-0.dll' b'EventRegister'
b'api-ms-win-eventing-provider-l1-1-0.dll' b'EventActivityIdControl'
b'api-ms-win-eventing-provider-l1-1-0.dll' b'EventWriteTransfer'
b'api-ms-win-eventing-provider-l1-1-0.dll' b'EventUnregister'
b'api-ms-win-eventing-provider-l1-1-0.dll' b'EventSetInformation'
b'api-ms-win-core-sysinfo-l1-2-1.dll' b'GetTickCount'
b'api-ms-win-core-sysinfo-l1-2-1.dll' b'GetSystemTimeAsFileTime'
b'api-ms-win-core-rtlsupport-l1-2-0.dll' b'RtlCaptureContext'
b'api-ms-win-core-rtlsupport-l1-2-0.dll' b'RtlVirtualUnwind'
b'api-ms-win-core-rtlsupport-l1-2-0.dll' b'RtlLookupFunctionEntry'
b'api-ms-win-core-profile-l1-1-0.dll' b'QueryPerformanceCounter'
b'user32.dll' b'SetWindowPos'
b'user32.dll' b'RealGetWindowClassW'
b'user32.dll' b'GetWindowRect'
b'user32.dll' b'PostMessageW'
b'user32.dll' b'KillTimer'
b'user32.dll' b'SetRectEmpty'
b'user32.dll' b'SetWindowLongPtrW'
b'user32.dll' b'DestroyWindow'
b'user32.dll' b'UnregisterClassW'
b'user32.dll' b'IsRectEmpty'
b'user32.dll' b'GetWindowLongPtrW'
b'user32.dll' b'RegisterClassExW'
b'user32.dll' b'CreateWindowExW'
b'user32.dll' b'CopyRect'
b'user32.dll' b'IsWindowVisible'
b'user32.dll' b'NotifyWinEvent'
b'user32.dll' b'GetClientRect'
b'user32.dll' b'SetWindowRgn'
b'user32.dll' b'IsWindow'
b'user32.dll' b'GetDC'
b'user32.dll' b'PostThreadMessageW'
b'user32.dll' b'UpdateWindow'
b'user32.dll' b'RegisterTouchWindow'
b'user32.dll' b'GetMessageW'
b'user32.dll' b'CloseDesktop'
b'user32.dll' b'SetThreadDesktop'
b'user32.dll' b'GetUserObjectInformationW'
b'user32.dll' b'GetThreadDesktop'
b'user32.dll' b'OpenInputDesktop'
b'user32.dll' b'UnionRect'
b'user32.dll' b'InflateRect'
b'user32.dll' b'MonitorFromWindow'
b'user32.dll' b'SetRect'
b'user32.dll' b'DefWindowProcW'
b'user32.dll' b'GetWindowThreadProcessId'
b'user32.dll' b'GetMonitorInfoW'
b'user32.dll' b'SystemParametersInfoW'
b'user32.dll' b'DestroyIcon'
b'user32.dll' b'PtInRect'
b'user32.dll' b'MonitorFromPoint'
b'user32.dll' b'GetForegroundWindow'
b'user32.dll' b'GetAncestor'
b'user32.dll' b'ShowWindow'
b'user32.dll' b'SetLayeredWindowAttributes'
b'user32.dll' b'MsgWaitForMultipleObjectsEx'
b'user32.dll' b'PostQuitMessage'
b'user32.dll' b'TranslateMessage'
b'user32.dll' b'SetCursor'
b'user32.dll' b'GetParent'
b'user32.dll' b'DispatchMessageW'
b'user32.dll' b'GetSysColor'
b'user32.dll' b'EqualRect'
b'user32.dll' b'SetCoalescableTimer'
b'user32.dll' b'GetSystemMetrics'
b'user32.dll' b'LoadImageW'
b'user32.dll' b'GetGUIThreadInfo'
b'user32.dll' b'MsgWaitForMultipleObjects'
b'user32.dll' b'PeekMessageW'
b'user32.dll' b'CopyIcon'
b'user32.dll' b'GetClassInfoExW'
b'user32.dll' b'LoadCursorW'
b'user32.dll' b'ScreenToClient'
b'user32.dll' b'OffsetRect'
b'user32.dll' b'ClientToScreen'
b'user32.dll' b'SendMessageW'
b'dui70.dll' b'?IsPatternSupported@ElementProxy@DirectUI@@IEAAJW4Pattern@Schema@2@PEA_N@Z'
b'dui70.dll' b'?EventFromEventId@Schema@DirectUI@@SA?AW4Event@12@H@Z'
b'dui70.dll' b'?WantEvent@EventManager@DirectUI@@SA_NW4Event@Schema@2@@Z'
b'dui70.dll' b'?FWantAnyEvent@EventManager@DirectUI@@SA_NPEAVElement@2@@Z'
b'dui70.dll' b'?SetContentAlign@Element@DirectUI@@QEAAJH@Z'
b'dui70.dll' b'?SetMargin@Element@DirectUI@@QEAAJHHHH@Z'
b'dui70.dll' b'?GetMargin@Element@DirectUI@@QEAAPEBUtagRECT@@PEAPEAVValue@2@@Z'
b'dui70.dll' b'?SetBorderThickness@Element@DirectUI@@QEAAJHHHH@Z'
b'dui70.dll' b'?GetBorderThickness@Element@DirectUI@@QEAAPEBUtagRECT@@PEAPEAVValue@2@@Z'
b'dui70.dll' b'?GetFontSize@Element@DirectUI@@QEAAHXZ'
b'dui70.dll' b'?_PostEvent@Element@DirectUI@@AEAAXPEAUEvent@2@H@Z'
b'dui70.dll' b'?GetMinSize@Element@DirectUI@@QEAAPEBUtagSIZE@@PEAPEAVValue@2@@Z'
b'dui70.dll' b'?SetClass@Element@DirectUI@@QEAAJPEBG@Z'
b'dui70.dll' b'?SetMinSize@Element@DirectUI@@QEAAJHH@Z'
b'dui70.dll' b'?SetActivityOccuring@ModernProgressRing@DirectUI@@QEAAJ_N@Z'
b'dui70.dll' b'?SetFontColorRuns@RichText@DirectUI@@QEAAJPEBG@Z'
b'dui70.dll' b'?SetFontSizeRuns@RichText@DirectUI@@QEAAJPEBG@Z'
b'dui70.dll' b'?SetTypographyRuns@RichText@DirectUI@@QEAAJPEBG@Z'
b'dui70.dll' b'?SetLocale@RichText@DirectUI@@QEAAJPEBG@Z'
b'dui70.dll' b'?GetXOffset@BaseScrollViewer@DirectUI@@QEAAHXZ'
b'dui70.dll' b'?SetXOffset@BaseScrollViewer@DirectUI@@QEAAJH@Z'
b'dui70.dll' b'?SetXScrollable@BaseScrollViewer@DirectUI@@QEAAJ_N@Z'
b'dui70.dll' b'?GetSnapPointCollectionX@TouchScrollViewer@DirectUI@@QEAAPEAV?$DynamicArray@N$0A@@2@PEAPEAVValue@2@@Z'
b'dui70.dll' b'?SetSnapPointCollectionX@TouchScrollViewer@DirectUI@@QEAAJPEBNH@Z'
b'dui70.dll' b'?MouseFocusedProp@Element@DirectUI@@SAPEBUPropertyInfo@2@XZ'
b'dui70.dll' b'?GetBoolTrue@Value@DirectUI@@SAPEAV12@XZ'
b'dui70.dll' b'?GetBoolFalse@Value@DirectUI@@SAPEAV12@XZ'
b'dui70.dll' b'?UpdateContentSize@TouchScrollViewer@DirectUI@@SA?AVUID@@XZ'
b'dui70.dll' b'?ResetManipulations@TouchScrollViewer@DirectUI@@QEAAJXZ'
b'dui70.dll' b'?RemoveAll@Element@DirectUI@@QEAAJXZ'
b'dui70.dll' b'?GetPressed@TouchButton@DirectUI@@QEAA_NXZ'
b'dui70.dll' b'?GetVisibleRect@TouchScrollViewer@DirectUI@@QEAAXPEAUtagRECT@@@Z'
b'dui70.dll' b'?WindowDpiChanged@HWNDElement@DirectUI@@SA?AVUID@@XZ'
b'dui70.dll' b'?ManipulationDelta@TouchScrollViewer@DirectUI@@SA?AVUID@@XZ'
b'dui70.dll' b'?GetValue@Element@DirectUI@@QEAAPEAVValue@2@PEBUPropertyInfo@2@HPEAUUpdateCache@2@@Z'
b'dui70.dll' b'?TypographyRunsProp@RichText@DirectUI@@SAPEBUPropertyInfo@2@XZ'
b'dui70.dll' b'?DirectionProp@Element@DirectUI@@SAPEBUPropertyInfo@2@XZ'
b'dui70.dll' b'?SelectedProp@Element@DirectUI@@SAPEBUPropertyInfo@2@XZ'
b'dui70.dll' b'?IDProp@Element@DirectUI@@SAPEBUPropertyInfo@2@XZ'
b'dui70.dll' b'?FontFaceProp@Element@DirectUI@@SAPEBUPropertyInfo@2@XZ'
b'dui70.dll' b'?CreateString@Value@DirectUI@@SAPEAV12@PEBGPEAUHINSTANCE__@@@Z'
b'dui70.dll' b'?CreateRect@Value@DirectUI@@SAPEAV12@HHHHW4DynamicScaleValue@@@Z'
b'dui70.dll' b'?LayoutPosProp@Element@DirectUI@@SAPEBUPropertyInfo@2@XZ'
b'dui70.dll' b'?VisibleProp@Element@DirectUI@@SAPEBUPropertyInfo@2@XZ'
b'dui70.dll' b'?CreateBool@Value@DirectUI@@SAPEAV12@_N@Z'
b'dui70.dll' b'?AccValueProp@Element@DirectUI@@SAPEBUPropertyInfo@2@XZ'
b'dui70.dll' b'?AccDescProp@Element@DirectUI@@SAPEBUPropertyInfo@2@XZ'
b'dui70.dll' b'?ClassProp@Element@DirectUI@@SAPEBUPropertyInfo@2@XZ'
b'dui70.dll' b'?FontQualityProp@Element@DirectUI@@SAPEBUPropertyInfo@2@XZ'
b'dui70.dll' b'?FontStyleProp@Element@DirectUI@@SAPEBUPropertyInfo@2@XZ'
b'dui70.dll' b'?FontWeightProp@Element@DirectUI@@SAPEBUPropertyInfo@2@XZ'
b'dui70.dll' b'?FontSizeProp@Element@DirectUI@@SAPEBUPropertyInfo@2@XZ'
b'dui70.dll' b'?PaddingProp@Element@DirectUI@@SAPEBUPropertyInfo@2@XZ'
b'dui70.dll' b'?ZoomToRect@TouchScrollViewer@DirectUI@@QEAAJPEBUtagRECT@@_N@Z'
b'dui70.dll' b'?SetXOffset@Viewer@DirectUI@@QEAAJH@Z'
b'dui70.dll' b'?CreateAtom@Value@DirectUI@@SAPEAV12@PEBG@Z'
b'dui70.dll' b'?SelectionPattern@Schema@DirectUI@@2HA'
b'dui70.dll' b'?SetAccState@Element@DirectUI@@QEAAJH@Z'
b'dui70.dll' b'?GetAccState@Element@DirectUI@@QEAAHXZ'
b'dui70.dll' b'NotifyAccessibilityEvent'
b'dui70.dll' b'?GetVScrollbar@TouchScrollViewer@DirectUI@@QEAAJPEAPEAVElement@2@@Z'
b'dui70.dll' b'?SetYScrollable@BaseScrollViewer@DirectUI@@QEAAJ_N@Z'
b'dui70.dll' b'?GetHeight@Element@DirectUI@@QEAAHXZ'
b'dui70.dll' b'?SetID@Element@DirectUI@@QEAAJPEBG@Z'
b'dui70.dll' b'?YOffsetProp@BaseScrollViewer@DirectUI@@SAPEBUPropertyInfo@2@XZ'
b'dui70.dll' b'?Host@NativeHWNDHost@DirectUI@@QEAAXPEAVElement@2@@Z'
b'dui70.dll' b'?EndDefer@Element@DirectUI@@QEAAXK@Z'
b'dui70.dll' b'?Click@TouchButton@DirectUI@@SA?AVUID@@XZ'
b'dui70.dll' b'?ContextMenuRequested@ContextMenuBehavior@DirectUI@@SA?AVUID@@XZ'
b'dui70.dll' b'?MouseWithinProp@Element@DirectUI@@SAPEBUPropertyInfo@2@XZ'
b'dui70.dll' b'InitProcessPriv'
b'dui70.dll' b'InitThread'
b'dui70.dll' b'?Init@Schema@DirectUI@@SAJXZ'
b'dui70.dll' b'RegisterPVLBehaviorFactory'
b'dui70.dll' b'StartMessagePump'
b'dui70.dll' b'UnInitThread'
b'dui70.dll' b'UnInitProcessPriv'
b'dui70.dll' b'?RemoveListener@Element@DirectUI@@QEAAXPEAUIElementListener@2@@Z'
b'dui70.dll' b'?AddListener@Element@DirectUI@@QEAAJPEAUIElementListener@2@@Z'
b'dui70.dll' b'??0NativeHWNDHost@DirectUI@@QEAA@XZ'
b'dui70.dll' b'??1NativeHWNDHost@DirectUI@@UEAA@XZ'
b'dui70.dll' b'?Initialize@NativeHWNDHost@DirectUI@@QEAAJPEBGPEAUHWND__@@PEAUHICON__@@HHHHHHI@Z'
b'dui70.dll' b'?ShowWindow@NativeHWNDHost@DirectUI@@QEAAXH@Z'
b'dui70.dll' b'?HideWindow@NativeHWNDHost@DirectUI@@QEAAXXZ'
b'dui70.dll' b'?DestroyWindow@NativeHWNDHost@DirectUI@@QEAAXXZ'
b'dui70.dll' b'?CreateHostWindow@NativeHWNDHost@DirectUI@@UEAAPEAUHWND__@@KPEBG0KHHHHPEAU3@PEAUHMENU__@@PEAUHINSTANCE__@@PEAX@Z'
b'dui70.dll' b'?Release@Value@DirectUI@@QEAAXXZ'
b'dui70.dll' b'?Destroy@Element@DirectUI@@QEAAJ_N@Z'
b'dui70.dll' b'?SetAccessible@Element@DirectUI@@QEAAJ_N@Z'
b'dui70.dll' b'?SetValue@Element@DirectUI@@QEAAJP6APEBUPropertyInfo@2@XZHPEAVValue@2@@Z'
b'dui70.dll' b'?Create@FillLayout@DirectUI@@SAJPEAPEAVLayout@2@@Z'
b'dui70.dll' b'?SetLayout@Element@DirectUI@@QEAAJPEAVLayout@2@@Z'
b'dui70.dll' b'?StartDefer@Element@DirectUI@@QEAAXPEAK@Z'
b'dui70.dll' b'?Create@Element@DirectUI@@SAJIPEAV12@PEAKPEAPEAV12@@Z'
b'dui70.dll' b'?Add@Element@DirectUI@@QEAAJPEAV12@@Z'
b'dui70.dll' b'?FindDescendent@Element@DirectUI@@QEAAPEAV12@G@Z'
b'dui70.dll' b'StrToID'
b'dui70.dll' b'?Destroy@Layout@DirectUI@@QEAAXXZ'
b'dui70.dll' b'?SetVisible@Element@DirectUI@@QEAAJ_N@Z'
b'dui70.dll' b'?EnableUiaEvents@Element@DirectUI@@QEAAX_N@Z'
b'dui70.dll' b'UiaOnToolTip'
b'dui70.dll' b'?ContentProp@Element@DirectUI@@SAPEBUPropertyInfo@2@XZ'
b'dui70.dll' b'?CreateGraphic@Value@DirectUI@@SAPEAV12@PEAUHICON__@@_N11@Z'
b'dui70.dll' b'?SetAccName@Element@DirectUI@@QEAAJPEBG@Z'
b'dui70.dll' b'?Initialize@TouchHWNDElement@DirectUI@@QEAAJPEAUHWND__@@_NIPEAVElement@2@PEAK@Z'
b'dui70.dll' b'?Create@DUIXmlParser@DirectUI@@SAJPEAPEAV12@P6APEAVValue@2@PEBGPEAX@Z2P6AX11H2@Z2@Z'
b'dui70.dll' b'?SetXMLFromResource@DUIXmlParser@DirectUI@@QEAAJIPEAUHINSTANCE__@@0@Z'
b'dui70.dll' b'?Destroy@DUIXmlParser@DirectUI@@QEAAXXZ'
b'dui70.dll' b'?EnableDesignMode@DUIXmlParser@DirectUI@@QEAAXXZ'
b'dui70.dll' b'?CreateElement@DUIXmlParser@DirectUI@@QEAAJPEBGPEAVElement@2@1PEAKPEAPEAV32@@Z'
b'dui70.dll' b'?WndProc@TouchHWNDElement@DirectUI@@UEAA_JPEAUHWND__@@I_K_J@Z'
b'dui70.dll' b'?PressedProp@TouchButton@DirectUI@@SAPEBUPropertyInfo@2@XZ'
b'dui70.dll' b'?CreateInstance@CSafeElementProxy@@SAJPEAVElement@DirectUI@@PEAPEAV1@@Z'
b'dui70.dll' b'??1TouchHWNDElement@DirectUI@@UEAA@XZ'
b'dui70.dll' b'?Detach@CSafeElementProxy@@QEAAXXZ'
b'dui70.dll' b'??0TouchHWNDElement@DirectUI@@QEAA@XZ'
b'dui70.dll' b'?Register@TouchHWNDElement@DirectUI@@SAJXZ'
b'dui70.dll' b'?GetFactoryLock@Element@DirectUI@@SAPEAU_RTL_CRITICAL_SECTION@@XZ'
b'dui70.dll' b'??1CritSecLock@DirectUI@@QEAA@XZ'
b'dui70.dll' b'?ClassExist@ClassInfoBase@DirectUI@@SA_NPEAPEAUIClassInfo@2@PEBQEBUPropertyInfo@2@IPEAU32@PEAUHINSTANCE__@@PEBG_N@Z'
b'dui70.dll' b'?Register@ClassInfoBase@DirectUI@@QEAAJXZ'
b'dui70.dll' b'?Initialize@ClassInfoBase@DirectUI@@QEAAJPEAUHINSTANCE__@@PEBG_NPEBQEBUPropertyInfo@2@I@Z'
b'dui70.dll' b'?GetClassInfoPtr@TouchHWNDElement@DirectUI@@SAPEAUIClassInfo@2@XZ'
b'dui70.dll' b'??0ClassInfoBase@DirectUI@@QEAA@XZ'
b'dui70.dll' b'??1ClassInfoBase@DirectUI@@UEAA@XZ'
b'dui70.dll' b'?IsRTLReading@Element@DirectUI@@UEAA_NXZ'
b'dui70.dll' b'?IsContentProtected@Element@DirectUI@@UEAA_NXZ'
b'dui70.dll' b'?GetContentStringAsDisplayed@Element@DirectUI@@UEAAPEBGPEAPEAVValue@2@@Z'
b'dui70.dll' b'?OnPropertyChanging@Element@DirectUI@@UEAA_NPEBUPropertyInfo@2@HPEAVValue@2@1@Z'
b'dui70.dll' b'?OnPropertyChanging@Element@DirectUI@@UEAA_NPEAUPropertyInfo@2@HPEAVValue@2@1@Z'
b'dui70.dll' b'?OnPropertyChanged@TouchHWNDElement@DirectUI@@UEAAXPEBUPropertyInfo@2@HPEAVValue@2@1@Z'
b'dui70.dll' b'?OnPropertyChanged@Element@DirectUI@@UEAAXPEAUPropertyInfo@2@HPEAVValue@2@1@Z'
b'dui70.dll' b'?OnGroupChanged@HWNDElement@DirectUI@@UEAAXH_N@Z'
b'dui70.dll' b'?OnInput@TouchHWNDElement@DirectUI@@UEAAXPEAUInputEvent@2@@Z'
b'dui70.dll' b'?OnKeyFocusMoved@TouchHWNDElement@DirectUI@@UEAAXPEAVElement@2@0@Z'
b'dui70.dll' b'?OnMouseFocusMoved@Element@DirectUI@@UEAAXPEAV12@0@Z'
b'dui70.dll' b'?OnDestroy@TouchHWNDElement@DirectUI@@UEAAXXZ'
b'dui70.dll' b'?OnEvent@TouchHWNDElement@DirectUI@@UEAAXPEAUEvent@2@@Z'
b'dui70.dll' b'?Paint@Element@DirectUI@@UEAAXPEAUHDC__@@PEBUtagRECT@@1PEAU4@2@Z'
b'dui70.dll' b'?GetContentSize@Element@DirectUI@@UEAA?AUtagSIZE@@HHPEAVSurface@2@@Z'
b'dui70.dll' b'?Add@Element@DirectUI@@UEAAJPEAPEAV12@I@Z'
b'dui70.dll' b'?Insert@Element@DirectUI@@UEAAJPEAPEAV12@II@Z'
b'dui70.dll' b'?Remove@Element@DirectUI@@UEAAJPEAPEAV12@I@Z'
b'dui70.dll' b'?GetAdjacent@Element@DirectUI@@UEAAPEAV12@PEAV12@HPEBUNavReference@2@K@Z'
b'dui70.dll' b'?EnsureVisible@Element@DirectUI@@UEAA_NHHHH@Z'
b'dui70.dll' b'?SetKeyFocus@Element@DirectUI@@UEAAXXZ'
b'dui70.dll' b'?AddBehavior@Element@DirectUI@@UEAAJPEAUIDuiBehavior@@@Z'
b'dui70.dll' b'?RemoveBehavior@Element@DirectUI@@UEAAJPEAUIDuiBehavior@@@Z'
b'dui70.dll' b'?MessageCallback@TouchHWNDElement@DirectUI@@UEAAIPEAUtagGMSG@@@Z'
b'dui70.dll' b'?QueryInterface@Element@DirectUI@@UEAAJAEBU_GUID@@PEAPEAX@Z'
b'dui70.dll' b'?GetImmersiveFocusRectOffsets@Element@DirectUI@@UEAAXPEAUtagRECT@@@Z'
b'dui70.dll' b'?_SelfLayoutDoLayout@Element@DirectUI@@MEAAXHH@Z'
b'dui70.dll' b'?_SelfLayoutUpdateDesiredSize@Element@DirectUI@@MEAA?AUtagSIZE@@HHPEAVSurface@2@@Z'
b'dui70.dll' b'?OnHosted@Element@DirectUI@@MEAAXPEAV12@@Z'
b'dui70.dll' b'?OnUnHosted@Element@DirectUI@@MEAAXPEAV12@@Z'
b'dui70.dll' b'?UpdateTooltip@TouchHWNDElement@DirectUI@@UEAAXPEAVElement@2@@Z'
b'dui70.dll' b'?ActivateTooltip@TouchHWNDElement@DirectUI@@UEAAXPEAVElement@2@K@Z'
b'dui70.dll' b'?RemoveTooltip@TouchHWNDElement@DirectUI@@UEAAXPEAVElement@2@@Z'
b'dui70.dll' b'?GetKeyFocused@Element@DirectUI@@UEAA_NXZ'
b'dui70.dll' b'?GetAccessibleImpl@HWNDElement@DirectUI@@UEAAJPEAPEAUIAccessible@@@Z'
b'dui70.dll' b'?DefaultAction@Element@DirectUI@@UEAAJXZ'
b'dui70.dll' b'?GetUIAElementProvider@Element@DirectUI@@UEAAJAEBU_GUID@@PEAPEAX@Z'
b'dui70.dll' b'?GetElementProviderImpl@Element@DirectUI@@UEAAJPEAVInvokeHelper@2@PEAPEAVElementProvider@2@@Z'
b'dui70.dll' b'?HandleUiaDestroyListener@Element@DirectUI@@UEAAXXZ'
b'dui70.dll' b'?HandleUiaPropertyListener@Element@DirectUI@@UEAAXPEBUPropertyInfo@2@HPEAVValue@2@1@Z'
b'dui70.dll' b'?HandleUiaPropertyChangingListener@Element@DirectUI@@UEAAXPEBUPropertyInfo@2@@Z'
b'dui70.dll' b'?HandleUiaEventListener@Element@DirectUI@@UEAAXPEAUEvent@2@@Z'
b'dui70.dll' b'?GetUiaFocusDelegate@Element@DirectUI@@UEAAPEAV12@XZ'
b'dui70.dll' b'?GetHWND@HWNDElement@DirectUI@@UEAAPEAUHWND__@@XZ'
b'dui70.dll' b'?OnThemeChanged@HWNDElement@DirectUI@@UEAAXPEAUThemeChangedEvent@2@@Z'
b'dui70.dll' b'?OnImmersiveColorSchemeChanged@HWNDElement@DirectUI@@UEAAXXZ'
b'dui70.dll' b'?OnNoChildWithShortcutFound@HWNDElement@DirectUI@@UEAAXPEAUKeyboardEvent@2@@Z'
b'dui70.dll' b'?OnGetDlgCode@HWNDElement@DirectUI@@UEAAXPEAUtagMSG@@PEA_J@Z'
b'dui70.dll' b'?OnWmThemeChanged@HWNDElement@DirectUI@@UEAAX_K_J@Z'
b'dui70.dll' b'?OnWmSettingChanged@HWNDElement@DirectUI@@UEAAX_K_J@Z'
b'dui70.dll' b'?OnCompositionChanged@HWNDElement@DirectUI@@UEAAXXZ'
b'dui70.dll' b'?CanSetFocus@HWNDElement@DirectUI@@UEAA_NXZ'
b'dui70.dll' b'?IsMSAAEnabled@TouchHWNDElement@DirectUI@@UEAA_NXZ'
b'dui70.dll' b'?_OnUIStateChanged@TouchHWNDElement@DirectUI@@MEAAXGG@Z'
b'dui70.dll' b'?GetClassInfoW@TouchHWNDElement@DirectUI@@UEAAPEAUIClassInfo@2@XZ'
b'dui70.dll' b'?CreateStyleParser@HWNDElement@DirectUI@@UEAAJPEAPEAVDUIXmlParser@2@@Z'
b'dui70.dll' b'?GetWindowClassNameAndStyle@HWNDElement@DirectUI@@UEAAXPEAPEBGPEAI@Z'
b'dui70.dll' b'?AddRef@ClassInfoBase@DirectUI@@UEAAXXZ'
b'dui70.dll' b'?Release@ClassInfoBase@DirectUI@@UEAAHXZ'
b'dui70.dll' b'?EnumPropertyInfo@ClassInfoBase@DirectUI@@UEAAPEBUPropertyInfo@2@I@Z'
b'dui70.dll' b'?GetByClassIndex@ClassInfoBase@DirectUI@@UEAAPEBUPropertyInfo@2@I@Z'
b'dui70.dll' b'?GetPICount@ClassInfoBase@DirectUI@@UEBAIXZ'
b'dui70.dll' b'?GetGlobalIndex@ClassInfoBase@DirectUI@@UEBAIXZ'
b'dui70.dll' b'?GetName@ClassInfoBase@DirectUI@@UEBAPEBGXZ'
b'dui70.dll' b'?IsValidProperty@ClassInfoBase@DirectUI@@UEBA_NPEBUPropertyInfo@2@@Z'
b'dui70.dll' b'?IsSubclassOf@ClassInfoBase@DirectUI@@UEBA_NPEAUIClassInfo@2@@Z'
b'dui70.dll' b'?GetModule@ClassInfoBase@DirectUI@@UEBAPEAUHINSTANCE__@@XZ'
b'dui70.dll' b'?IsGlobal@ClassInfoBase@DirectUI@@UEBA_NXZ'
b'dui70.dll' b'?AddChild@ClassInfoBase@DirectUI@@UEAAXXZ'
b'dui70.dll' b'?RemoveChild@ClassInfoBase@DirectUI@@UEAAXXZ'
b'dui70.dll' b'?GetChildren@ClassInfoBase@DirectUI@@UEBAHXZ'
b'dui70.dll' b'?AssertPIZeroRef@ClassInfoBase@DirectUI@@UEBAXXZ'
b'dui70.dll' b'GetScaleFactor'
b'dui70.dll' b'?DestroyAll@Element@DirectUI@@QEAAJ_N@Z'
b'dui70.dll' b'?SyncDestroyWindow@NativeHWNDHost@DirectUI@@QEAAXXZ'
b'dui70.dll' b'?SetAlpha@Element@DirectUI@@QEAAJH@Z'
b'dui70.dll' b'?SetAccRole@Element@DirectUI@@QEAAJH@Z'
b'dui70.dll' b'?SetActive@Element@DirectUI@@QEAAJH@Z'
b'dui70.dll' b'?SetSelected@Element@DirectUI@@QEAAJ_N@Z'
b'dui70.dll' b'?GetElementScaleFactor@Element@DirectUI@@QEAAMXZ'
b'dui70.dll' b'?SetLayoutPos@Element@DirectUI@@QEAAJH@Z'
b'dui70.dll' b'?CreateInt@Value@DirectUI@@SAPEAV12@HW4DynamicScaleValue@@@Z'
b'dui70.dll' b'?GetExtent@Element@DirectUI@@QEAAPEBUtagSIZE@@PEAPEAVValue@2@@Z'
b'dui70.dll' b'?SetWidth@Element@DirectUI@@QEAAJH@Z'
b'dui70.dll' b'?WidthProp@Element@DirectUI@@SAPEBUPropertyInfo@2@XZ'
b'dui70.dll' b'?SetValue@Element@DirectUI@@QEAAJPEBUPropertyInfo@2@HPEAVValue@2@@Z'
b'dui70.dll' b'?HeightProp@Element@DirectUI@@SAPEBUPropertyInfo@2@XZ'
b'dui70.dll' b'?SetFont@Element@DirectUI@@QEAAJPEBG@Z'
b'dui70.dll' b'?SetColorFontPaletteIndex@RichText@DirectUI@@QEAAJH@Z'
b'dui70.dll' b'?ColorFontPaletteIndexProp@RichText@DirectUI@@SAPEBUPropertyInfo@2@XZ'
b'dui70.dll' b'?RemoveLocalValue@Element@DirectUI@@QEAAJPEBUPropertyInfo@2@@Z'
b'dui70.dll' b'?SetDirection@Element@DirectUI@@QEAAJH@Z'
b'dui70.dll' b'?ExtentProp@Element@DirectUI@@SAPEBUPropertyInfo@2@XZ'
b'dui70.dll' b'?GetWidth@Element@DirectUI@@QEAAHXZ'
b'dui70.dll' b'?SetHeight@Element@DirectUI@@QEAAJH@Z'
b'dui70.dll' b'?Initialize@NativeHWNDHost@DirectUI@@QEAAJPEBG0PEAUHWND__@@PEAUHICON__@@HHHHHHPEAUHINSTANCE__@@I@Z'
b'dui70.dll' b'?Destroy@NativeHWNDHost@DirectUI@@QEAAXXZ'
b'dui70.dll' b'?SetPadding@Element@DirectUI@@QEAAJHHHH@Z'
b'dui70.dll' b'??0Element@DirectUI@@QEAA@XZ'
b'dui70.dll' b'??1Element@DirectUI@@UEAA@XZ'
b'dui70.dll' b'??0TouchButton@DirectUI@@QEAA@XZ'
b'dui70.dll' b'??1TouchButton@DirectUI@@UEAA@XZ'
b'dui70.dll' b'?GetValue@Element@DirectUI@@QEAAPEAVValue@2@P6APEBUPropertyInfo@2@XZHPEAUUpdateCache@2@@Z'
b'dui70.dll' b'?MultipleClick@TouchButton@DirectUI@@SA?AVUID@@XZ'
b'dui70.dll' b'?GetChildren@Element@DirectUI@@QEAAPEAV?$DynamicArray@PEAVElement@DirectUI@@$0A@@2@PEAPEAVValue@2@@Z'
b'dui70.dll' b'?SetContentString@Element@DirectUI@@QEAAJPEBG@Z'
b'dui70.dll' b'?OnEvent@Element@DirectUI@@UEAAXPEAUEvent@2@@Z'
b'dui70.dll' b'?SetYOffset@BaseScrollViewer@DirectUI@@QEAAJH@Z'
b'dui70.dll' b'?AccNameProp@Element@DirectUI@@SAPEBUPropertyInfo@2@XZ'
b'dui70.dll' b'?RemoveLocalValue@Element@DirectUI@@QEAAJP6APEBUPropertyInfo@2@XZ@Z'
b'dui70.dll' b'?BorderThicknessProp@Element@DirectUI@@SAPEBUPropertyInfo@2@XZ'
b'dui70.dll' b'?SetEnabled@Element@DirectUI@@QEAAJ_N@Z'
b'dui70.dll' b'?Remove@Element@DirectUI@@QEAAJPEAV12@@Z'
b'dui70.dll' b'?GetYOffset@BaseScrollViewer@DirectUI@@QEAAHXZ'
b'dui70.dll' b'?GetRoot@Element@DirectUI@@QEAAPEAV12@XZ'
b'dui70.dll' b'?GetLocation@Element@DirectUI@@QEAAPEBUtagPOINT@@PEAPEAVValue@2@@Z'
b'dui70.dll' b'?SetX@Element@DirectUI@@QEAAJH@Z'
b'dui70.dll' b'?SetY@Element@DirectUI@@QEAAJH@Z'
b'dui70.dll' b'?Register@TouchButton@DirectUI@@SAJXZ'
b'dui70.dll' b'?Register@Element@DirectUI@@SAJXZ'
b'dui70.dll' b'?GetClassInfoPtr@Element@DirectUI@@SAPEAUIClassInfo@2@XZ'
b'dui70.dll' b'?Initialize@Element@DirectUI@@QEAAJIPEAV12@PEAK@Z'
b'dui70.dll' b'?Initialize@TouchButton@DirectUI@@QEAAJIPEAVElement@2@PEAK@Z'
b'dui70.dll' b'?GetClassInfoPtr@TouchButton@DirectUI@@SAPEAUIClassInfo@2@XZ'
b'dui70.dll' b'?OnPropertyChanged@Element@DirectUI@@UEAAXPEBUPropertyInfo@2@HPEAVValue@2@1@Z'
b'dui70.dll' b'?OnGroupChanged@Element@DirectUI@@UEAAXH_N@Z'
b'dui70.dll' b'?OnInput@Element@DirectUI@@UEAAXPEAUInputEvent@2@@Z'
b'dui70.dll' b'?OnKeyFocusMoved@Element@DirectUI@@UEAAXPEAV12@0@Z'
b'dui70.dll' b'?OnDestroy@Element@DirectUI@@UEAAXXZ'
b'dui70.dll' b'?MessageCallback@Element@DirectUI@@UEAAIPEAUtagGMSG@@@Z'
b'dui70.dll' b'?UpdateTooltip@Element@DirectUI@@MEAAXPEAV12@@Z'
b'dui70.dll' b'?ActivateTooltip@Element@DirectUI@@MEAAXPEAV12@K@Z'
b'dui70.dll' b'?RemoveTooltip@Element@DirectUI@@MEAAXPEAV12@@Z'
b'dui70.dll' b'?GetAccessibleImpl@Element@DirectUI@@UEAAJPEAPEAUIAccessible@@@Z'
b'dui70.dll' b'?OnPropertyChanged@TouchButton@DirectUI@@UEAAXPEBUPropertyInfo@2@HPEAVValue@2@1@Z'
b'dui70.dll' b'?OnInput@TouchButton@DirectUI@@UEAAXPEAUInputEvent@2@@Z'
b'dui70.dll' b'?OnEvent@TouchButton@DirectUI@@UEAAXPEAUEvent@2@@Z'
b'dui70.dll' b'?Paint@RichText@DirectUI@@UEAAXPEAUHDC__@@PEBUtagRECT@@1PEAU4@2@Z'
b'dui70.dll' b'?GetContentSize@RichText@DirectUI@@UEAA?AUtagSIZE@@HHPEAVSurface@2@@Z'
b'dui70.dll' b'?GetImmersiveFocusRectOffsets@TouchButton@DirectUI@@UEAAXPEAUtagRECT@@@Z'
b'dui70.dll' b'?OnHosted@TouchButton@DirectUI@@UEAAXPEAVElement@2@@Z'
b'dui70.dll' b'?OnUnHosted@TouchButton@DirectUI@@UEAAXPEAVElement@2@@Z'
b'dui70.dll' b'?DefaultAction@TouchButton@DirectUI@@UEAAJXZ'
b'dui70.dll' b'?GetForegroundColorRef@TouchButton@DirectUI@@UEAAJPEAK@Z'
b'dui70.dll' b'?FireClickEvent@TouchButton@DirectUI@@UEAAXIIW4ClickDevice@12@PEAUtagPOINT@@@Z'
b'dui70.dll' b'?FireRightClickEvent@TouchButton@DirectUI@@UEAAXIPEAUtagPOINT@@@Z'
b'dui70.dll' b'?PatternFromPatternId@Schema@DirectUI@@SA?AW4Pattern@12@H@Z'
b'dui70.dll' b'?DoInvoke@ElementProvider@DirectUI@@IEAAJHZZ'
b'dui70.dll' b'?Init@ElementProvider@DirectUI@@MEAAJPEAVElement@2@PEAVInvokeHelper@2@@Z'
b'dui70.dll' b'?Release@ElementProvider@DirectUI@@UEAAKXZ'
b'dui70.dll' b'??1ElementProvider@DirectUI@@UEAA@XZ'
b'dui70.dll' b'?GetProperty@ElementProxy@DirectUI@@IEAAJPEAUtagVARIANT@@H@Z'
b'dui70.dll' b'?DoMethod@ElementProxy@DirectUI@@UEAAJHPEAD@Z'
b'dui70.dll' b'?Init@ElementProxy@DirectUI@@MEAAXPEAVElement@2@@Z'
b'dui70.dll' b'?ManipulationCompleted@TouchScrollViewer@DirectUI@@SA?AVUID@@XZ'
b'dui70.dll' b'?CreatePatternProvider@Schema@DirectUI@@SAJW4Pattern@12@PEAVElementProvider@2@PEAPEAUIUnknown@@@Z'
b'dui70.dll' b'??0ElementProvider@DirectUI@@QEAA@XZ'
b'dui70.dll' b'?GetElement@ElementProvider@DirectUI@@UEAAPEDVElement@2@XZ'
b'dui70.dll' b'?TossElement@ElementProvider@DirectUI@@UEAAXXZ'
b'dui70.dll' b'?QueryInterface@ElementProvider@DirectUI@@UEAAJAEBU_GUID@@PEAPEAX@Z'
b'dui70.dll' b'?AddRef@ElementProvider@DirectUI@@UEAAKXZ'
b'dui70.dll' b'?get_ProviderOptions@ElementProvider@DirectUI@@UEAAJPEAW4ProviderOptions@@@Z'
b'dui70.dll' b'?GetPropertyValue@ElementProvider@DirectUI@@UEAAJHPEAUtagVARIANT@@@Z'
b'dui70.dll' b'?get_HostRawElementProvider@ElementProvider@DirectUI@@UEAAJPEAPEAUIRawElementProviderSimple@@@Z'
b'dui70.dll' b'?ShowContextMenu@ElementProvider@DirectUI@@UEAAJXZ'
b'dui70.dll' b'?Navigate@ElementProvider@DirectUI@@UEAAJW4NavigateDirection@@PEAPEAUIRawElementProviderFragment@@@Z'
b'dui70.dll' b'?GetRuntimeId@ElementProvider@DirectUI@@UEAAJPEAPEAUtagSAFEARRAY@@@Z'
b'dui70.dll' b'?get_BoundingRectangle@ElementProvider@DirectUI@@UEAAJPEAUUiaRect@@@Z'
b'dui70.dll' b'?GetEmbeddedFragmentRoots@ElementProvider@DirectUI@@UEAAJPEAPEAUtagSAFEARRAY@@@Z'
b'dui70.dll' b'?SetFocus@ElementProvider@DirectUI@@UEAAJXZ'
b'dui70.dll' b'?get_FragmentRoot@ElementProvider@DirectUI@@UEAAJPEAPEAUIRawElementProviderFragmentRoot@@@Z'
b'dui70.dll' b'?AdviseEventAdded@ElementProvider@DirectUI@@UEAAJHPEAUtagSAFEARRAY@@@Z'
b'dui70.dll' b'?AdviseEventRemoved@ElementProvider@DirectUI@@UEAAJHPEAUtagSAFEARRAY@@@Z'
b'dui70.dll' b'?SetAccValue@Element@DirectUI@@QEAAJPEBG@Z'
b'dui70.dll' b'?GetPadding@Element@DirectUI@@QEAAPEBUtagRECT@@PEAPEAVValue@2@@Z'
b'dui70.dll' b'?SetAccDesc@Element@DirectUI@@QEAAJPEBG@Z'
b'dui70.dll' b'?FireEvent@Element@DirectUI@@QEAAXPEAUEvent@2@_N1@Z'
b'dui70.dll' b'?GetContentString@Element@DirectUI@@QEAAPEBGPEAPEAVValue@2@@Z'
b'dui70.dll' b'?SelectionItemPattern@Schema@DirectUI@@2HA'
b'dui70.dll' b'?DoInvokeArgs@ElementProvider@DirectUI@@QEAAJHP6APEAVProviderProxy@2@PEAVElement@2@@ZPEAD@Z'
b'dui70.dll' b'??1RefcountBase@DirectUI@@UEAA@XZ'
b'dui70.dll' b'?TossPatternProvider@ElementProvider@DirectUI@@QEAAXW4Pattern@Schema@2@@Z'
b'dui70.dll' b'?Release@RefcountBase@DirectUI@@QEAAJXZ'
b'dui70.dll' b'?AddRef@RefcountBase@DirectUI@@QEAAJXZ'
b'dui70.dll' b'?Init@ProviderProxy@DirectUI@@MEAAXPEAVElement@2@@Z'
b'dui70.dll' b'?GetInvokeHelper@InvokeManager@DirectUI@@SAJPEAPEAVInvokeHelper@2@@Z'
b'dui70.dll' b'??0RefcountBase@DirectUI@@QEAA@XZ'
b'dui70.dll' b'?Find@ElementProviderManager@DirectUI@@SAPEAVElementProvider@2@PEAVElement@2@@Z'
b'dui70.dll' b'?Create@HWNDElementProvider@DirectUI@@SAJPEAVHWNDElement@2@PEAVInvokeHelper@2@PEAPEAV12@@Z'
b'dui70.dll' b'?Create@ElementProvider@DirectUI@@SAJPEAVElement@2@PEAVInvokeHelper@2@PEAPEAV12@@Z'
b'dui70.dll' b'?GetClassInfoPtr@HWNDElement@DirectUI@@SAPEAUIClassInfo@2@XZ'
b'dui70.dll' b'?GetStringNull@Value@DirectUI@@SAPEAV12@XZ'
b'dui70.dll' b'?GetIntZero@Value@DirectUI@@SAPEAV12@XZ'
b'dui70.dll' b'?ManipulationStarted@TouchScrollViewer@DirectUI@@SA?AVUID@@XZ'
b'kernel32.dll' b'OpenMutexW'
b'kernel32.dll' b'HeapReAlloc'
b'kernel32.dll' b'RegOpenCurrentUser'
b'kernel32.dll' b'RegQueryValueExW'
b'kernel32.dll' b'InitializeCriticalSectionEx'
b'kernel32.dll' b'CompareStringOrdinal'
b'kernel32.dll' b'LCIDToLocaleName'
b'kernel32.dll' b'MulDiv'
b'kernel32.dll' b'TlsFree'
b'kernel32.dll' b'CreateSemaphoreW'
b'kernel32.dll' b'TlsAlloc'
b'kernel32.dll' b'TlsSetValue'
b'kernel32.dll' b'FreeLibraryWhenCallbackReturns'
b'kernel32.dll' b'CallbackMayRunLong'
b'kernel32.dll' b'CloseThreadpoolTimer'
b'kernel32.dll' b'WaitForThreadpoolTimerCallbacks'
b'kernel32.dll' b'SetThreadpoolTimer'
b'kernel32.dll' b'CreateThreadpoolTimer'
b'kernel32.dll' b'TrySubmitThreadpoolCallback'
b'kernel32.dll' b'TryEnterCriticalSection'
b'kernel32.dll' b'GetSystemDirectoryW'
b'kernel32.dll' b'GetModuleFileNameW'
b'kernel32.dll' b'RegOpenKeyExW'
b'kernel32.dll' b'FindStringOrdinal'
b'kernel32.dll' b'OpenProcess'
b'kernel32.dll' b'WaitForMultipleObjectsEx'
b'kernel32.dll' b'ReleaseSRWLockShared'
b'kernel32.dll' b'AcquireSRWLockShared'
b'kernel32.dll' b'FreeLibraryAndExitThread'
b'kernel32.dll' b'SetEvent'
b'kernel32.dll' b'CreateThread'
b'kernel32.dll' b'ResetEvent'
b'kernel32.dll' b'CreateEventW'
b'kernel32.dll' b'InitializeCriticalSectionAndSpinCount'
b'kernel32.dll' b'RegCloseKey'
b'kernel32.dll' b'CreateThreadpoolWait'
b'kernel32.dll' b'CreateEventExW'
b'kernel32.dll' b'RegNotifyChangeKeyValue'
b'kernel32.dll' b'RegCreateKeyExW'
b'kernel32.dll' b'RegGetValueW'
b'kernel32.dll' b'FreeLibrary'
b'kernel32.dll' b'FindResourceExW'
b'kernel32.dll' b'LoadResource'
b'kernel32.dll' b'LockResource'
b'kernel32.dll' b'SizeofResource'
b'kernel32.dll' b'GetModuleHandleW'
b'kernel32.dll' b'SetThreadpoolWait'
b'kernel32.dll' b'AcquireSRWLockExclusive'
b'kernel32.dll' b'ReleaseSRWLockExclusive'
b'kernel32.dll' b'WaitForThreadpoolWaitCallbacks'
b'kernel32.dll' b'CloseThreadpoolWait'
b'api-ms-win-security-base-l1-2-0.dll' b'GetSidSubAuthorityCount'
b'api-ms-win-security-base-l1-2-0.dll' b'GetSidSubAuthority'
b'api-ms-win-security-base-l1-2-0.dll' b'GetTokenInformation'
b'api-ms-win-security-base-l1-2-0.dll' b'IsValidSid'
b'api-ms-win-core-delayload-l1-1-1.dll' b'DelayLoadFailureHook'
b'api-ms-win-core-delayload-l1-1-1.dll' b'ResolveDelayLoadedAPI'
b'ntdll.dll' b'EtwEventWrite'
b'ntdll.dll' b'RtlUnsubscribeWnfStateChangeNotification'
b'ntdll.dll' b'RtlSubscribeWnfStateChangeNotification'
b'ntdll.dll' b'RtlQueryWnfStateData'
b'ntdll.dll' b'RtlCompareUnicodeString'
b'ntdll.dll' b'RtlNtStatusToDosErrorNoTeb'
b'ntdll.dll' b'RtlAllocateHeap'
b'ntdll.dll' b'RtlInitUnicodeString'
b'ntdll.dll' b'NtQueryInformationToken'
b'ntdll.dll' b'RtlFreeHeap'
b'ntdll.dll' b'RtlPublishWnfStateData'
b'imm32.dll' b'ImmDisableLegacyIME'
b'imm32.dll' b'ImmDisableIME'
